 VibraimageEx

 Timestamp is 6523d566 (Mon Oct  9 13:26:46 2023)

 Preferred load address is 0000000140000000

 Start         Length     Name                   Class
 0001:00000000 00000280H .text$di                CODE
 0001:00000280 00054a40H .text$mn                CODE
 0001:00054cc0 00000020H .text$mn$00             CODE
 0001:00054ce0 00004760H .text$x                 CODE
 0001:00059440 0000031eH .text$yd                CODE
 0002:00000000 00002bc8H .idata$5                DATA
 0002:00002bc8 00000010H .00cfg                  DATA
 0002:00002bd8 00000008H .CRT$XCA                DATA
 0002:00002be0 00000008H .CRT$XCAA               DATA
 0002:00002be8 00000010H .CRT$XCL                DATA
 0002:00002bf8 00000060H .CRT$XCU                DATA
 0002:00002c58 00000008H .CRT$XCZ                DATA
 0002:00002c60 00000008H .CRT$XIA                DATA
 0002:00002c68 00000008H .CRT$XIAA               DATA
 0002:00002c70 00000008H .CRT$XIAC               DATA
 0002:00002c78 00000008H .CRT$XIC                DATA
 0002:00002c80 00000008H .CRT$XIZ                DATA
 0002:00002c88 00000008H .CRT$XLA                DATA
 0002:00002c90 00000008H .CRT$XLZ                DATA
 0002:00002c98 00000008H .CRT$XPA                DATA
 0002:00002ca0 00000008H .CRT$XPZ                DATA
 0002:00002ca8 00000008H .CRT$XTA                DATA
 0002:00002cb0 00000010H .CRT$XTZ                DATA
 0002:00002cb8 00000000H .gfids$y                DATA
 0002:00002cb8 00000000H .giats$y                DATA
 0002:00002cc0 00018ca0H .rdata                  DATA
 0002:0001b960 00000030H .rdata$T                DATA
 0002:0001b990 0000489cH .rdata$r                DATA
 0002:0002022c 000003f4H .rdata$zzzdbg           DATA
 0002:00020620 00000008H .rtc$IAA                DATA
 0002:00020628 00000008H .rtc$IZZ                DATA
 0002:00020630 00000008H .rtc$TAA                DATA
 0002:00020638 00000008H .rtc$TZZ                DATA
 0002:00020640 00000004H .tls                    DATA
 0002:00020644 00000004H .tls$                   DATA
 0002:00020648 00000008H .tls$ZZZ                DATA
 0002:00020650 0000d220H .xdata                  DATA
 0002:0002d870 00000248H .xdata$x                DATA
 0002:0002dab8 00000000H ATL$__a                 DATA
 0002:0002dab8 00000000H ATL$__z                 DATA
 0002:0002dab8 00000040H .didat$2                DATA
 0002:0002daf8 00000020H .didat$3                DATA
 0002:0002db18 00000480H .didat$4                DATA
 0002:0002df98 000026a8H .didat$6                DATA
 0002:00030640 00000480H .didat$7                DATA
 0002:00030ac0 00000000H .edata                  DATA
 0002:00030ac0 00000208H .idata$2                DATA
 0002:00030cc8 00000018H .idata$3                DATA
 0002:00030ce0 00002bc8H .idata$4                DATA
 0002:000338a8 00001a7cH .idata$6                DATA
 0003:00000000 00000830H .data                   DATA
 0003:00000830 00001870H .data$r                 DATA
 0003:000020a0 00000480H .didat$5                DATA
 0003:00002520 00000d00H .bss                    DATA
 0004:00000000 000048fcH .pdata                  DATA
 0005:00000000 00000d40H .rsrc$01                DATA
 0005:00000d40 0000a860H .rsrc$02                DATA

  Address         Publics by Value              Rva+Base               Lib:Object

 0000:00000000       __guard_longjmp_table      0000000000000000     <absolute>
 0000:00000000       __guard_iat_table          0000000000000000     <absolute>
 0000:00000000       __guard_fids_count         0000000000000000     <absolute>
 0000:00000000       __hybrid_code_map_count    0000000000000000     <absolute>
 0000:00000000       __enclave_config           0000000000000000     <absolute>
 0000:00000000       __guard_longjmp_count      0000000000000000     <absolute>
 0000:00000000       __hybrid_code_map          0000000000000000     <absolute>
 0000:00000000       __guard_iat_count          0000000000000000     <absolute>
 0000:00000000       __AbsoluteZero             0000000000000000     <absolute>
 0000:00000000       __volatile_metadata        0000000000000000     <absolute>
 0000:00000000       ___safe_se_handler_table   0000000000000000     <absolute>
 0000:00000000       __guard_fids_table         0000000000000000     <absolute>
 0000:00000000       ___safe_se_handler_count   0000000000000000     <absolute>
 0000:00000000       __hybrid_auxiliary_iat     0000000000000000     <absolute>
 0000:00000000       __dynamic_value_reloc_table 0000000000000000     <absolute>
 0000:00000100       __guard_flags              0000000000000100     <absolute>
 0000:00000000       __ImageBase                0000000140000000     <linker-defined>
 0001:00000280       ??$_Emplace_reallocate@V?$CStringT@_WV?$StrTraitMFC_DLL@_WV?$ChTraitsCRT@_W@ATL@@@@@ATL@@@?$vector@V?$CStringT@_WV?$StrTraitMFC_DLL@_WV?$ChTraitsCRT@_W@ATL@@@@@ATL@@V?$allocator@V?$CStringT@_WV?$StrTraitMFC_DLL@_WV?$ChTraitsCRT@_W@ATL@@@@@ATL@@@std@@@std@@QEAAPEAV?$CStringT@_WV?$StrTraitMFC_DLL@_WV?$ChTraitsCRT@_W@ATL@@@@@ATL@@QEAV23@$$QEAV23@@Z 0000000140001280 f i Cmdl.obj
 0001:000004b0       ??0CCmdl@@QEAA@XZ          00000001400014b0 f   Cmdl.obj
 0001:000004e0       ??1?$_Uninitialized_backout_al@V?$allocator@V?$CStringT@_WV?$StrTraitMFC_DLL@_WV?$ChTraitsCRT@_W@ATL@@@@@ATL@@@std@@@std@@QEAA@XZ 00000001400014e0 f i Cmdl.obj
 0001:00000520       ??1?$vector@V?$CStringT@_WV?$StrTraitMFC_DLL@_WV?$ChTraitsCRT@_W@ATL@@@@@ATL@@V?$allocator@V?$CStringT@_WV?$StrTraitMFC_DLL@_WV?$ChTraitsCRT@_W@ATL@@@@@ATL@@@std@@@std@@QEAA@XZ 0000000140001520 f i Cmdl.obj
 0001:00000520       ?_Tidy@?$vector@V?$CStringT@_WV?$StrTraitMFC_DLL@_WV?$ChTraitsCRT@_W@ATL@@@@@ATL@@V?$allocator@V?$CStringT@_WV?$StrTraitMFC_DLL@_WV?$ChTraitsCRT@_W@ATL@@@@@ATL@@@std@@@std@@AEAAXXZ 0000000140001520 f i PropertiesWnd.obj
 0001:000005b0       ??1CCmdl@@UEAA@XZ          00000001400015b0 f   Cmdl.obj
 0001:000005e0       ??_ECCmdl@@UEAAPEAXI@Z     00000001400015e0 f i Cmdl.obj
 0001:000005e0       ??_GCCmdl@@UEAAPEAXI@Z     00000001400015e0 f i Cmdl.obj
 0001:00000650       ?OnDblClk@CMFCToolBarButton@@UEAAXPEAVCWnd@@@Z 0000000140001650 f i VibraimageExToolBar.obj
 0001:00000650       ?OnDrawMenuLogo@CFrameWndEx@@UEAAXPEAVCDC@@PEAVCMFCPopupMenu@@AEBVCRect@@@Z 0000000140001650 f i VibraimageExFrame.obj
 0001:00000650       ?OnDrawDragRect@CPane@@MEAAXPEBUtagRECT@@0@Z 0000000140001650 f i VibraimageExMenu.obj
 0001:00000650       ?OnChangeTabs@CMFCBaseTabCtrl@@UEAAXXZ 0000000140001650 f i VibraimageExView.obj
 0001:00000650       ?DoDataExchange@CAboutDlg@@MEAAXPEAVCDataExchange@@@Z 0000000140001650 f i About.obj
 0001:00000650       ?OnMovePaneDivider@CBasePane@@UEAAXPEAVCPaneDivider@@@Z 0000000140001650 f i PropertiesWnd.obj
 0001:00000650       ?OnSize@CMFCToolBarButton@@UEAAXH@Z 0000000140001650 f i VibraimageExToolBar.obj
 0001:00000650       ?OnChangeSelection@CPropertiesWndProp@CDockablePaneVI@@UEAAXPEAVITEM@CPropertiesWnd@2@@Z 0000000140001650 f i PropertiesWndProp.obj
 0001:00000650       ?__empty_global_delete@@YAXPEAX_K@Z 0000000140001650 f i Cmdl.obj
 0001:00000650       ?PreSaveState@CWinAppEx@@MEAAXXZ 0000000140001650 f i CWinAppExReg.obj
 0001:00000650       ?AccNotifyObjectFocusEvent@CBasePane@@UEAAXH@Z 0000000140001650 f i PropertiesWnd.obj
 0001:00000650       ?OnContinueMoving@CDockablePane@@MEAAXXZ 0000000140001650 f i PropertiesWnd.obj
 0001:00000650       ?OnRichPreviewTextColorChanged@CDocument@@UEAAXXZ 0000000140001650 f i VibraimageExDoc.obj
 0001:00000650       ?DoDataExchange@CWnd@@MEAAXPEAVCDataExchange@@@Z 0000000140001650 f i ColorProcress.obj
 0001:00000650       ?OnCancelMode@CMFCToolBarButton@@UEAAXXZ 0000000140001650 f i VibraimageExToolBar.obj
 0001:00000650       ?OnAfterStretch@CPane@@MEAAXH@Z 0000000140001650 f i PropertiesWnd.obj
 0001:00000650       ?OnFilePrintPreview@CVibraimageExView@@IEAAXXZ 0000000140001650 f i VibraimageExView.obj
 0001:00000650       ?OnRemoveFromMiniFrame@CBasePane@@UEAAXPEAVCPaneFrameWnd@@@Z 0000000140001650 f i PropertiesWnd.obj
 0001:00000650       ?EnableGripper@CBasePane@@UEAAXH@Z 0000000140001650 f i VibraimageExMenu.obj
 0001:00000650       ?OnRClickValue@CMFCPropertyGridProperty@@UEAAXVCPoint@@H@Z 0000000140001650 f i PropertiesWndProp.obj
 0001:00000650       ??1CLogReport@@QEAA@XZ     0000000140001650 f i LogReport.obj
 0001:00000650       ?OnDrawCaption@CBasePane@@UEAAXXZ 0000000140001650 f i PropertiesWnd.obj
 0001:00000650       ?Dump@CObject@@UEBAXAEAVCDumpContext@@@Z 0000000140001650 f i Cmdl.obj
 0001:00000650       ?ToggleAutoHide@CPane@@UEAAXXZ 0000000140001650 f i VibraimageExMenu.obj
 0001:00000650       ?LoadCustomState@CVibraimageExApp@@UEAAXXZ 0000000140001650 f i VibraimageEx.obj
 0001:00000650       ?OnGlobalFontsChanged@CMFCToolBarButton@@UEAAXXZ 0000000140001650 f i VibraimageExToolBar.obj
 0001:00000650       ?OnFaceDetected@CViEngineExSupport@@QEAAXHAEBUtagRECT@@@Z 0000000140001650 f i ViEngineExSupport.obj
 0001:00000650       ?OnShow@CMFCToolBarButton@@UEAAXH@Z 0000000140001650 f i VibraimageExToolBar.obj
 0001:00000650       ?SetVSDotNetLook@CPropertiesWnd@CDockablePaneVI@@UEAAXH@Z 0000000140001650 f i PropertiesWnd.obj
 0001:00000650       ?OnBeginPrinting@CVibraimageExView@@MEAAXPEAVCDC@@PEAUCPrintInfo@@@Z 0000000140001650 f i VibraimageExView.obj
 0001:00000650       ?RegSave@CPropertiesWnd@CDockablePaneVI@@QEAAXXZ 0000000140001650 f i PropertiesWnd.obj
 0001:00000650       ?WriteProfileInt@CPropertiesPack@CDockablePaneVI@@UEAAXPEB_W0H@Z 0000000140001650 f i PropertiesPack.obj
 0001:00000650       ?OnPressButtons@CDockablePane@@MEAAXI@Z 0000000140001650 f i PropertiesWnd.obj
 0001:00000650       ?__global_delete@@YAXPEAX_K@Z 0000000140001650 f i Cmdl.obj
 0001:00000650       ?MakePostFileData_v1@CViHTTPStorage@@MEAAXPEAUtagHTTP_SEND@1@@Z 0000000140001650 f i CViHTTPStorage.obj
 0001:00000650       _guard_check_icall_nop     0000000140001650 f i msvcrt:guard_support.obj
 0001:00000650       ?OnEndPrinting@CVibraimageExView@@MEAAXPEAVCDC@@PEAUCPrintInfo@@@Z 0000000140001650 f i VibraimageExView.obj
 0001:00000650       ?OnNewVar@CVibraimageExVPos@@UEAAXHH@Z 0000000140001650 f i VibraimageExVPos.obj
 0001:00000650       ?OnFillBackground@CMFCToolBar@@UEAAXPEAVCDC@@@Z 0000000140001650 f i VibraimageExMenu.obj
 0001:00000650       ?OnFaceDetected@CViFTPStorage@@QEAAXPEAUtagVI_FACE_INFO_DATA@@@Z 0000000140001650 f i ViFTPStorage.obj
 0001:00000650       ?OnSetSelection@CMFCPropertyGridProperty@@UEAAXPEAV1@@Z 0000000140001650 f i PropertiesWndProp.obj
 0001:00000650       ?OnUpdateHelpAbout@CVibraimageExFrame@@QEAAXPEAVCCmdUI@@@Z 0000000140001650 f i VibraimageExFrame.obj
 0001:00000650       ?OnRichPreviewBackColorChanged@CDocument@@UEAAXXZ 0000000140001650 f i VibraimageExDoc.obj
 0001:00000650       ?OnBeforeRichPreviewFontChanged@CDocument@@UEAAXXZ 0000000140001650 f i VibraimageExDoc.obj
 0001:00000650       ?OnRichPreviewSiteChanged@CDocument@@UEAAXXZ 0000000140001650 f i VibraimageExDoc.obj
 0001:00000650       ?SetRadio@CMFCToolBarButton@@UEAAXXZ 0000000140001650 f i VibraimageExToolBar.obj
 0001:00000650       ?OnAddToCustomizePage@CMFCToolBarButton@@UEAAXXZ 0000000140001650 f i VibraimageExToolBar.obj
 0001:00000650       ?PreLoadState@CWinAppEx@@MEAAXXZ 0000000140001650 f i CWinAppExReg.obj
 0001:00000650       ?OnDragLeave@CMFCBaseTabCtrl@@UEAAXXZ 0000000140001650 f i VibraimageExView.obj
 0001:00000650       ?SaveBarState@CMFCToolBarButton@@UEAAXXZ 0000000140001650 f i VibraimageExToolBar.obj
 0001:00000650       ?DoDataExchange@CHTMLResult@@MEAAXPEAVCDataExchange@@@Z 0000000140001650 f i CHTMLResult.obj
 0001:00000650       ?OnPosSizeChanged@CMFCPropertyGridProperty@@UEAAXVCRect@@@Z 0000000140001650 f i PropertiesWndProp.obj
 0001:00000650       ?LoadCustomState@CWinAppEx@@MEAAXXZ 0000000140001650 f i CWinAppExReg.obj
 0001:00000650       ?OnRClickName@CMFCPropertyGridProperty@@UEAAXVCPoint@@@Z 0000000140001650 f i PropertiesWndProp.obj
 0001:00000650       ?AssertValid@CObject@@UEBAXXZ 0000000140001650 f i Cmdl.obj
 0001:00000650       ?SaveCustomState@CWinAppEx@@MEAAXXZ 0000000140001650 f i CWinAppExReg.obj
 0001:00000650       ?OnFrameImage@CViEngineExSupport@@QEAAXNPEB_WPEAXJHHH@Z 0000000140001650 f i ViEngineExSupport.obj
 0001:00000650       ?molResponse@CViEngineExProc@@UEAAXPEBD@Z 0000000140001650 f i ViEngineExProc.obj
 0001:00000650       ?Serialize@CObject@@UEAAXAEAVCArchive@@@Z 0000000140001650 f i Cmdl.obj
 0001:00000650       ?OnRichPreviewFontChanged@CDocument@@UEAAXXZ 0000000140001650 f i VibraimageExDoc.obj
 0001:00000650       ??1CViEngineExSupport@@QEAA@XZ 0000000140001650 f i ViEngineExSupport.obj
 0001:00000650       ?OnKillSelection@CMFCPropertyGridProperty@@UEAAXPEAV1@@Z 0000000140001650 f i PropertiesWndProp.obj
 0001:00000650       ?OnReset@CMFCToolBar@@UEAAXXZ 0000000140001650 f i VibraimageExMenu.obj
 0001:00000650       ?OnUpdateExpandAllProperties@CPropertiesWndProp@CDockablePaneVI@@IEAAXPEAVCCmdUI@@@Z 0000000140001650 f i PropertiesWndProp.obj
 0001:00000650       ?OnDefaultMenuLoaded@CMFCMenuBar@@UEAAXPEAUHMENU__@@@Z 0000000140001650 f i VibraimageExMenu.obj
 0001:00000650       ?OnBeforeStretch@CPane@@MEAAXAEAH@Z 0000000140001650 f i PropertiesWnd.obj
 0001:00000650       ?OnDraw@CVibraimageExView@@UEAAXPEAVCDC@@@Z 0000000140001650 f i VibraimageExView.obj
 0001:00000650       _initialize_denormal_control 0000000140001650 f i msvcrt:denormal_control.obj
 0001:00000650       ?OnMove@CMFCToolBarButton@@UEAAXXZ 0000000140001650 f i VibraimageExToolBar.obj
 0001:00000650       ?DoDataExchange@CDlgStarter@@MEAAXPEAVCDataExchange@@@Z 0000000140001650 f i CDlgStarter.obj
 0001:00000650       ?Serialize@CVibraimageExDoc@@UEAAXAEAVCArchive@@@Z 0000000140001650 f i VibraimageExDoc.obj
 0001:00000650       ?UpdateAll@CPropertiesWndBase@CDockablePaneVI@@UEAAXXZ 0000000140001650 f i PropertiesWndBase.obj
 0001:00000650       ??1CCrushCheck@@QEAA@XZ    0000000140001650 f i CrushCheck.obj
 0001:00000650       _initialize_invalid_parameter_handler 0000000140001650 f i msvcrt:invalid_parameter_handler.obj
 0001:00000650       ?InitializeSearchContent@CDocument@@UEAAXXZ 0000000140001650 f i VibraimageExDoc.obj
 0001:00000650       ?OnNewVar@CNewVarEvent@@UEAAXHH@Z 0000000140001650 f i NewVarEvent.obj
 0001:00000660       ?GetParam@CCmdl@@QEAA?AV?$CStringT@_WV?$StrTraitMFC_DLL@_WV?$ChTraitsCRT@_W@ATL@@@@@ATL@@H@Z 0000000140001660 f   Cmdl.obj
 0001:000006b0       ?GetParam@CCmdl@@QEAA?AV?$CStringT@_WV?$StrTraitMFC_DLL@_WV?$ChTraitsCRT@_W@ATL@@@@@ATL@@PEB_WH@Z 00000001400016b0 f   Cmdl.obj
 0001:00000750       ?IsSet@CCmdl@@QEAA_NPEB_WH@Z 0000000140001750 f   Cmdl.obj
 0001:000007e0       ?ParseParam@CCmdl@@UEAAXPEB_WHH@Z 00000001400017e0 f   Cmdl.obj
 0001:00000930       ?Remove@CCmdl@@QEAA_NPEB_WH@Z 0000000140001930 f   Cmdl.obj
 0001:000009f0       ?_Destroy@?$vector@V?$CStringT@_WV?$StrTraitMFC_DLL@_WV?$ChTraitsCRT@_W@ATL@@@@@ATL@@V?$allocator@V?$CStringT@_WV?$StrTraitMFC_DLL@_WV?$ChTraitsCRT@_W@ATL@@@@@ATL@@@std@@@std@@AEAAXPEAV?$CStringT@_WV?$StrTraitMFC_DLL@_WV?$ChTraitsCRT@_W@ATL@@@@@ATL@@0@Z 00000001400019f0 f i Cmdl.obj
 0001:00000a30       ?_Umove@?$vector@V?$CStringT@_WV?$StrTraitMFC_DLL@_WV?$ChTraitsCRT@_W@ATL@@@@@ATL@@V?$allocator@V?$CStringT@_WV?$StrTraitMFC_DLL@_WV?$ChTraitsCRT@_W@ATL@@@@@ATL@@@std@@@std@@AEAAPEAV?$CStringT@_WV?$StrTraitMFC_DLL@_WV?$ChTraitsCRT@_W@ATL@@@@@ATL@@PEAV34@00@Z 0000000140001a30 f i Cmdl.obj
 0001:00000ab0       ?_Xlength@?$vector@V?$CStringT@_WV?$StrTraitMFC_DLL@_WV?$ChTraitsCRT@_W@ATL@@@@@ATL@@V?$allocator@V?$CStringT@_WV?$StrTraitMFC_DLL@_WV?$ChTraitsCRT@_W@ATL@@@@@ATL@@@std@@@std@@CAXXZ 0000000140001ab0 f i Cmdl.obj
 0001:00000ab0       ?_Xlength@?$vector@UtagVAR@CColorProcress@@V?$allocator@UtagVAR@CColorProcress@@@std@@@std@@CAXXZ 0000000140001ab0 f i ColorProcress.obj
 0001:00000ab0       ?_Xlength@?$vector@HV?$allocator@H@std@@@std@@CAXXZ 0000000140001ab0 f i PropertiesWnd.obj
 0001:00000ab0       ?_Xlength@?$vector@PEAUtagENGINE_PACK@CVibraimageExApp@@V?$allocator@PEAUtagENGINE_PACK@CVibraimageExApp@@@std@@@std@@CAXXZ 0000000140001ab0 f i VibraimageEx.obj
 0001:00000ab0       ?_Xlength@?$vector@UtagITEM_VALUE@CPropertiesWnd@CDockablePaneVI@@V?$allocator@UtagITEM_VALUE@CPropertiesWnd@CDockablePaneVI@@@std@@@std@@CAXXZ 0000000140001ab0 f i PropertiesWnd.obj
 0001:00000ab0       ?_Xlength@?$vector@V?$shared_ptr@VCButton@@@std@@V?$allocator@V?$shared_ptr@VCButton@@@std@@@2@@std@@CAXXZ 0000000140001ab0 f i PropertiesWndProp.obj
 0001:00000ab0       ?_Xlength@?$vector@PEAVView@CVibraimageExOverview@@V?$allocator@PEAVView@CVibraimageExOverview@@@std@@@std@@CAXXZ 0000000140001ab0 f i VibraimageExOverview.obj
 0001:00000ab0       ?_Xlength@?$vector@V?$CStringT@DV?$StrTraitMFC_DLL@DV?$ChTraitsCRT@D@ATL@@@@@ATL@@V?$allocator@V?$CStringT@DV?$StrTraitMFC_DLL@DV?$ChTraitsCRT@D@ATL@@@@@ATL@@@std@@@std@@CAXXZ 0000000140001ab0 f i PropertiesPack.obj
 0001:00000ab0       ?_Xlength@?$vector@EV?$allocator@E@std@@@std@@CAXXZ 0000000140001ab0 f i CViHTTPStorage.obj
 0001:00000ab0       ?_Xlength@?$vector@DV?$allocator@D@std@@@std@@CAXXZ 0000000140001ab0 f i PropertiesPack.obj
 0001:00000ab0       ?_Xlength@?$vector@PEB_WV?$allocator@PEB_W@std@@@std@@CAXXZ 0000000140001ab0 f i CDlgStarter.obj
 0001:00000ab0       ?_Xlength@?$vector@PEAVCMFCButton@@V?$allocator@PEAVCMFCButton@@@std@@@std@@CAXXZ 0000000140001ab0 f i VibraimageExQT.obj
 0001:00000ad0       ?deallocate@?$allocator@V?$CStringT@_WV?$StrTraitMFC_DLL@_WV?$ChTraitsCRT@_W@ATL@@@@@ATL@@@std@@QEAAXQEAV?$CStringT@_WV?$StrTraitMFC_DLL@_WV?$ChTraitsCRT@_W@ATL@@@@@ATL@@_K@Z 0000000140001ad0 f i Cmdl.obj
 0001:00000ad0       ?deallocate@?$allocator@PEAVView@CVibraimageExOverview@@@std@@QEAAXQEAPEAVView@CVibraimageExOverview@@_K@Z 0000000140001ad0 f i VibraimageExOverview.obj
 0001:00000ad0       ?deallocate@?$allocator@PEAUtagENGINE_PACK@CVibraimageExApp@@@std@@QEAAXQEAPEAUtagENGINE_PACK@CVibraimageExApp@@_K@Z 0000000140001ad0 f i VibraimageEx.obj
 0001:00000ad0       ?deallocate@?$allocator@PEAVCMFCButton@@@std@@QEAAXQEAPEAVCMFCButton@@_K@Z 0000000140001ad0 f i VibraimageExQT.obj
 0001:00000ad0       ?deallocate@?$allocator@PEB_W@std@@QEAAXQEAPEB_W_K@Z 0000000140001ad0 f i CDlgStarter.obj
 0001:00000ad0       ?deallocate@?$allocator@V?$CStringT@DV?$StrTraitMFC_DLL@DV?$ChTraitsCRT@D@ATL@@@@@ATL@@@std@@QEAAXQEAV?$CStringT@DV?$StrTraitMFC_DLL@DV?$ChTraitsCRT@D@ATL@@@@@ATL@@_K@Z 0000000140001ad0 f i PropertiesPack.obj
 0001:00000b20       ??$_Emplace_reallocate@AEBV?$CStringT@_WV?$StrTraitMFC_DLL@_WV?$ChTraitsCRT@_W@ATL@@@@@ATL@@@?$vector@V?$CStringT@_WV?$StrTraitMFC_DLL@_WV?$ChTraitsCRT@_W@ATL@@@@@ATL@@V?$allocator@V?$CStringT@_WV?$StrTraitMFC_DLL@_WV?$ChTraitsCRT@_W@ATL@@@@@ATL@@@std@@@std@@QEAAPEAV?$CStringT@_WV?$StrTraitMFC_DLL@_WV?$ChTraitsCRT@_W@ATL@@@@@ATL@@QEAV23@AEBV23@@Z 0000000140001b20 f i ColorProcress.obj
 0001:00000c50       ??$_Erase_tree@V?$allocator@U?$_Tree_node@U?$pair@$$CBMK@std@@PEAX@std@@@std@@@?$_Tree_val@U?$_Tree_simple_types@U?$pair@$$CBMK@std@@@std@@@std@@QEAAXAEAV?$allocator@U?$_Tree_node@U?$pair@$$CBMK@std@@PEAX@std@@@1@PEAU?$_Tree_node@U?$pair@$$CBMK@std@@PEAX@1@@Z 0000000140001c50 f i ColorProcress.obj
 0001:00000c50       ??$_Erase_tree@V?$allocator@U?$_Tree_node@U?$pair@$$CBHK@std@@PEAX@std@@@std@@@?$_Tree_val@U?$_Tree_simple_types@U?$pair@$$CBHK@std@@@std@@@std@@QEAAXAEAV?$allocator@U?$_Tree_node@U?$pair@$$CBHK@std@@PEAX@std@@@1@PEAU?$_Tree_node@U?$pair@$$CBHK@std@@PEAX@1@@Z 0000000140001c50 f i PropertiesWndBase.obj
 0001:00000c50       ??$_Erase_tree@V?$allocator@U?$_Tree_node@U?$pair@$$CBHH@std@@PEAX@std@@@std@@@?$_Tree_val@U?$_Tree_simple_types@U?$pair@$$CBHH@std@@@std@@@std@@QEAAXAEAV?$allocator@U?$_Tree_node@U?$pair@$$CBHH@std@@PEAX@std@@@1@PEAU?$_Tree_node@U?$pair@$$CBHH@std@@PEAX@1@@Z 0000000140001c50 f i VibraimageExFrame.obj
 0001:00000cb0       ??$_Resize_reallocate@U_Value_init_tag@std@@@?$vector@UtagVAR@CColorProcress@@V?$allocator@UtagVAR@CColorProcress@@@std@@@std@@AEAAX_KAEBU_Value_init_tag@1@@Z 0000000140001cb0 f i ColorProcress.obj
 0001:00000e20       ??$explode@V?$CStringT@_WV?$StrTraitMFC_DLL@_WV?$ChTraitsCRT@_W@ATL@@@@@ATL@@@@YA?AV?$vector@V?$CStringT@_WV?$StrTraitMFC_DLL@_WV?$ChTraitsCRT@_W@ATL@@@@@ATL@@V?$allocator@V?$CStringT@_WV?$StrTraitMFC_DLL@_WV?$ChTraitsCRT@_W@ATL@@@@@ATL@@@std@@@std@@V?$CStringT@_WV?$StrTraitMFC_DLL@_WV?$ChTraitsCRT@_W@ATL@@@@@ATL@@AEBV23@@Z 0000000140001e20 f i ColorProcress.obj
 0001:00000ff0       ??0CColorProcress@@QEAA@H@Z 0000000140001ff0 f   ColorProcress.obj
 0001:00001330       ??1?$_Alloc_construct_ptr@V?$allocator@U?$_Tree_node@U?$pair@$$CBMK@std@@PEAX@std@@@std@@@std@@QEAA@XZ 0000000140002330 f i ColorProcress.obj
 0001:00001330       ??1?$_Alloc_construct_ptr@V?$allocator@U?$_Tree_node@U?$pair@$$CBHK@std@@PEAX@std@@@std@@@std@@QEAA@XZ 0000000140002330 f i PropertiesWndBase.obj
 0001:00001330       ??1?$_Alloc_construct_ptr@V?$allocator@U?$_Tree_node@U?$pair@$$CBHH@std@@PEAX@std@@@std@@@std@@QEAA@XZ 0000000140002330 f i VibraimageExFrame.obj
 0001:00001350       ??1?$map@HHU?$less@H@std@@V?$allocator@U?$pair@$$CBHH@std@@@2@@std@@QEAA@XZ 0000000140002350 f i VibraimageExFrame.obj
 0001:00001350       ??1?$map@MKU?$less@M@std@@V?$allocator@U?$pair@$$CBMK@std@@@2@@std@@QEAA@XZ 0000000140002350 f i ColorProcress.obj
 0001:00001350       ??1?$_Tree@V?$_Tmap_traits@HKU?$less@H@std@@V?$allocator@U?$pair@$$CBHK@std@@@2@$0A@@std@@@std@@QEAA@XZ 0000000140002350 f i PropertiesWndBase.obj
 0001:000013b0       ??1?$vector@UtagVAR@CColorProcress@@V?$allocator@UtagVAR@CColorProcress@@@std@@@std@@QEAA@XZ 00000001400023b0 f i ColorProcress.obj
 0001:00001430       ??1CBrush@@UEAA@XZ         0000000140002430 f i ColorProcress.obj
 0001:00001440       ??1CColorProcress@@UEAA@XZ 0000000140002440 f   ColorProcress.obj
 0001:00001560       ??1CCriticalSection@@UEAA@XZ 0000000140002560 f i ColorProcress.obj
 0001:00001590       ??1CGdiObject@@UEAA@XZ     0000000140002590 f i ColorProcress.obj
 0001:000015e0       ??1CImage@ATL@@UEAA@XZ     00000001400025e0 f i ColorProcress.obj
 0001:00001680       ??1CImageDC@ATL@@QEAA@XZ   0000000140002680 f i ColorProcress.obj
 0001:000016e0       ??1CPen@@UEAA@XZ           00000001400026e0 f i ColorProcress.obj
 0001:000016f0       ??1CSingleLock@@QEAA@XZ    00000001400026f0 f i ColorProcress.obj
 0001:00001710       ??3CObject@@SAXPEAX@Z      0000000140002710 f i ColorProcress.obj
 0001:00001710       ??3@YAXPEAX_K@Z            0000000140002710 f i msvcrt:delete_scalar_size.obj
 0001:00001720       ??_GCBrush@@UEAAPEAXI@Z    0000000140002720 f i ColorProcress.obj
 0001:00001720       ??_ECBrush@@UEAAPEAXI@Z    0000000140002720 f i ColorProcress.obj
 0001:00001780       ??_ECColorProcress@@UEAAPEAXI@Z 0000000140002780 f i ColorProcress.obj
 0001:00001780       ??_GCColorProcress@@UEAAPEAXI@Z 0000000140002780 f i ColorProcress.obj
 0001:000018c0       ??_ECCriticalSection@@UEAAPEAXI@Z 00000001400028c0 f i ColorProcress.obj
 0001:000018c0       ??_GCCriticalSection@@UEAAPEAXI@Z 00000001400028c0 f i ColorProcress.obj
 0001:00001930       ??_GCGdiObject@@UEAAPEAXI@Z 0000000140002930 f i ColorProcress.obj
 0001:00001930       ??_ECGdiObject@@UEAAPEAXI@Z 0000000140002930 f i ColorProcress.obj
 0001:00001980       ??_ECImage@ATL@@UEAAPEAXI@Z 0000000140002980 f i ColorProcress.obj
 0001:00001980       ??_GCImage@ATL@@UEAAPEAXI@Z 0000000140002980 f i ColorProcress.obj
 0001:000019c0       ??_ECPen@@UEAAPEAXI@Z      00000001400029c0 f i ColorProcress.obj
 0001:000019c0       ??_GCPen@@UEAAPEAXI@Z      00000001400029c0 f i ColorProcress.obj
 0001:00001a20       ?AtlThrowImpl@ATL@@YAXJ@Z  0000000140002a20 f i ColorProcress.obj
 0001:00001a40       ?BeginModalState@CWnd@@UEAAXXZ 0000000140002a40 f i ColorProcress.obj
 0001:00001a50       ?CreateEx@CImage@ATL@@QEAAHHHHKPEBKK@Z 0000000140002a50 f i ColorProcress.obj
 0001:00001d60       ?CreateFontW@CColorProcress@@QEAAXH@Z 0000000140002d60 f   ColorProcress.obj
 0001:00001e10       ?CreateObject@CColorProcress@@SAPEAVCObject@@XZ 0000000140002e10 f   ColorProcress.obj
 0001:00001e50       ?Draw0@CColorProcress@@UEAAXAEAVCDC@@AEAVCRect@@_N@Z 0000000140002e50 f   ColorProcress.obj
 0001:00001f30       ?Draw1@CColorProcress@@UEAAXAEAVCDC@@AEAVCRect@@_N@Z 0000000140002f30 f   ColorProcress.obj
 0001:00002090       ?Draw@CColorProcress@@UEAAXAEAVCDC@@AEAVCRect@@_NH@Z 0000000140003090 f   ColorProcress.obj
 0001:000020b0       ?EndModalState@CWnd@@UEAAXXZ 00000001400030b0 f i ColorProcress.obj
 0001:000020c0       ?GetCDCCacheInstance@CImage@ATL@@CAPEAVCDCCache@12@XZ 00000001400030c0 f i ColorProcress.obj
 0001:00002150       ?GetColor@CColorProcress@@QEAAKXZ 0000000140003150 f   ColorProcress.obj
 0001:00002240       ?GetInitGDIPlusInstance@CImage@ATL@@CAPEAVCInitGDIPlus@12@XZ 0000000140003240 f i ColorProcress.obj
 0001:000022f0       ?GetMessageMap@CColorProcress@@MEBAPEBUAFX_MSGMAP@@XZ 00000001400032f0 f   ColorProcress.obj
 0001:00002300       ?GetRuntimeClass@CColorProcress@@UEBAPEAUCRuntimeClass@@XZ 0000000140003300 f   ColorProcress.obj
 0001:00002310       ?Lock@CCriticalSection@@UEAAHK@Z 0000000140003310 f i ColorProcress.obj
 0001:00002330       ?OnCreate@CColorProcress@@QEAAHPEAUtagCREATESTRUCTW@@@Z 0000000140003330 f   ColorProcress.obj
 0001:00002370       ?OnEraseBkgnd@CColorProcress@@QEAAHPEAVCDC@@@Z 0000000140003370 f   ColorProcress.obj
 0001:000023d0       ?OnLButtonDown@CColorProcress@@QEAAXIVCPoint@@@Z 00000001400033d0 f   ColorProcress.obj
 0001:00002440       ?OnLButtonUp@CColorProcress@@QEAAXIVCPoint@@@Z 0000000140003440 f   ColorProcress.obj
 0001:000024b0       ?OnMove@CColorProcress@@QEAAXHH@Z 00000001400034b0 f   ColorProcress.obj
 0001:000024b0       ?OnSizing@CColorProcress@@QEAAXIPEAUtagRECT@@@Z 00000001400034b0 f   ColorProcress.obj
 0001:000024b0       ?OnMoving@CColorProcress@@QEAAXIPEAUtagRECT@@@Z 00000001400034b0 f   ColorProcress.obj
 0001:000024d0       ?OnPaint@CColorProcress@@QEAAXXZ 00000001400034d0 f   ColorProcress.obj
 0001:00002910       ?OnPaintSemaphore@CColorProcress@@QEAAXAEAVCDC@@AEAVCRect@@@Z 0000000140003910 f   ColorProcress.obj
 0001:00002ba0       ?OnPaintStd@CColorProcress@@QEAAXAEAVCDC@@AEAVCRect@@@Z 0000000140003ba0 f   ColorProcress.obj
 0001:000033b0       ?OnSize@CColorProcress@@QEAAXIHH@Z 00000001400043b0 f   ColorProcress.obj
 0001:00003470       ?OnTimer@CColorProcress@@QEAAX_K@Z 0000000140004470 f   ColorProcress.obj
 0001:000034f0       ?SetPos@CColorProcress@@QEAAXMH_N@Z 00000001400044f0 f   ColorProcress.obj
 0001:00003530       ?SetRange@CColorProcress@@QEAAXMMH@Z 0000000140004530 f   ColorProcress.obj
 0001:000035c0       ?Unlock@CCriticalSection@@UEAAHXZ 00000001400045c0 f i ColorProcress.obj
 0001:000035e0       ?IsProcessFirstClick@CMFCPropertyGridProperty@@MEBAHXZ 00000001400045e0 f i PropertiesWndProp.obj
 0001:000035e0       ?OnBeforeDrop@CMFCToolBarButton@@UEAAHPEAVCMFCToolBar@@@Z 00000001400045e0 f i VibraimageExToolBar.obj
 0001:000035e0       ?OnBeforeRemoveButton@CMFCToolBar@@UEAAHPEAVCMFCToolBarButton@@K@Z 00000001400045e0 f i VibraimageExMenu.obj
 0001:000035e0       ?CanBeStored@CMFCToolBarButton@@UEBAHXZ 00000001400045e0 f i VibraimageExToolBar.obj
 0001:000035e0       ?HideInPrintPreviewMode@CBasePane@@UEBAHXZ 00000001400045e0 f i PropertiesWnd.obj
 0001:000035e0       ?GetDockingMode@CMFCBaseToolBar@@UEBA?AW4AFX_DOCK_TYPE@@XZ 00000001400045e0 f i VibraimageExMenu.obj
 0001:000035e0       ?ValidateItemData@CPropertiesWndProp@CDockablePaneVI@@UEAAHPEAVCMFCPropertyGridProperty@@@Z 00000001400045e0 f i PropertiesWndProp.obj
 0001:000035e0       ?OnRenameTab@CMFCBaseTabCtrl@@UEAAHHAEAV?$CStringT@_WV?$StrTraitMFC_DLL@_WV?$ChTraitsCRT@_W@ATL@@@@@ATL@@@Z 00000001400045e0 f i VibraimageExView.obj
 0001:000035e0       ?CanBeRestored@CMFCMenuBar@@UEBAHXZ 00000001400045e0 f i VibraimageExMenu.obj
 0001:000035e0       ?OnCloseMiniFrame@CFrameWndEx@@UEAAHPEAVCPaneFrameWnd@@@Z 00000001400045e0 f i VibraimageExFrame.obj
 0001:000035e0       ?CanFocus@CBasePane@@UEBAHXZ 00000001400045e0 f i PropertiesWnd.obj
 0001:000035e0       ?AllowAltCustomization@CMFCToolBar@@MEBAHXZ 00000001400045e0 f i VibraimageExMenu.obj
 0001:000035e0       ?OnAfterShowPaneMenu@CPane@@MEAAHH@Z 00000001400045e0 f i PropertiesWnd.obj
 0001:000035e0       ?IsResizable@CDockablePane@@UEBAHXZ 00000001400045e0 f i PropertiesWnd.obj
 0001:000035e0       ?OnEditKillFocus@CMFCPropertyGridProperty@@MEAAHXZ 00000001400045e0 f i PropertiesWndProp.obj
 0001:000035e0       ?ValidateItemData@CMFCPropertyGridCtrl@@UEAAHPEAVCMFCPropertyGridProperty@@@Z 00000001400045e0 f i PropertiesWndProp.obj
 0001:000035e0       ?IsTabLocationBottom@CDockablePane@@UEBAHXZ 00000001400045e0 f i PropertiesWnd.obj
 0001:000035e0       ?AllowDestroyEmptyTabbedPane@CMFCTabCtrl@@UEBAHXZ 00000001400045e0 f i VibraimageExView.obj
 0001:000035e0       ?AllowChangeTextLabels@CMFCToolBar@@UEBAHXZ 00000001400045e0 f i VibraimageExToolBar.obj
 0001:000035e0       ?OnBeforeShowPaneMenu@CVibraimageExGraph@@UEAAHAEAVCMenu@@@Z 00000001400045e0 f i VibraimageExGraph.obj
 0001:000035e0       ?OnBeforeShowPaneMenu@CPane@@MEAAHAEAVCMenu@@@Z 00000001400045e0 f i PropertiesWnd.obj
 0001:000035e0       ?HaveHotBorder@CMFCToolBarButton@@UEBAHXZ 00000001400045e0 f i VibraimageExToolBar.obj
 0001:000035e0       ?OnCloseDockingPane@CFrameWndEx@@UEAAHPEAVCDockablePane@@@Z 00000001400045e0 f i VibraimageExFrame.obj
 0001:000035e0       ?Unlock@CSyncObject@@UEAAHJPEAJ@Z 00000001400045e0 f i ColorProcress.obj
 0001:000035e0       ?OnTearOffMenu@CFrameWndEx@@UEAAHPEAVCMFCPopupMenu@@PEAVCPane@@@Z 00000001400045e0 f i VibraimageExFrame.obj
 0001:000035e0       ?OnKillFocus@CMFCPropertyGridProperty@@MEAAHPEAVCWnd@@@Z 00000001400045e0 f i PropertiesWndProp.obj
 0001:000035e0       ?IsButtonExtraSizeAvailable@CMFCToolBar@@UEBAHXZ 00000001400045e0 f i VibraimageExToolBar.obj
 0001:000035e0       ?IsAccessibilityCompatible@CBasePane@@UEAAHXZ 00000001400045e0 f i VibraimageExMenu.obj
 0001:000035e0       ?CanBeDropped@CMFCToolBarButton@@UEAAHPEAVCMFCToolBar@@@Z 00000001400045e0 f i VibraimageExToolBar.obj
 0001:000035e0       ?HasAutoHideMode@CDockablePane@@UEBAHXZ 00000001400045e0 f i PropertiesWnd.obj
 0001:000035e0       ?AllowShowOnPaneMenu@CPane@@UEBAHXZ 00000001400045e0 f i PropertiesWnd.obj
 0001:000035e0       ?HasValueField@ITEM_PROP@CPropertiesWndProp@CDockablePaneVI@@UEBAHXZ 00000001400045e0 f i PropertiesWndProp.obj
 0001:000035e0       ?AllowShowOnList@CMFCToolBar@@MEBAHXZ 00000001400045e0 f i VibraimageExMenu.obj
 0001:000035e0       _get_startup_argv_mode     00000001400045e0 f i msvcrt:argv_mode.obj
 0001:000035e0       ?OnBeforeDrag@CMFCToolBarButton@@UEBAHXZ 00000001400045e0 f i VibraimageExToolBar.obj
 0001:000035f0       ?_AtlInitializeCriticalSectionEx@ATL@@YAHPEAU_RTL_CRITICAL_SECTION@@KK@Z 00000001400045f0 f i ColorProcress.obj
 0001:00003600       ?_Change_array@?$vector@V?$CStringT@_WV?$StrTraitMFC_DLL@_WV?$ChTraitsCRT@_W@ATL@@@@@ATL@@V?$allocator@V?$CStringT@_WV?$StrTraitMFC_DLL@_WV?$ChTraitsCRT@_W@ATL@@@@@ATL@@@std@@@std@@AEAAXQEAV?$CStringT@_WV?$StrTraitMFC_DLL@_WV?$ChTraitsCRT@_W@ATL@@@@@ATL@@_K1@Z 0000000140004600 f i ColorProcress.obj
 0001:000036c0       ?_GetBaseClass@CColorProcress@@KAPEAUCRuntimeClass@@XZ 00000001400046c0 f   ColorProcress.obj
 0001:000036d0       ?_Getal@?$vector@UtagVAR@CColorProcress@@V?$allocator@UtagVAR@CColorProcress@@@std@@@std@@AEAAAEAV?$allocator@UtagVAR@CColorProcress@@@2@XZ 00000001400046d0 f i ColorProcress.obj
 0001:000036d0       ?_Getal@?$vector@UtagITEM_VALUE@CPropertiesWnd@CDockablePaneVI@@V?$allocator@UtagITEM_VALUE@CPropertiesWnd@CDockablePaneVI@@@std@@@std@@AEAAAEAV?$allocator@UtagITEM_VALUE@CPropertiesWnd@CDockablePaneVI@@@2@XZ 00000001400046d0 f i PropertiesWnd.obj
 0001:000036d0       ?_Getal@?$vector@DV?$allocator@D@std@@@std@@AEAAAEAV?$allocator@D@2@XZ 00000001400046d0 f i PropertiesPack.obj
 0001:000036d0       ?_Getal@?$vector@V?$CStringT@DV?$StrTraitMFC_DLL@DV?$ChTraitsCRT@D@ATL@@@@@ATL@@V?$allocator@V?$CStringT@DV?$StrTraitMFC_DLL@DV?$ChTraitsCRT@D@ATL@@@@@ATL@@@std@@@std@@AEAAAEAV?$allocator@V?$CStringT@DV?$StrTraitMFC_DLL@DV?$ChTraitsCRT@D@ATL@@@@@ATL@@@2@XZ 00000001400046d0 f i PropertiesPack.obj
 0001:000036d0       ?_Getal@?$vector@EV?$allocator@E@std@@@std@@AEAAAEAV?$allocator@E@2@XZ 00000001400046d0 f i CViHTTPStorage.obj
 0001:000036d0       ?_Getal@?$vector@V?$CStringT@_WV?$StrTraitMFC_DLL@_WV?$ChTraitsCRT@_W@ATL@@@@@ATL@@V?$allocator@V?$CStringT@_WV?$StrTraitMFC_DLL@_WV?$ChTraitsCRT@_W@ATL@@@@@ATL@@@std@@@std@@AEAAAEAV?$allocator@V?$CStringT@_WV?$StrTraitMFC_DLL@_WV?$ChTraitsCRT@_W@ATL@@@@@ATL@@@2@XZ 00000001400046d0 f i ColorProcress.obj
 0001:000036d0       ?_Getal@?$vector@PEAVView@CVibraimageExOverview@@V?$allocator@PEAVView@CVibraimageExOverview@@@std@@@std@@AEAAAEAV?$allocator@PEAVView@CVibraimageExOverview@@@2@XZ 00000001400046d0 f i VibraimageExOverview.obj
 0001:000036d0       ?_Getal@?$vector@PEAUtagENGINE_PACK@CVibraimageExApp@@V?$allocator@PEAUtagENGINE_PACK@CVibraimageExApp@@@std@@@std@@AEAAAEAV?$allocator@PEAUtagENGINE_PACK@CVibraimageExApp@@@2@XZ 00000001400046d0 f i VibraimageEx.obj
 0001:000036d0       ??0CCrushCheck@@QEAA@XZ    00000001400046d0 f i CrushCheck.obj
 0001:000036d0       ??0CLogReport@@QEAA@XZ     00000001400046d0 f i LogReport.obj
 0001:000036e0       ?_Reallocate_exactly@?$vector@V?$CStringT@_WV?$StrTraitMFC_DLL@_WV?$ChTraitsCRT@_W@ATL@@@@@ATL@@V?$allocator@V?$CStringT@_WV?$StrTraitMFC_DLL@_WV?$ChTraitsCRT@_W@ATL@@@@@ATL@@@std@@@std@@AEAAX_K@Z 00000001400046e0 f i ColorProcress.obj
 0001:00003750       ?_Umove_if_noexcept@?$vector@V?$CStringT@_WV?$StrTraitMFC_DLL@_WV?$ChTraitsCRT@_W@ATL@@@@@ATL@@V?$allocator@V?$CStringT@_WV?$StrTraitMFC_DLL@_WV?$ChTraitsCRT@_W@ATL@@@@@ATL@@@std@@@std@@AEAAXPEAV?$CStringT@_WV?$StrTraitMFC_DLL@_WV?$ChTraitsCRT@_W@ATL@@@@@ATL@@00@Z 0000000140004750 f i ColorProcress.obj
 0001:000037c0       ?allocate@?$allocator@UtagVAR@CColorProcress@@@std@@QEAAPEAUtagVAR@CColorProcress@@_K@Z 00000001400047c0 f i ColorProcress.obj
 0001:00003840       ?allocate@?$allocator@PEAUtagENGINE_PACK@CVibraimageExApp@@@std@@QEAAPEAPEAUtagENGINE_PACK@CVibraimageExApp@@_K@Z 0000000140004840 f i VibraimageEx.obj
 0001:00003840       ?allocate@?$allocator@PEAVView@CVibraimageExOverview@@@std@@QEAAPEAPEAVView@CVibraimageExOverview@@_K@Z 0000000140004840 f i VibraimageExOverview.obj
 0001:00003840       ?allocate@?$allocator@V?$CStringT@_WV?$StrTraitMFC_DLL@_WV?$ChTraitsCRT@_W@ATL@@@@@ATL@@@std@@QEAAPEAV?$CStringT@_WV?$StrTraitMFC_DLL@_WV?$ChTraitsCRT@_W@ATL@@@@@ATL@@_K@Z 0000000140004840 f i ColorProcress.obj
 0001:00003840       ?allocate@?$allocator@V?$CStringT@DV?$StrTraitMFC_DLL@DV?$ChTraitsCRT@D@ATL@@@@@ATL@@@std@@QEAAPEAV?$CStringT@DV?$StrTraitMFC_DLL@DV?$ChTraitsCRT@D@ATL@@@@@ATL@@_K@Z 0000000140004840 f i PropertiesPack.obj
 0001:000038c0       ?deallocate@?$allocator@UtagVAR@CColorProcress@@@std@@QEAAXQEAUtagVAR@CColorProcress@@_K@Z 00000001400048c0 f i ColorProcress.obj
 0001:00003910       ??0CNewVarEvent@@QEAA@XZ   0000000140004910 f   NewVarEvent.obj
 0001:00003a00       ??1?$_Alloc_construct_ptr@V?$allocator@U?$_List_node@PEAUtagPANE@CPropertiesPack@CDockablePaneVI@@PEAX@std@@@std@@@std@@QEAA@XZ 0000000140004a00 f i PropertiesPack.obj
 0001:00003a00       ??1?$_Alloc_construct_ptr@V?$allocator@U?$_List_node@PEAVCNewVarEvent@@PEAX@std@@@std@@@std@@QEAA@XZ 0000000140004a00 f i NewVarEvent.obj
 0001:00003a00       ??1?$_List_node_emplace_op@V?$allocator@U?$_List_node@PEAUtagPANE@CPropertiesPack@CDockablePaneVI@@PEAX@std@@@std@@@std@@QEAA@XZ 0000000140004a00 f i PropertiesPack.obj
 0001:00003a00       ??1?$_Alloc_construct_ptr@V?$allocator@U?$_List_node@PEAVITEM@CPropertiesWnd@CDockablePaneVI@@PEAX@std@@@std@@@std@@QEAA@XZ 0000000140004a00 f i PropertiesWnd.obj
 0001:00003a00       ??1?$_Alloc_construct_ptr@V?$allocator@U?$_List_node@V?$CStringT@_WV?$StrTraitMFC_DLL@_WV?$ChTraitsCRT@_W@ATL@@@@@ATL@@PEAX@std@@@std@@@std@@QEAA@XZ 0000000140004a00 f i CViHTTPStorage.obj
 0001:00003a00       ??1?$_List_node_emplace_op@V?$allocator@U?$_List_node@PEAVITEM@CPropertiesWnd@CDockablePaneVI@@PEAX@std@@@std@@@std@@QEAA@XZ 0000000140004a00 f i PropertiesWnd.obj
 0001:00003a00       ??1?$_List_node_emplace_op@V?$allocator@U?$_List_node@PEAVCNewVarEvent@@PEAX@std@@@std@@@std@@QEAA@XZ 0000000140004a00 f i NewVarEvent.obj
 0001:00003a20       ??1?$unique_lock@Vrecursive_mutex@std@@@std@@QEAA@XZ 0000000140004a20 f i NewVarEvent.obj
 0001:00003a50       ??1CNewVarEvent@@UEAA@XZ   0000000140004a50 f   NewVarEvent.obj
 0001:00003b40       ??_ECNewVarEvent@@UEAAPEAXI@Z 0000000140004b40 f i NewVarEvent.obj
 0001:00003b40       ??_GCNewVarEvent@@UEAAPEAXI@Z 0000000140004b40 f i NewVarEvent.obj
 0001:00003c60       ?OnNewVar@CNewVarEvent@@UEAAXHHH@Z 0000000140004c60 f   NewVarEvent.obj
 0001:00003cc0       ?PushVar@CNewVarEvent@@QEAAXHHH@Z 0000000140004cc0 f   NewVarEvent.obj
 0001:00003d40       ??$_Reallocate_grow_by@V<lambda_16d2cb92461ac9818af78a76c749bd7f>@@_K_KPEBD_K@?$basic_string@DU?$char_traits@D@std@@V?$allocator@D@2@@std@@AEAAAEAV01@_KV<lambda_16d2cb92461ac9818af78a76c749bd7f>@@_K2PEBD2@Z 0000000140004d40 f i pugixml.obj
 0001:00003f00       ??$_Reallocate_grow_by@V<lambda_319d5e083f45f90dcdce5dce53cbb275>@@D@?$basic_string@DU?$char_traits@D@std@@V?$allocator@D@2@@std@@AEAAAEAV01@_KV<lambda_319d5e083f45f90dcdce5dce53cbb275>@@D@Z 0000000140004f00 f i pugixml.obj
 0001:00004060       ??$_Reallocate_grow_by@V<lambda_65e615be2a453ca0576c979606f46740>@@PEBD_K@?$basic_string@DU?$char_traits@D@std@@V?$allocator@D@2@@std@@AEAAAEAV01@_KV<lambda_65e615be2a453ca0576c979606f46740>@@PEBD_K@Z 0000000140005060 f i pugixml.obj
 0001:000041e0       ??$_Reallocate_grow_by@V<lambda_f3a66ab6a0570788f31503db83886f49>@@_KPEBD_K@?$basic_string@DU?$char_traits@D@std@@V?$allocator@D@2@@std@@AEAAAEAV01@_KV<lambda_f3a66ab6a0570788f31503db83886f49>@@_KPEBD2@Z 00000001400051e0 f i pugixml.obj
 0001:00004380       ??$make_shared@Uxml_document_struct@pugi@@$$V@std@@YA?AV?$shared_ptr@Uxml_document_struct@pugi@@@0@XZ 0000000140005380 f i pugixml.obj
 0001:00004510       ??$make_shared@Uxml_node_struct@pugi@@AEAW4xml_node_type@2@@std@@YA?AV?$shared_ptr@Uxml_node_struct@pugi@@@0@AEAW4xml_node_type@pugi@@@Z 0000000140005510 f i pugixml.obj
 0001:000052e0       ??0?$basic_string@DU?$char_traits@D@std@@V?$allocator@D@2@@std@@QEAA@AEBV01@@Z 00000001400062e0 f i pugixml.obj
 0001:000053c0       ??0bad_weak_ptr@std@@QEAA@AEBV01@@Z 00000001400063c0 f i pugixml.obj
 0001:00005400       ??0bad_weak_ptr@std@@QEAA@XZ 0000000140006400 f i pugixml.obj
 0001:00005420       ??0exception@std@@QEAA@AEBV01@@Z 0000000140006420 f i pugixml.obj
 0001:00005460       ??0xml_node@pugi@@IEAA@V?$shared_ptr@Uxml_node_struct@pugi@@@std@@@Z 0000000140006460 f   pugixml.obj
 0001:00005460       ??0xml_attribute@pugi@@AEAA@V?$shared_ptr@Uxml_attribute_struct@pugi@@@std@@@Z 0000000140006460 f   pugixml.obj
 0001:000054f0       ??0xml_attribute_iterator@pugi@@QEAA@XZ 00000001400064f0 f   pugixml.obj
 0001:000054f0       ??0xml_node_iterator@pugi@@QEAA@XZ 00000001400064f0 f   pugixml.obj
 0001:00005510       ??0xml_document@pugi@@QEAA@XZ 0000000140006510 f   pugixml.obj
 0001:00005550       ??0xml_node@pugi@@IEAA@V?$weak_ptr@Uxml_node_struct@pugi@@@std@@@Z 0000000140006550 f   pugixml.obj
 0001:000056f0       ??1?$_Temporary_owner_del@PEADU?$default_delete@$$BY0A@D@std@@@std@@QEAA@XZ 00000001400066f0 f i pugixml.obj
 0001:00005700       ??1?$basic_string@DU?$char_traits@D@std@@V?$allocator@D@2@@std@@QEAA@XZ 0000000140006700 f i pugixml.obj
 0001:00005760       ??1?$basic_string@_WU?$char_traits@_W@std@@V?$allocator@_W@2@@std@@QEAA@XZ 0000000140006760 f i pugixml.obj
 0001:00005770       ??1?$basic_stringbuf@DU?$char_traits@D@std@@V?$allocator@D@2@@std@@UEAA@XZ 0000000140006770 f i pugixml.obj
 0001:00005830       ??1xml_attribute@pugi@@QEAA@XZ 0000000140006830 f i pugixml.obj
 0001:00005830       ??1?$shared_ptr@VCButton@@@std@@QEAA@XZ 0000000140006830 f i PropertiesWndProp.obj
 0001:00005830       ??1?$shared_ptr@D@std@@QEAA@XZ 0000000140006830 f i pugixml.obj
 0001:00005830       ??1?$shared_ptr@VCViLogStorage@@@std@@QEAA@XZ 0000000140006830 f i ViEngineExProc.obj
 0001:00005830       ??1?$shared_ptr@VCColorProcress@@@std@@QEAA@XZ 0000000140006830 f i VibraimageExFrame.obj
 0001:00005830       ??1?$shared_ptr@VCViFTPStorage@@@std@@QEAA@XZ 0000000140006830 f i ViEngineExProcDb.obj
 0001:00005830       ??1?$shared_ptr@VCViEngineExSupport@@@std@@QEAA@XZ 0000000140006830 f i ViEngineExProc.obj
 0001:00005830       ??1?$shared_ptr@Uxml_attribute_struct@pugi@@@std@@QEAA@XZ 0000000140006830 f i pugixml.obj
 0001:00005830       ??1?$shared_ptr@Uxml_node_struct@pugi@@@std@@QEAA@XZ 0000000140006830 f i pugixml.obj
 0001:00005830       ??1xml_node@pugi@@QEAA@XZ  0000000140006830 f i pugixml.obj
 0001:00005880       ??1?$weak_ptr@Uxml_node_struct@pugi@@@std@@QEAA@XZ 0000000140006880 f i pugixml.obj
 0001:000058a0       ??1bad_weak_ptr@std@@UEAA@XZ 00000001400068a0 f i pugixml.obj
 0001:000058a0       ??1exception@std@@UEAA@XZ  00000001400068a0 f i pugixml.obj
 0001:000058a0       ??1system_error@std@@UEAA@XZ 00000001400068a0 f i ViExFont.obj
 0001:00005910       ??1xml_document@pugi@@QEAA@XZ 0000000140006910 f   pugixml.obj
 0001:000059b0       ??1xml_node_struct@pugi@@QEAA@XZ 00000001400069b0 f i pugixml.obj
 0001:00005bb0       ??1xml_writer_stream@pugi@@UEAA@XZ 0000000140006bb0 f i pugixml.obj
 0001:00005bc0       ??4xml_attribute@pugi@@QEAAAEAV01@$$QEAV01@@Z 0000000140006bc0 f i pugixpath.obj
 0001:00005bc0       ??4?$shared_ptr@VCViFTPStorage@@@std@@QEAAAEAV01@$$QEAV01@@Z 0000000140006bc0 f i VibraimageEx.obj
 0001:00005bc0       ??4?$shared_ptr@Uxml_node_struct@pugi@@@std@@QEAAAEAV01@$$QEAV01@@Z 0000000140006bc0 f i pugixml.obj
 0001:00005bc0       ??4?$shared_ptr@D@std@@QEAAAEAV01@$$QEAV01@@Z 0000000140006bc0 f i pugixml.obj
 0001:00005bc0       ??4?$shared_ptr@Uxml_attribute_struct@pugi@@@std@@QEAAAEAV01@$$QEAV01@@Z 0000000140006bc0 f i pugixml.obj
 0001:00005bc0       ??4xml_node@pugi@@QEAAAEAV01@$$QEAV01@@Z 0000000140006bc0 f i pugixpath.obj
 0001:00005c50       ??4?$shared_ptr@Uxml_node_struct@pugi@@@std@@QEAAAEAV01@AEBV01@@Z 0000000140006c50 f i pugixml.obj
 0001:00005c50       ??4?$shared_ptr@Uxml_attribute_struct@pugi@@@std@@QEAAAEAV01@AEBV01@@Z 0000000140006c50 f i pugixml.obj
 0001:00005ce0       ?empty@xml_node@pugi@@QEBA_NXZ 0000000140006ce0 f   pugixml.obj
 0001:00005ce0       ??7xml_node@pugi@@QEBA_NXZ 0000000140006ce0 f   pugixml.obj
 0001:00005ce0       ??7xml_attribute@pugi@@QEBA_NXZ 0000000140006ce0 f   pugixml.obj
 0001:00005cf0       ??9xml_attribute_iterator@pugi@@QEBA_NAEBV01@@Z 0000000140006cf0 f   pugixml.obj
 0001:00005cf0       ??9xml_node_iterator@pugi@@QEBA_NAEBV01@@Z 0000000140006cf0 f   pugixml.obj
 0001:00005d00       ??9xml_node@pugi@@QEBA_NAEBV01@@Z 0000000140006d00 f   pugixml.obj
 0001:00005d10       ??Axml_node@pugi@@QEAA?AV01@PEBD@Z 0000000140006d10 f   pugixml.obj
 0001:00005e00       ??Bxml_node@pugi@@QEBAPEQ01@V?$shared_ptr@Uxml_node_struct@pugi@@@std@@XZ 0000000140006e00 f   pugixml.obj
 0001:00005e00       ??Bxml_attribute@pugi@@QEBAPEQ01@V?$shared_ptr@Uxml_attribute_struct@pugi@@@std@@XZ 0000000140006e00 f   pugixml.obj
 0001:00005e10       ??Cxml_node_iterator@pugi@@QEAAPEAVxml_node@1@XZ 0000000140006e10 f   pugixml.obj
 0001:00005e10       ??Cxml_attribute_iterator@pugi@@QEAAPEAVxml_attribute@1@XZ 0000000140006e10 f   pugixml.obj
 0001:00005e10       ??Dxml_node_iterator@pugi@@QEAAAEAVxml_node@1@XZ 0000000140006e10 f   pugixml.obj
 0001:00005e20       ??Exml_attribute_iterator@pugi@@QEAAAEBV01@XZ 0000000140006e20 f   pugixml.obj
 0001:00005f10       ??Exml_node_iterator@pugi@@QEAAAEBV01@XZ 0000000140006f10 f   pugixml.obj
 0001:00006000       ??_D?$basic_ostringstream@DU?$char_traits@D@std@@V?$allocator@D@2@@std@@QEAAXXZ 0000000140007000 f i pugixml.obj
 0001:00006060       ??_E?$basic_ostringstream@DU?$char_traits@D@std@@V?$allocator@D@2@@std@@$4PPPPPPPM@A@EAAPEAXI@Z 0000000140007060 f i pugixml.obj
 0001:00006070       ??_G?$_Ref_count_obj@Uxml_attribute_struct@pugi@@@std@@UEAAPEAXI@Z 0000000140007070 f i pugixml.obj
 0001:00006070       ??_E?$_Ref_count_obj@Uxml_attribute_struct@pugi@@@std@@UEAAPEAXI@Z 0000000140007070 f i pugixml.obj
 0001:000060a0       ??_G?$_Ref_count_obj@Uxml_document_struct@pugi@@@std@@UEAAPEAXI@Z 00000001400070a0 f i pugixml.obj
 0001:000060a0       ??_E?$_Ref_count_obj@Uxml_document_struct@pugi@@@std@@UEAAPEAXI@Z 00000001400070a0 f i pugixml.obj
 0001:000060d0       ??_E?$_Ref_count_obj@Uxml_node_struct@pugi@@@std@@UEAAPEAXI@Z 00000001400070d0 f i pugixml.obj
 0001:000060d0       ??_G?$_Ref_count_obj@Uxml_node_struct@pugi@@@std@@UEAAPEAXI@Z 00000001400070d0 f i pugixml.obj
 0001:00006100       ??_G?$_Ref_count_resource@PEADU?$default_delete@$$BY0A@D@std@@@std@@UEAAPEAXI@Z 0000000140007100 f i pugixml.obj
 0001:00006100       ??_E?$_Ref_count_obj@VCViEngineExSupport@@@std@@UEAAPEAXI@Z 0000000140007100 f i ViEngineExProc.obj
 0001:00006100       ??_E?$_Ref_count_resource@PEADU?$default_delete@$$BY0A@D@std@@@std@@UEAAPEAXI@Z 0000000140007100 f i pugixml.obj
 0001:00006100       ??_G?$_Ref_count_obj@VCViEngineExSupport@@@std@@UEAAPEAXI@Z 0000000140007100 f i ViEngineExProc.obj
 0001:00006130       ??_G?$basic_ostringstream@DU?$char_traits@D@std@@V?$allocator@D@2@@std@@UEAAPEAXI@Z 0000000140007130 f i pugixml.obj
 0001:00006130       ??_E?$basic_ostringstream@DU?$char_traits@D@std@@V?$allocator@D@2@@std@@UEAAPEAXI@Z 0000000140007130 f i pugixml.obj
 0001:000061d0       ??_G?$basic_stringbuf@DU?$char_traits@D@std@@V?$allocator@D@2@@std@@UEAAPEAXI@Z 00000001400071d0 f i pugixml.obj
 0001:000061d0       ??_E?$basic_stringbuf@DU?$char_traits@D@std@@V?$allocator@D@2@@std@@UEAAPEAXI@Z 00000001400071d0 f i pugixml.obj
 0001:00006210       ??_Eexception@std@@UEAAPEAXI@Z 0000000140007210 f i pugixml.obj
 0001:00006210       ??_Gruntime_error@std@@UEAAPEAXI@Z 0000000140007210 f i ViExFont.obj
 0001:00006210       ??_Eruntime_error@std@@UEAAPEAXI@Z 0000000140007210 f i ViExFont.obj
 0001:00006210       ??_Gexception@std@@UEAAPEAXI@Z 0000000140007210 f i pugixml.obj
 0001:00006210       ??_Ebad_weak_ptr@std@@UEAAPEAXI@Z 0000000140007210 f i pugixml.obj
 0001:00006210       ??_Gbad_weak_ptr@std@@UEAAPEAXI@Z 0000000140007210 f i pugixml.obj
 0001:00006260       ??_Gxml_writer@pugi@@UEAAPEAXI@Z 0000000140007260 f i pugixml.obj
 0001:00006260       ??_Exml_writer@pugi@@UEAAPEAXI@Z 0000000140007260 f i pugixml.obj
 0001:00006290       ??_Exml_writer_stream@pugi@@UEAAPEAXI@Z 0000000140007290 f i pugixml.obj
 0001:00006290       ??_Gxml_writer_stream@pugi@@UEAAPEAXI@Z 0000000140007290 f i pugixml.obj
 0001:000062c0       ?_Decref@_Ref_count_base@std@@QEAAXXZ 00000001400072c0 f i pugixml.obj
 0001:00006310       ?_Delete_this@?$_Ref_count_obj@Vthread@std@@@std@@EEAAXXZ 0000000140007310 f i CViLogStorage.obj
 0001:00006310       ?_Delete_this@?$_Ref_count_obj@VCColorProcress@@@std@@EEAAXXZ 0000000140007310 f i VibraimageExAIV.obj
 0001:00006310       ?_Delete_this@?$_Ref_count_obj@VCViEngineExSupport@@@std@@EEAAXXZ 0000000140007310 f i ViEngineExProc.obj
 0001:00006310       ?_Delete_this@?$_Ref_count_obj@VCButton@@@std@@EEAAXXZ 0000000140007310 f i PropertiesWndProp.obj
 0001:00006310       ?_Delete_this@?$_Ref_count_obj@Uxml_attribute_struct@pugi@@@std@@EEAAXXZ 0000000140007310 f i pugixml.obj
 0001:00006310       ?_Delete_this@?$_Ref_count_obj@Uxml_document_struct@pugi@@@std@@EEAAXXZ 0000000140007310 f i pugixml.obj
 0001:00006310       ?_Delete_this@?$_Ref_count_obj@VCVideoCheck@@@std@@EEAAXXZ 0000000140007310 f i VibraimageEx.obj
 0001:00006310       ?_Delete_this@?$_Ref_count_obj@VCViLogStorage@@@std@@EEAAXXZ 0000000140007310 f i VibraimageEx.obj
 0001:00006310       ?_Delete_this@?$_Ref_count_obj@VCViFTPStorage@@@std@@EEAAXXZ 0000000140007310 f i VibraimageEx.obj
 0001:00006310       ?_Delete_this@?$_Ref_count_resource@PEADU?$default_delete@$$BY0A@D@std@@@std@@EEAAXXZ 0000000140007310 f i pugixml.obj
 0001:00006310       ?_Delete_this@?$_Ref_count_obj@Uxml_node_struct@pugi@@@std@@EEAAXXZ 0000000140007310 f i pugixml.obj
 0001:00006330       ?_Destroy@?$_Ref_count_obj@Uxml_attribute_struct@pugi@@@std@@EEAAXXZ 0000000140007330 f i pugixml.obj
 0001:00006420       ?_Destroy@?$_Ref_count_obj@Uxml_document_struct@pugi@@@std@@EEAAXXZ 0000000140007420 f i pugixml.obj
 0001:00006490       ?_Destroy@?$_Ref_count_obj@Uxml_node_struct@pugi@@@std@@EEAAXXZ 0000000140007490 f i pugixml.obj
 0001:000064a0       ?_Destroy@?$_Ref_count_resource@PEADU?$default_delete@$$BY0A@D@std@@@std@@EEAAXXZ 00000001400074a0 f i pugixml.obj
 0001:000064b0       ?_Get_deleter@?$_Ref_count_resource@PEADU?$default_delete@$$BY0A@D@std@@@std@@UEBAPEAXAEBVtype_info@@@Z 00000001400074b0 f i pugixml.obj
 0001:000064e0       ?OnShowControlBarMenu@CMFCBaseToolBar@@MEAAHVCPoint@@@Z 00000001400074e0 f i VibraimageExMenu.obj
 0001:000064e0       ?IsInFloatingMultiPaneFrameWnd@CPane@@UEBAHXZ 00000001400074e0 f i VibraimageExMenu.obj
 0001:000064e0       __scrt_stub_for_initialize_mta 00000001400074e0 f i msvcrt:utility_desktop.obj
 0001:000064e0       ?OnCustomizeMenu@CMFCToolBarButton@@UEAAHPEAVCMenu@@@Z 00000001400074e0 f i VibraimageExToolBar.obj
 0001:000064e0       ?CanBeClosed@CMFCMenuBar@@UEBAHXZ 00000001400074e0 f i VibraimageExMenu.obj
 0001:000064e0       ?OnClick@CMFCToolBarButton@@UEAAHPEAVCWnd@@H@Z 00000001400074e0 f i VibraimageExToolBar.obj
 0001:000064e0       ?AllowShowOnPaneMenu@CMFCMenuBar@@UEBAHXZ 00000001400074e0 f i VibraimageExMenu.obj
 0001:000064e0       ?OnKey@CMFCToolBar@@MEAAHI@Z 00000001400074e0 f i VibraimageExMenu.obj
 0001:000064e0       ?OnCtlColor@CMFCToolBarButton@@UEAAPEAUHBRUSH__@@PEAVCDC@@I@Z 00000001400074e0 f i VibraimageExToolBar.obj
 0001:000064e0       _get_startup_thread_locale_mode 00000001400074e0 f i msvcrt:thread_locale.obj
 0001:000064e0       ?AllowChangeTextLabels@CMFCMenuBar@@UEBAHXZ 00000001400074e0 f i VibraimageExMenu.obj
 0001:000064e0       ?IsDroppedDown@CMFCToolBarButton@@UEBAHXZ 00000001400074e0 f i VibraimageExToolBar.obj
 0001:000064e0       ?CanAcceptPane@CBasePane@@UEBAHPEBV1@@Z 00000001400074e0 f i VibraimageExMenu.obj
 0001:000064e0       ?IsAutoHideMode@CBasePane@@UEBAHXZ 00000001400074e0 f i VibraimageExMenu.obj
 0001:000064e0       ?CanBeAttached@CBasePane@@UEBAHXZ 00000001400074e0 f i VibraimageExMenu.obj
 0001:000064e0       _matherr                   00000001400074e0 f i msvcrt:matherr.obj
 0001:000064e0       ?AlwaysSaveSelection@CMFCToolBar@@MEBAHXZ 00000001400074e0 f i VibraimageExMenu.obj
 0001:000064e0       ?LoadState@CVibraimageExMenu@@UEAAHPEB_WHI@Z 00000001400074e0 f i VibraimageExMenu.obj
 0001:000064e0       ?IsButtonExtraSizeAvailable@CMFCMenuBar@@UEBAHXZ 00000001400074e0 f i VibraimageExMenu.obj
 0001:000064e0       ?OnMenuButtonToolHitTest@CFrameWndEx@@UEAAHPEAVCMFCToolBarButton@@PEAUtagTOOLINFOW@@@Z 00000001400074e0 f i VibraimageExFrame.obj
 0001:000064e0       ?CanBeStretched@CMFCToolBarButton@@UEBAHXZ 00000001400074e0 f i VibraimageExToolBar.obj
 0001:000064e0       ?DockToFrameWindow@CPane@@UEAAHKPEBUtagRECT@@KPEAVCBasePane@@HH@Z 00000001400074e0 f i VibraimageExMenu.obj
 0001:000064e0       ?AllowSelectDisabled@CMFCToolBar@@MEBAHXZ 00000001400074e0 f i VibraimageExMenu.obj
 0001:000064e0       ?OnContextHelp@CMFCToolBarButton@@UEAAHPEAVCWnd@@@Z 00000001400074e0 f i VibraimageExToolBar.obj
 0001:000064e0       ?GetOwnerId@CPropertiesPack@CDockablePaneVI@@UEAAHAEBV?$CStringT@DV?$StrTraitMFC_DLL@DV?$ChTraitsCRT@D@ATL@@@@@ATL@@@Z 00000001400074e0 f i PropertiesPack.obj
 0001:000064e0       ?GetCaptionHeight@CBasePane@@UEBAHXZ 00000001400074e0 f i VibraimageExMenu.obj
 0001:000064e0       __scrt_exe_initialize_mta  00000001400074e0 f i msvcrt:utility_desktop.obj
 0001:000064e0       _get_startup_commit_mode   00000001400074e0 f i msvcrt:commit_mode.obj
 0001:000064e0       ?IsAccessibilityCompatible@CDockablePane@@UEAAHXZ 00000001400074e0 f i PropertiesWnd.obj
 0001:000064e0       ?OnWorkspaceIdle@CWinAppEx@@UEAAHPEAVCWnd@@@Z 00000001400074e0 f i CWinAppExReg.obj
 0001:000064e0       ?GetToolbarButtonToolTipText@CFrameWndEx@@UEAAHPEAVCMFCToolBarButton@@AEAV?$CStringT@_WV?$StrTraitMFC_DLL@_WV?$ChTraitsCRT@_W@ATL@@@@@ATL@@@Z 00000001400074e0 f i VibraimageExFrame.obj
 0001:000064e0       ?Tag2Id@CPropertiesPack@CDockablePaneVI@@UEAAHAEBV?$CStringT@_WV?$StrTraitMFC_DLL@_WV?$ChTraitsCRT@_W@ATL@@@@@ATL@@@Z 00000001400074e0 f i PropertiesPack.obj
 0001:000064e0       _get_startup_new_mode      00000001400074e0 f i msvcrt:new_mode.obj
 0001:000064e0       ?NotifyCommand@CMFCToolBarButton@@UEAAHH@Z 00000001400074e0 f i VibraimageExToolBar.obj
 0001:000064e0       ?_Get_deleter@_Ref_count_base@std@@UEBAPEAXAEBVtype_info@@@Z 00000001400074e0 f i pugixml.obj
 0001:000064e0       ?CanFocus@CMFCToolBar@@UEBAHXZ 00000001400074e0 f i VibraimageExMenu.obj
 0001:000064e0       ?OnClickUp@CMFCToolBarButton@@UEAAHXZ 00000001400074e0 f i VibraimageExToolBar.obj
 0001:000064e0       ?GetHwnd@CMFCToolBarButton@@UEAAPEAUHWND__@@XZ 00000001400074e0 f i VibraimageExToolBar.obj
 0001:000064e0       ?GetApplicationRestartFlags@CWinApp@@UEAAKXZ 00000001400074e0 f i CWinAppExReg.obj
 0001:000064e0       ?IsSelectedEx@CPropertiesWnd@CDockablePaneVI@@UEAAHPEAVITEM@12@@Z 00000001400074e0 f i PropertiesWnd.obj
 0001:000064e0       ?OnSendCommand@CMFCToolBar@@MEAAHPEBVCMFCToolBarButton@@@Z 00000001400074e0 f i VibraimageExToolBar.obj
 0001:000064e0       ?GetApplicationRecoveryParameter@CWinApp@@UEAAPEAXXZ 00000001400074e0 f i CWinAppExReg.obj
 0001:000064e0       __scrt_initialize_winrt    00000001400074e0 f i msvcrt:utility_desktop.obj
 0001:000064e0       ?OnDrop@CMFCBaseTabCtrl@@UEAAHPEAVCOleDataObject@@KVCPoint@@@Z 00000001400074e0 f i VibraimageExView.obj
 0001:000064e0       ?IsResizable@CPane@@UEBAHXZ 00000001400074e0 f i VibraimageExMenu.obj
 0001:000064f0       ?_Throw_tree_length_error@std@@YAXXZ 00000001400074f0 f i pugixml.obj
 0001:00006510       ?_Tidy_deallocate@?$basic_string@_WU?$char_traits@_W@std@@V?$allocator@_W@2@@std@@AEAAXXZ 0000000140007510 f i pugixml.obj
 0001:00006580       ?_Xlen@?$basic_string@DU?$char_traits@D@std@@V?$allocator@D@2@@std@@CAXXZ 0000000140007580 f i pugixml.obj
 0001:00006580       ?_Xlen@?$basic_string@_WU?$char_traits@_W@std@@V?$allocator@_W@2@@std@@CAXXZ 0000000140007580 f i pugixml.obj
 0001:000065a0       ?_Xran@?$_String_val@U?$_Simple_types@_W@std@@@std@@SAXXZ 00000001400075a0 f i CViLogStorage.obj
 0001:000065a0       ?_Xran@?$_String_val@U?$_Simple_types@D@std@@@std@@SAXXZ 00000001400075a0 f i pugixml.obj
 0001:000065c0       ?allocate@?$allocator@D@std@@QEAAPEAD_K@Z 00000001400075c0 f i pugixml.obj
 0001:00006620       ?allocate@?$allocator@_W@std@@QEAAPEA_W_K@Z 0000000140007620 f i pugixml.obj
 0001:000066a0       ?allocate_attribute@xml_allocator@pugi@@SA?AV?$shared_ptr@Uxml_attribute_struct@pugi@@@std@@XZ 00000001400076a0 f   pugixml.obj
 0001:00006730       ?append@?$basic_string@DU?$char_traits@D@std@@V?$allocator@D@2@@std@@QEAAAEAV12@QEBD_K@Z 0000000140007730 f i pugixml.obj
 0001:000067c0       ?append_attribute@xml_node@pugi@@QEAA?AVxml_attribute@2@PEBD@Z 00000001400077c0 f   pugixml.obj
 0001:000068a0       ?append_attribute@xml_node_struct@pugi@@QEAA?AV?$shared_ptr@Uxml_attribute_struct@pugi@@@std@@XZ 00000001400078a0 f i pugixml.obj
 0001:00006920       ?append_child@xml_node@pugi@@QEAA?AV12@W4xml_node_type@2@@Z 0000000140007920 f   pugixml.obj
 0001:00006980       ?append_copy@xml_node@pugi@@QEAA?AV12@AEBV12@@Z 0000000140007980 f   pugixml.obj
 0001:00006a20       ?append_node@xml_node_struct@pugi@@QEAA?AV?$shared_ptr@Uxml_node_struct@pugi@@@std@@W4xml_node_type@2@@Z 0000000140007a20 f i pugixml.obj
 0001:00006ae0       ?as_utf16@pugi@@YA?AV?$basic_string@_WU?$char_traits@_W@std@@V?$allocator@_W@2@@std@@PEBD@Z 0000000140007ae0 f   pugixml.obj
 0001:00006d50       ?as_utf8@pugi@@YA?AV?$basic_string@DU?$char_traits@D@std@@V?$allocator@D@2@@std@@PEB_W@Z 0000000140007d50 f   pugixml.obj
 0001:00006ef0       ?assign@?$basic_string@DU?$char_traits@D@std@@V?$allocator@D@2@@std@@QEAAAEAV12@QEBD_K@Z 0000000140007ef0 f i pugixml.obj
 0001:00007040       ?attribute@xml_node@pugi@@QEBA?AVxml_attribute@2@PEBD@Z 0000000140008040 f   pugixml.obj
 0001:000071d0       ?attribute_value@xml_node@pugi@@QEBAPEBDPEBD@Z 00000001400081d0 f   pugixml.obj
 0001:00007280       ?attribute_wvalue@xml_node@pugi@@QEBA?AV?$basic_string@_WU?$char_traits@_W@std@@V?$allocator@_W@2@@std@@PEBD@Z 0000000140008280 f   pugixml.obj
 0001:00007350       ?attributes_begin@xml_node@pugi@@QEBA?AVxml_attribute_iterator@2@XZ 0000000140008350 f   pugixml.obj
 0001:00007560       ?attributes_end@xml_node@pugi@@QEBA?AVxml_attribute_iterator@2@XZ 0000000140008560 f   pugixml.obj
 0001:00007780       ?begin@xml_node@pugi@@QEBA?AVxml_node_iterator@2@XZ 0000000140008780 f   pugixml.obj
 0001:00007990       ?child@xml_node@pugi@@QEBA?AV12@PEBD@Z 0000000140008990 f   pugixml.obj
 0001:00007b30       ?child_value@xml_node@pugi@@QEBAPEBDXZ 0000000140008b30 f   pugixml.obj
 0001:00007c70       ?create@xml_document@pugi@@AEAAXXZ 0000000140008c70 f   pugixml.obj
 0001:00007ce0       ?deallocate@?$allocator@E@std@@QEAAXQEAE_K@Z 0000000140008ce0 f i CViHTTPStorage.obj
 0001:00007ce0       ?deallocate@?$allocator@D@std@@QEAAXQEAD_K@Z 0000000140008ce0 f i pugixml.obj
 0001:00007d20       ?destroy@xml_document@pugi@@AEAAXXZ 0000000140008d20 f   pugixml.obj
 0001:00007dc0       ?destroy@xml_node_struct@pugi@@QEAAXXZ 0000000140008dc0 f i pugixml.obj
 0001:00008200       ?end@xml_node@pugi@@QEBA?AVxml_node_iterator@2@XZ 0000000140009200 f   pugixml.obj
 0001:00008420       ?first_attribute@xml_node@pugi@@QEBA?AVxml_attribute@2@XZ 0000000140009420 f   pugixml.obj
 0001:00008580       ?first_child@xml_node@pugi@@QEBA?AV12@XZ 0000000140009580 f   pugixml.obj
 0001:000086e0       ?last_child@xml_node@pugi@@QEBA?AV12@XZ 00000001400096e0 f   pugixml.obj
 0001:00008840       ?load@xml_document@pugi@@QEAA?AUxml_parse_result@2@PEBDI@Z 0000000140009840 f   pugixml.obj
 0001:000089e0       ?load_file@xml_document@pugi@@QEAA?AUxml_parse_result@2@PEB_WI@Z 00000001400099e0 f   pugixml.obj
 0001:00008c50       ?name@xml_attribute@pugi@@QEBAPEBDXZ 0000000140009c50 f   pugixml.obj
 0001:00008c80       ?name@xml_node@pugi@@QEBAPEBDXZ 0000000140009c80 f   pugixml.obj
 0001:00008cc0       ?next_attribute@xml_attribute@pugi@@QEBA?AV12@XZ 0000000140009cc0 f   pugixml.obj
 0001:00009c70       ?overflow@?$basic_stringbuf@DU?$char_traits@D@std@@V?$allocator@D@2@@std@@MEAAHH@Z 000000014000ac70 f i pugixml.obj
 0001:00009e20       ?parent@xml_node@pugi@@QEBA?AV12@XZ 000000014000ae20 f   pugixml.obj
 0001:00009f50       ?parse@xml_document@pugi@@QEAA?AUxml_parse_result@2@AEBUtransfer_ownership_tag@2@V?$shared_ptr@D@std@@I@Z 000000014000af50 f   pugixml.obj
 0001:0000a000       ?parse@xml_document@pugi@@QEAA?AUxml_parse_result@2@V?$shared_ptr@D@std@@I@Z 000000014000b000 f   pugixml.obj
 0001:0000c100       ?pbackfail@?$basic_stringbuf@DU?$char_traits@D@std@@V?$allocator@D@2@@std@@MEAAHH@Z 000000014000d100 f i pugixml.obj
 0001:0000c160       ?print@xml_node@pugi@@QEBAXAEAV?$basic_ostream@DU?$char_traits@D@std@@@std@@PEBDII@Z 000000014000d160 f   pugixml.obj
 0001:0000c1a0       ?print@xml_node@pugi@@QEBAXAEAVxml_writer@2@PEBDII@Z 000000014000d1a0 f   pugixml.obj
 0001:0000c860       ?remove_child@xml_node@pugi@@QEAAXAEBV12@@Z 000000014000d860 f   pugixml.obj
 0001:0000c950       ?replace@?$basic_string@DU?$char_traits@D@std@@V?$allocator@D@2@@std@@QEAAAEAV12@_K_KQEBD0@Z 000000014000d950 f i pugixml.obj
 0001:0000caf0       ?reserve@?$basic_string@DU?$char_traits@D@std@@V?$allocator@D@2@@std@@QEAAX_K@Z 000000014000daf0 f i pugixml.obj
 0001:0000ccb0       ?reserve@?$basic_string@_WU?$char_traits@_W@std@@V?$allocator@_W@2@@std@@QEAAX_K@Z 000000014000dcb0 f i pugixml.obj
 0001:0000ce40       ?save_str@xml_document@pugi@@QEBA?AV?$basic_string@DU?$char_traits@D@std@@V?$allocator@D@2@@std@@PEAD@Z 000000014000de40 f   pugixml.obj
 0001:0000d300       ?seekoff@?$basic_stringbuf@DU?$char_traits@D@std@@V?$allocator@D@2@@std@@MEAA?AV?$fpos@U_Mbstatet@@@2@_JHH@Z 000000014000e300 f i pugixml.obj
 0001:0000d460       ?seekpos@?$basic_stringbuf@DU?$char_traits@D@std@@V?$allocator@D@2@@std@@MEAA?AV?$fpos@U_Mbstatet@@@2@V32@H@Z 000000014000e460 f i pugixml.obj
 0001:0000d550       ?set_name@xml_attribute@pugi@@QEAA_NPEBD@Z 000000014000e550 f   pugixml.obj
 0001:0000d610       ?set_name@xml_node@pugi@@QEAA_NPEBD@Z 000000014000e610 f   pugixml.obj
 0001:0000d6f0       ?set_name_ref@xml_attribute_struct@pugi@@QEAAXPEBD@Z 000000014000e6f0 f i pugixml.obj
 0001:0000d790       ?set_name_ref@xml_node_struct@pugi@@QEAAXPEBD@Z 000000014000e790 f i pugixml.obj
 0001:0000d840       ?set_value@xml_attribute@pugi@@QEAA_NH@Z 000000014000e840 f   pugixml.obj
 0001:0000d940       ?set_value@xml_attribute@pugi@@QEAA_NPEBD@Z 000000014000e940 f   pugixml.obj
 0001:0000da00       ?set_value@xml_node@pugi@@QEAA_NPEBD@Z 000000014000ea00 f   pugixml.obj
 0001:0000dbe0       ?set_value_ref@xml_attribute_struct@pugi@@QEAAXPEBD@Z 000000014000ebe0 f i pugixml.obj
 0001:0000dc80       ?set_value_ref@xml_node_struct@pugi@@QEAAXPEBD@Z 000000014000ec80 f i pugixml.obj
 0001:0000dd30       ?shared_from_this@?$enable_shared_from_this@Uxml_node_struct@pugi@@@std@@QEAA?AV?$shared_ptr@Uxml_node_struct@pugi@@@2@XZ 000000014000ed30 f i pugixml.obj
 0001:0000dda0       ?str_alloc@pugi@@YA?AV?$shared_ptr@D@std@@_KPEBD@Z 000000014000eda0 f i pugixml.obj
 0001:0000ea30       ?underflow@?$basic_stringbuf@DU?$char_traits@D@std@@V?$allocator@D@2@@std@@MEAAHXZ 000000014000fa30 f i pugixml.obj
 0001:0000eaa0       ?value@xml_attribute@pugi@@QEBAPEBDXZ 000000014000faa0 f   pugixml.obj
 0001:0000ead0       ?value@xml_node@pugi@@QEBAPEBDXZ 000000014000fad0 f   pugixml.obj
 0001:0000eb10       ?wchild_value@xml_node@pugi@@QEBA?AV?$basic_string@_WU?$char_traits@_W@std@@V?$allocator@_W@2@@std@@XZ 000000014000fb10 f   pugixml.obj
 0001:0000eb40       ?what@bad_weak_ptr@std@@UEBAPEBDXZ 000000014000fb40 f i pugixml.obj
 0001:0000eb50       ?what@exception@std@@UEBAPEBDXZ 000000014000fb50 f i pugixml.obj
 0001:0000ec80       ?write@xml_writer_stream@pugi@@UEAAXPEBX_K@Z 000000014000fc80 f   pugixml.obj
 0001:0000ec90       ?wvalue@xml_attribute@pugi@@QEBA?AV?$basic_string@_WU?$char_traits@_W@std@@V?$allocator@_W@2@@std@@XZ 000000014000fc90 f   pugixml.obj
 0001:0000ecf0       ?xml_header@xml_document@pugi@@SA?AV?$basic_string@DU?$char_traits@D@std@@V?$allocator@D@2@@std@@_NH@Z 000000014000fcf0 f   pugixml.obj
 0001:0000ed50       __local_stdio_printf_options 000000014000fd50 f i pugixml.obj
 0001:0000ed60       sprintf                    000000014000fd60 f i pugixml.obj
 0001:0000edc0       ??0?$basic_string@DU?$char_traits@D@std@@V?$allocator@D@2@@std@@QEAA@QEBD@Z 000000014000fdc0 f i pugixpath.obj
 0001:0000ee00       ??$_Immortalize_impl@V_Generic_error_category@std@@@std@@YAHPEAX0PEAPEAX@Z 000000014000fe00 f i ViExFont.obj
 0001:0000ee20       ??$_Immortalize_impl@V_System_error_category@std@@@std@@YAHPEAX0PEAPEAX@Z 000000014000fe20 f i ViExFont.obj
 0001:0000ee40       ??$_Reallocate_grow_by@V<lambda_e1befb086ad3257e3f042a63030725f7>@@_KD@?$basic_string@DU?$char_traits@D@std@@V?$allocator@D@2@@std@@AEAAAEAV01@_KV<lambda_e1befb086ad3257e3f042a63030725f7>@@_KD@Z 000000014000fe40 f i ViExFont.obj
 0001:0000efc0       ??0CViExFont@@QEAA@XZ      000000014000ffc0 f   ViExFont.obj
 0001:0000f260       ??0_System_error@std@@IEAA@Verror_code@1@AEBV?$basic_string@DU?$char_traits@D@std@@V?$allocator@D@2@@1@@Z 0000000140010260 f i ViExFont.obj
 0001:0000f450       ??0_System_error@std@@QEAA@AEBV01@@Z 0000000140010450 f i ViExFont.obj
 0001:0000f4a0       ??0filesystem_error@filesystem@std@@QEAA@AEBV012@@Z 00000001400104a0 f i ViExFont.obj
 0001:0000f530       ??0filesystem_error@filesystem@std@@QEAA@AEBV?$basic_string@DU?$char_traits@D@std@@V?$allocator@D@2@@2@AEBVpath@12@Verror_code@2@@Z 0000000140010530 f i ViExFont.obj
 0001:0000f640       ??0path@filesystem@std@@QEAA@AEBV012@@Z 0000000140010640 f i ViExFont.obj
 0001:0000f6e0       ??0runtime_error@std@@QEAA@AEBV01@@Z 00000001400106e0 f i ViExFont.obj
 0001:0000f720       ??0system_error@std@@QEAA@AEBV01@@Z 0000000140010720 f i ViExFont.obj
 0001:0000f780       ??0system_error@std@@QEAA@Verror_code@1@@Z 0000000140010780 f i ViExFont.obj
 0001:0000f860       ??1CFont@@UEAA@XZ          0000000140010860 f i ViExFont.obj
 0001:0000f870       ??1CViExFont@@QEAA@XZ      0000000140010870 f   ViExFont.obj
 0001:0000f920       ??1filesystem_error@filesystem@std@@UEAA@XZ 0000000140010920 f i ViExFont.obj
 0001:0000f9b0       ??1path@filesystem@std@@QEAA@XZ 00000001400109b0 f i ViExFont.obj
 0001:0000f9c0       ??_GCFont@@UEAAPEAXI@Z     00000001400109c0 f i ViExFont.obj
 0001:0000f9c0       ??_ECFont@@UEAAPEAXI@Z     00000001400109c0 f i ViExFont.obj
 0001:0000fa20       ??_G_Generic_error_category@std@@UEAAPEAXI@Z 0000000140010a20 f i ViExFont.obj
 0001:0000fa20       ??_E_Generic_error_category@std@@UEAAPEAXI@Z 0000000140010a20 f i ViExFont.obj
 0001:0000fa20       ??_E_System_error_category@std@@UEAAPEAXI@Z 0000000140010a20 f i ViExFont.obj
 0001:0000fa20       ??_G_System_error_category@std@@UEAAPEAXI@Z 0000000140010a20 f i ViExFont.obj
 0001:0000fa50       ??_E_System_error@std@@UEAAPEAXI@Z 0000000140010a50 f i ViExFont.obj
 0001:0000fa50       ??_G_System_error@std@@UEAAPEAXI@Z 0000000140010a50 f i ViExFont.obj
 0001:0000fa50       ??_Gsystem_error@std@@UEAAPEAXI@Z 0000000140010a50 f i ViExFont.obj
 0001:0000fa50       ??_Esystem_error@std@@UEAAPEAXI@Z 0000000140010a50 f i ViExFont.obj
 0001:0000faa0       ??_Efilesystem_error@filesystem@std@@UEAAPEAXI@Z 0000000140010aa0 f i ViExFont.obj
 0001:0000faa0       ??_Gfilesystem_error@filesystem@std@@UEAAPEAXI@Z 0000000140010aa0 f i ViExFont.obj
 0001:0000fb50       ?CreateFontW@CViExFont@@QEAAXHH@Z 0000000140010b50 f   ViExFont.obj
 0001:0000fcf0       ?DeleteObject@CViExFont@@QEAAXXZ 0000000140010cf0 f   ViExFont.obj
 0001:0000fd40       ?GetDefaultPath@@YA?AV?$CStringT@_WV?$StrTraitMFC_DLL@_WV?$ChTraitsCRT@_W@ATL@@@@@ATL@@XZ 0000000140010d40 f i ViExFont.obj
 0001:0000fff0       ?_Become_small@?$basic_string@DU?$char_traits@D@std@@V?$allocator@D@2@@std@@AEAAXXZ 0000000140010ff0 f i ViExFont.obj
 0001:00010060       ?_Check_convert_result@filesystem@std@@YAHU__std_fs_convert_result@@@Z 0000000140011060 f i ViExFont.obj
 0001:000100b0       ?_Make_ec@filesystem@std@@YA?AVerror_code@2@W4__std_win_error@@@Z 00000001400110b0 f i ViExFont.obj
 0001:00010110       ?_Pretty_message@filesystem_error@filesystem@std@@CA?AV?$basic_string@DU?$char_traits@D@std@@V?$allocator@D@2@@3@V?$basic_string_view@DU?$char_traits@D@std@@@3@AEBVpath@23@1@Z 0000000140011110 f i ViExFont.obj
 0001:00010320       ?_Throw_fs_error@filesystem@std@@YAXPEBDW4__std_win_error@@AEBVpath@12@@Z 0000000140011320 f i ViExFont.obj
 0001:000103a0       ?_Xsystem_error_invalid_argument@filesystem@std@@YAXXZ 00000001400113a0 f i ViExFont.obj
 0001:000103e0       ?append@?$basic_string@_WU?$char_traits@_W@std@@V?$allocator@_W@2@@std@@QEAAAEAV12@_K_W@Z 00000001400113e0 f i ViExFont.obj
 0001:00010560       ?assign@?$basic_string@DU?$char_traits@D@std@@V?$allocator@D@2@@std@@QEAAAEAV12@QEBD@Z 0000000140011560 f i ViExFont.obj
 0001:000106c0       ?default_error_condition@_System_error_category@std@@UEBA?AVerror_condition@2@H@Z 00000001400116c0 f i ViExFont.obj
 0001:00010770       ?default_error_condition@error_category@std@@UEBA?AVerror_condition@2@H@Z 0000000140011770 f i ViExFont.obj
 0001:00010780       ?equivalent@error_category@std@@UEBA_NAEBVerror_code@2@H@Z 0000000140011780 f i ViExFont.obj
 0001:000107a0       ?equivalent@error_category@std@@UEBA_NHAEBVerror_condition@2@@Z 00000001400117a0 f i ViExFont.obj
 0001:000107e0       ?make_error_code@std@@YA?AVerror_code@1@W4errc@1@@Z 00000001400117e0 f i ViExFont.obj
 0001:00010840       ?message@_Generic_error_category@std@@UEBA?AV?$basic_string@DU?$char_traits@D@std@@V?$allocator@D@2@@2@H@Z 0000000140011840 f i ViExFont.obj
 0001:00010880       ?message@_System_error_category@std@@UEBA?AV?$basic_string@DU?$char_traits@D@std@@V?$allocator@D@2@@2@H@Z 0000000140011880 f i ViExFont.obj
 0001:00010a90       ?name@_Generic_error_category@std@@UEBAPEBDXZ 0000000140011a90 f i ViExFont.obj
 0001:00010aa0       ?name@_System_error_category@std@@UEBAPEBDXZ 0000000140011aa0 f i ViExFont.obj
 0001:00010ab0       ?resize@?$basic_string@DU?$char_traits@D@std@@V?$allocator@D@2@@std@@QEAAX_KD@Z 0000000140011ab0 f i ViExFont.obj
 0001:00010b50       ?string@path@filesystem@std@@QEBA?AV?$basic_string@DU?$char_traits@D@std@@V?$allocator@D@2@@3@XZ 0000000140011b50 f i ViExFont.obj
 0001:00010c30       ?what@filesystem_error@filesystem@std@@UEBAPEBDXZ 0000000140011c30 f i ViExFont.obj
 0001:00010c40       ??0CAboutDlg@@QEAA@XZ      0000000140011c40 f   About.obj
 0001:00010c70       ??1_variant_t@@QEAA@XZ     0000000140011c70 f i PropertiesWndProp.obj
 0001:00010c70       ??1COleVariant@@QEAA@XZ    0000000140011c70 f i About.obj
 0001:00010c80       ??HATL@@YA?AV?$CStringT@_WV?$StrTraitMFC_DLL@_WV?$ChTraitsCRT@_W@ATL@@@@@0@AEBV10@PEB_W@Z 0000000140011c80 f i About.obj
 0001:00010d20       ??_ECAboutDlg@@UEAAPEAXI@Z 0000000140011d20 f i About.obj
 0001:00010d20       ??_GCAboutDlg@@UEAAPEAXI@Z 0000000140011d20 f i About.obj
 0001:00010da0       ?Create@CDialog@@UEAAHIPEAVCWnd@@@Z 0000000140011da0 f i About.obj
 0001:00010db0       ?GetMessageMap@CAboutDlg@@MEBAPEBUAFX_MSGMAP@@XZ 0000000140011db0 f   About.obj
 0001:00010dc0       ?OnBnClickedButtonUnregister@CAboutDlg@@QEAAXXZ 0000000140011dc0 f   About.obj
 0001:00010e20       ?OnInitDialog@CAboutDlg@@UEAAHXZ 0000000140011e20 f   About.obj
 0001:00011770       ??0CDlgLogin@@QEAA@PEAVCWnd@@@Z 0000000140012770 f   CDlgLogin.obj
 0001:00011820       ??1CDialogEx@@UEAA@XZ      0000000140012820 f i CDlgLogin.obj
 0001:00011820       ??1CAboutDlg@@UEAA@XZ      0000000140012820 f i VibraimageExFrame.obj
 0001:00011860       ??1CDlgLogin@@UEAA@XZ      0000000140012860 f   CDlgLogin.obj
 0001:000118c0       ??_GCDlgLogin@@UEAAPEAXI@Z 00000001400128c0 f i CDlgLogin.obj
 0001:000118c0       ??_ECDlgLogin@@UEAAPEAXI@Z 00000001400128c0 f i CDlgLogin.obj
 0001:00011960       ?DoDataExchange@CDlgLogin@@MEAAXPEAVCDataExchange@@@Z 0000000140012960 f   CDlgLogin.obj
 0001:000119b0       ?GetMessageMap@CDlgLogin@@MEBAPEBUAFX_MSGMAP@@XZ 00000001400129b0 f   CDlgLogin.obj
 0001:000119c0       ?GetRuntimeClass@CDlgLogin@@UEBAPEAUCRuntimeClass@@XZ 00000001400129c0 f   CDlgLogin.obj
 0001:000119d0       ?OnBnClickedCancel@CPwdDlg@@QEAAXXZ 00000001400129d0 f   PwdDlg.obj
 0001:000119d0       ?OnBnClickedCancel@CUserIdDlg@@QEAAXXZ 00000001400129d0 f   UserIdDlg.obj
 0001:000119d0       ?OnBnClickedCancel@CDlgLogin@@IEAAXXZ 00000001400129d0 f   CDlgLogin.obj
 0001:000119e0       ?OnBnClickedOk@CDlgLogin@@IEAAXXZ 00000001400129e0 f   CDlgLogin.obj
 0001:00011b30       ?OnInitDialog@CDlgLogin@@UEAAHXZ 0000000140012b30 f   CDlgLogin.obj
 0001:00011d40       ?_GetBaseClass@CPwdDlg2@@KAPEAUCRuntimeClass@@XZ 0000000140012d40 f   PwdDlg2.obj
 0001:00011d40       ?_GetBaseClass@CDlgLogin@@KAPEAUCRuntimeClass@@XZ 0000000140012d40 f   CDlgLogin.obj
 0001:00011d40       ?_GetBaseClass@CUserIdDlg@@KAPEAUCRuntimeClass@@XZ 0000000140012d40 f   UserIdDlg.obj
 0001:00011d40       ?_GetBaseClass@CViHTTPLicenseDlg@@KAPEAUCRuntimeClass@@XZ 0000000140012d40 f   ViHTTPLicenseDlg.obj
 0001:00011d40       ?_GetBaseClass@CDlgStarter@@KAPEAUCRuntimeClass@@XZ 0000000140012d40 f   CDlgStarter.obj
 0001:00011d40       ?_GetBaseClass@CPwdDlg@@KAPEAUCRuntimeClass@@XZ 0000000140012d40 f   PwdDlg.obj
 0001:00011d50       ??$_Emplace_reallocate@AEBQEB_W@?$vector@PEB_WV?$allocator@PEB_W@std@@@std@@QEAAPEAPEB_WQEAPEB_WAEBQEB_W@Z 0000000140012d50 f i VibraimageEx.obj
 0001:00011d50       ??$_Emplace_reallocate@PEB_W@?$vector@PEB_WV?$allocator@PEB_W@std@@@std@@QEAAPEAPEB_WQEAPEB_W$$QEAPEB_W@Z 0000000140012d50 f i CDlgStarter.obj
 0001:00011d50       ??$_Emplace_reallocate@PEAVCMFCButton@@@?$vector@PEAVCMFCButton@@V?$allocator@PEAVCMFCButton@@@std@@@std@@QEAAPEAPEAVCMFCButton@@QEAPEAV2@$$QEAPEAV2@@Z 0000000140012d50 f i VibraimageExQT.obj
 0001:00011ef0       ??0CDlgStarter@@QEAA@PEAVCWnd@@@Z 0000000140012ef0 f   CDlgStarter.obj
 0001:00011fc0       ??1?$vector@PEB_WV?$allocator@PEB_W@std@@@std@@QEAA@XZ 0000000140012fc0 f i CDlgStarter.obj
 0001:00011fc0       ??1?$vector@PEAUtagENGINE_PACK@CVibraimageExApp@@V?$allocator@PEAUtagENGINE_PACK@CVibraimageExApp@@@std@@@std@@QEAA@XZ 0000000140012fc0 f i VibraimageEx.obj
 0001:00012020       ??1CDlgStarter@@UEAA@XZ    0000000140013020 f   CDlgStarter.obj
 0001:000120a0       ??_GCDlgStarter@@UEAAPEAXI@Z 00000001400130a0 f i CDlgStarter.obj
 0001:000120a0       ??_ECDlgStarter@@UEAAPEAXI@Z 00000001400130a0 f i CDlgStarter.obj
 0001:00012160       ?GetMessageMap@CDlgStarter@@MEBAPEBUAFX_MSGMAP@@XZ 0000000140013160 f   CDlgStarter.obj
 0001:00012170       ?GetRuntimeClass@CDlgStarter@@UEBAPEAUCRuntimeClass@@XZ 0000000140013170 f   CDlgStarter.obj
 0001:00012180       ?OnBnClickedCancel@CDlgStarter@@QEAAXXZ 0000000140013180 f   CDlgStarter.obj
 0001:000121c0       ?OnInitDialog@CDlgStarter@@UEAAHXZ 00000001400131c0 f   CDlgStarter.obj
 0001:00012250       ?OnTimer@CDlgStarter@@QEAAX_K@Z 0000000140013250 f   CDlgStarter.obj
 0001:00012420       ?PreInitDialog@CDlgStarter@@UEAAXXZ 0000000140013420 f   CDlgStarter.obj
 0001:00012430       ?StartVI@CDlgStarter@@QEAAXXZ 0000000140013430 f   CDlgStarter.obj
 0001:000125c0       ?WindowProc@CDlgStarter@@UEAA_JI_K_J@Z 00000001400135c0 f   CDlgStarter.obj
 0001:00012710       ??1CHTMLResult@@UEAA@XZ    0000000140013710 f   CHTMLResult.obj
 0001:00012730       ??_GCHTMLResult@@UEAAPEAXI@Z 0000000140013730 f i CHTMLResult.obj
 0001:00012730       ??_ECHTMLResult@@UEAAPEAXI@Z 0000000140013730 f i CHTMLResult.obj
 0001:000127a0       ?CheckTimer@CHTMLResult@@SAXXZ 00000001400137a0 f   CHTMLResult.obj
 0001:00012a20       ?GetDHtmlEventMap@CHTMLResult@@MEAAPEBUDHtmlEventMapEntry@@XZ 0000000140013a20 f   CHTMLResult.obj
 0001:00012ab0       ?GetMessageMap@CHTMLResult@@MEBAPEBUAFX_MSGMAP@@XZ 0000000140013ab0 f   CHTMLResult.obj
 0001:00012ac0       ?OnButtonCancel@CHTMLResult@@QEAAJPEAUIHTMLElement@@@Z 0000000140013ac0 f   CHTMLResult.obj
 0001:00012ae0       ?OnInitDialog@CHTMLResult@@MEAAHXZ 0000000140013ae0 f   CHTMLResult.obj
 0001:00012c00       ?Finish@CSplashScreen@@QEAAXXZ 0000000140013c00 f i CrushCheck.obj
 0001:00012c40       ?Start@CCrushCheck@@QEAAXH@Z 0000000140013c40 f   CrushCheck.obj
 0001:00012c80       ?disable@CCrushCheck@@SAXXZ 0000000140013c80 f   CrushCheck.obj
 0001:00012c90       ?exception_handler@CCrushCheck@@KAHPEAU_EXCEPTION_POINTERS@@@Z 0000000140013c90 f   CrushCheck.obj
 0001:00012d70       ?runtime_check_handler@CCrushCheck@@KAHHPEBDH00ZZ 0000000140013d70 f   CrushCheck.obj
 0001:00012f00       _snprintf_s                0000000140013f00 f i CrushCheck.obj
 0001:00012f70       _snwprintf_s               0000000140013f70 f i CrushCheck.obj
 0001:00012fe0       ??0CVideoCheck@@QEAA@H@Z   0000000140013fe0 f   CVideoCheck.obj
 0001:00013030       ?Check@CVideoCheck@@QEAAXXZ 0000000140014030 f   CVideoCheck.obj
 0001:000133e0       ?CheckAll@CVideoCheck@@SAXXZ 00000001400143e0 f   CVideoCheck.obj
 0001:00013430       ??$_Assign_cast@AEAV?$CStringT@_WV?$StrTraitMFC_DLL@_WV?$ChTraitsCRT@_W@ATL@@@@@ATL@@V?$_List_unchecked_const_iterator@V?$_List_val@U?$_List_simple_types@V?$CStringT@_WV?$StrTraitMFC_DLL@_WV?$ChTraitsCRT@_W@ATL@@@@@ATL@@@std@@@std@@U_Iterator_base0@2@@std@@@?$list@V?$CStringT@_WV?$StrTraitMFC_DLL@_WV?$ChTraitsCRT@_W@ATL@@@@@ATL@@V?$allocator@V?$CStringT@_WV?$StrTraitMFC_DLL@_WV?$ChTraitsCRT@_W@ATL@@@@@ATL@@@std@@@std@@AEAAXV?$_List_unchecked_const_iterator@V?$_List_val@U?$_List_simple_types@V?$CStringT@_WV?$StrTraitMFC_DLL@_WV?$ChTraitsCRT@_W@ATL@@@@@ATL@@@std@@@std@@U_Iterator_base0@2@@1@V21@@Z 0000000140014430 f i CViHTTPStorage.obj
 0001:00013630       ??$_Resize_reallocate@U_Value_init_tag@std@@@?$vector@EV?$allocator@E@std@@@std@@AEAAX_KAEBU_Value_init_tag@1@@Z 0000000140014630 f i CViHTTPStorage.obj
 0001:00013630       ??$_Resize_reallocate@U_Value_init_tag@std@@@?$vector@DV?$allocator@D@std@@@std@@AEAAX_KAEBU_Value_init_tag@1@@Z 0000000140014630 f i PropertiesPack.obj
 0001:00013770       ??1?$_Alloc_construct_ptr@V?$allocator@U?$_Tree_node@U?$pair@$$CBKVCBrush@@@std@@PEAX@std@@@std@@@std@@QEAA@XZ 0000000140014770 f i PropertiesWndBase.obj
 0001:00013770       ??1?$_Alloc_construct_ptr@V?$allocator@U?$_Tree_node@U?$pair@$$CBHV?$shared_ptr@VCColorProcress@@@std@@@std@@PEAX@std@@@std@@@std@@QEAA@XZ 0000000140014770 f i VibraimageExAIV.obj
 0001:00013770       ??1?$_Alloc_construct_ptr@V?$allocator@U?$_Tree_node@U?$pair@$$CBHV?$map@V?$CStringT@DV?$StrTraitMFC_DLL@DV?$ChTraitsCRT@D@ATL@@@@@ATL@@HU?$less@V?$CStringT@DV?$StrTraitMFC_DLL@DV?$ChTraitsCRT@D@ATL@@@@@ATL@@@std@@V?$allocator@U?$pair@$$CBV?$CStringT@DV?$StrTraitMFC_DLL@DV?$ChTraitsCRT@D@ATL@@@@@ATL@@H@std@@@4@@std@@@std@@PEAX@std@@@std@@@std@@QEAA@XZ 0000000140014770 f i VibraimageEx.obj
 0001:00013770       ??1?$_Tree_temp_node_alloc@V?$allocator@U?$_Tree_node@U?$pair@$$CBHV?$map@V?$CStringT@DV?$StrTraitMFC_DLL@DV?$ChTraitsCRT@D@ATL@@@@@ATL@@HU?$less@V?$CStringT@DV?$StrTraitMFC_DLL@DV?$ChTraitsCRT@D@ATL@@@@@ATL@@@std@@V?$allocator@U?$pair@$$CBV?$CStringT@DV?$StrTraitMFC_DLL@DV?$ChTraitsCRT@D@ATL@@@@@ATL@@H@std@@@4@@std@@@std@@PEAX@std@@@std@@@std@@QEAA@XZ 0000000140014770 f i VibraimageEx.obj
 0001:00013770       ??1?$_Alloc_construct_ptr@V?$allocator@U?$_List_node@UtagHTTP_DATA@CViHTTPStorage@@PEAX@std@@@std@@@std@@QEAA@XZ 0000000140014770 f i CViHTTPStorage.obj
 0001:00013790       ??1?$_List_node_emplace_op@V?$allocator@U?$_List_node@UtagHTTP_DATA@CViHTTPStorage@@PEAX@std@@@std@@@std@@QEAA@XZ 0000000140014790 f i CViHTTPStorage.obj
 0001:000137d0       ??1?$_List_node_emplace_op@V?$allocator@U?$_List_node@V?$CStringT@_WV?$StrTraitMFC_DLL@_WV?$ChTraitsCRT@_W@ATL@@@@@ATL@@PEAX@std@@@std@@@std@@QEAA@XZ 00000001400147d0 f i CViHTTPStorage.obj
 0001:00013810       ??1?$_List_node_insert_op@V?$allocator@U?$_List_node@V?$CStringT@_WV?$StrTraitMFC_DLL@_WV?$ChTraitsCRT@_W@ATL@@@@@ATL@@PEAX@std@@@std@@@std@@QEAA@XZ 0000000140014810 f i CViHTTPStorage.obj
 0001:00013880       ??1?$list@UtagHTTP_DATA@CViHTTPStorage@@V?$allocator@UtagHTTP_DATA@CViHTTPStorage@@@std@@@std@@QEAA@XZ 0000000140014880 f i CViHTTPStorage.obj
 0001:000138f0       ??1?$list@V?$CStringT@_WV?$StrTraitMFC_DLL@_WV?$ChTraitsCRT@_W@ATL@@@@@ATL@@V?$allocator@V?$CStringT@_WV?$StrTraitMFC_DLL@_WV?$ChTraitsCRT@_W@ATL@@@@@ATL@@@std@@@std@@QEAA@XZ 00000001400148f0 f i CViHTTPStorage.obj
 0001:00013960       ??1?$vector@DV?$allocator@D@std@@@std@@QEAA@XZ 0000000140014960 f i CViHTTPStorage.obj
 0001:00013960       ??1?$vector@EV?$allocator@E@std@@@std@@QEAA@XZ 0000000140014960 f i CViHTTPStorage.obj
 0001:000139c0       ??1CFileException@@UEAA@XZ 00000001400149c0 f i CViHTTPStorage.obj
 0001:000139e0       ??1CViHTTPStorage@@QEAA@XZ 00000001400149e0 f   CViHTTPStorage.obj
 0001:00013a30       ??1tagHTTP_DATA@CViHTTPStorage@@QEAA@XZ 0000000140014a30 f i CViHTTPStorage.obj
 0001:00013aa0       ??HATL@@YA?AV?$CStringT@DV?$StrTraitMFC_DLL@DV?$ChTraitsCRT@D@ATL@@@@@0@AEBV10@0@Z 0000000140014aa0 f i CViHTTPStorage.obj
 0001:00013b50       ??_ECFileException@@UEAAPEAXI@Z 0000000140014b50 f i CViHTTPStorage.obj
 0001:00013b50       ??_GCFileException@@UEAAPEAXI@Z 0000000140014b50 f i CViHTTPStorage.obj
 0001:00013bb0       ?Create@CViHTTPStorage@@SAPEAV1@PEAVCViEngineExProcDb@@@Z 0000000140014bb0 f   CViHTTPStorage.obj
 0001:00013e20       ?GetReg@CViHTTPStorage@@KA?AV?$CStringT@DV?$StrTraitMFC_DLL@DV?$ChTraitsCRT@D@ATL@@@@@ATL@@V23@0@Z 0000000140014e20 f   CViHTTPStorage.obj
 0001:00014000       ?MakePostFileData_v2@CViHTTPStorage@@KA?AV?$CStringT@DV?$StrTraitMFC_DLL@DV?$ChTraitsCRT@D@ATL@@@@@ATL@@AEAV23@_N@Z 0000000140015000 f   CViHTTPStorage.obj
 0001:000140e0       ?MakePostFileData_v2@CViHTTPStorage@@MEAAXPEAUtagHTTP_SEND@1@@Z 00000001400150e0 f   CViHTTPStorage.obj
 0001:00014990       ?MakePreFileData_v2@CViHTTPStorage@@KA?AV?$CStringT@DV?$StrTraitMFC_DLL@DV?$ChTraitsCRT@D@ATL@@@@@ATL@@AEBV23@000_N@Z 0000000140015990 f   CViHTTPStorage.obj
 0001:00014be0       ?MakeRequestHeaders_v1@CViHTTPStorage@@MEAA?AV?$CStringT@DV?$StrTraitMFC_DLL@DV?$ChTraitsCRT@D@ATL@@@@@ATL@@PEAUtagHTTP_SEND@1@@Z 0000000140015be0 f   CViHTTPStorage.obj
 0001:00014c10       ?MakeRequestHeaders_v2@CViHTTPStorage@@MEAA?AV?$CStringT@DV?$StrTraitMFC_DLL@DV?$ChTraitsCRT@D@ATL@@@@@ATL@@PEAUtagHTTP_SEND@1@@Z 0000000140015c10 f   CViHTTPStorage.obj
 0001:00014ca0       ?OnNewVar@CViHTTPStorage@@SAXHHH@Z 0000000140015ca0 f   CViHTTPStorage.obj
 0001:00014e20       ?RegLoad@CViHTTPStorage@@SAXH@Z 0000000140015e20 f   CViHTTPStorage.obj
 0001:00014f90       ?RegSave@CViHTTPStorage@@SAXH@Z 0000000140015f90 f   CViHTTPStorage.obj
 0001:000150c0       ?SendProc@CViHTTPStorage@@KAKPEAX@Z 00000001400160c0 f   CViHTTPStorage.obj
 0001:000151c0       ?_Buy_raw@?$vector@DV?$allocator@D@std@@@std@@AEAAX_K@Z 00000001400161c0 f i VibraimageExFrame.obj
 0001:000151c0       ?_Buy_raw@?$vector@EV?$allocator@E@std@@@std@@AEAAX_K@Z 00000001400161c0 f i CViHTTPStorage.obj
 0001:00015240       ?base64@CViHTTPStorage@@KA?AV?$CStringT@DV?$StrTraitMFC_DLL@DV?$ChTraitsCRT@D@ATL@@@@@ATL@@PEBEI@Z 0000000140016240 f   CViHTTPStorage.obj
 0001:000154e0       ?base64@CViHTTPStorage@@KA?AV?$CStringT@DV?$StrTraitMFC_DLL@DV?$ChTraitsCRT@D@ATL@@@@@ATL@@V?$CStringT@_WV?$StrTraitMFC_DLL@_WV?$ChTraitsCRT@_W@ATL@@@@@3@@Z 00000001400164e0 f   CViHTTPStorage.obj
 0001:000156e0       ?base64str@CViHTTPStorage@@KA?AV?$CStringT@DV?$StrTraitMFC_DLL@DV?$ChTraitsCRT@D@ATL@@@@@ATL@@V?$CStringT@_WV?$StrTraitMFC_DLL@_WV?$ChTraitsCRT@_W@ATL@@@@@3@@Z 00000001400166e0 f   CViHTTPStorage.obj
 0001:000157d0       ?fileData@CViHTTPStorage@@KA?AV?$vector@EV?$allocator@E@std@@@std@@AEBV?$CStringT@_WV?$StrTraitMFC_DLL@_WV?$ChTraitsCRT@_W@ATL@@@@@ATL@@@Z 00000001400167d0 f   CViHTTPStorage.obj
 0001:00015a00       ?fileData@CViHTTPStorage@@UEAA?AV?$CStringT@DV?$StrTraitMFC_DLL@DV?$ChTraitsCRT@D@ATL@@@@@ATL@@AEAV?$list@V?$CStringT@_WV?$StrTraitMFC_DLL@_WV?$ChTraitsCRT@_W@ATL@@@@@ATL@@V?$allocator@V?$CStringT@_WV?$StrTraitMFC_DLL@_WV?$ChTraitsCRT@_W@ATL@@@@@ATL@@@std@@@std@@@Z 0000000140016a00 f   CViHTTPStorage.obj
 0001:00015be0       ?getCam@CViHTTPStorage@@UEAA?AV?$CStringT@DV?$StrTraitMFC_DLL@DV?$ChTraitsCRT@D@ATL@@@@@ATL@@XZ 0000000140016be0 f   CViHTTPStorage.obj
 0001:00015d60       ?getData@CViHTTPStorage@@SA?AV?$vector@EV?$allocator@E@std@@@std@@PEAUtagHTTP_SEND@1@@Z 0000000140016d60 f   CViHTTPStorage.obj
 0001:00015e10       ?getImage@CViHTTPStorage@@UEAA?AV?$CStringT@DV?$StrTraitMFC_DLL@DV?$ChTraitsCRT@D@ATL@@@@@ATL@@PEAV23@PEAV?$list@V?$CStringT@_WV?$StrTraitMFC_DLL@_WV?$ChTraitsCRT@_W@ATL@@@@@ATL@@V?$allocator@V?$CStringT@_WV?$StrTraitMFC_DLL@_WV?$ChTraitsCRT@_W@ATL@@@@@ATL@@@std@@@std@@@Z 0000000140016e10 f   CViHTTPStorage.obj
 0001:000161f0       ?getSysName@CViHTTPStorage@@UEAA?AV?$CStringT@DV?$StrTraitMFC_DLL@DV?$ChTraitsCRT@D@ATL@@@@@ATL@@XZ 00000001400171f0 f   CViHTTPStorage.obj
 0001:00016590       ?getUUID@CViHTTPStorage@@UEAA?AV?$CStringT@DV?$StrTraitMFC_DLL@DV?$ChTraitsCRT@D@ATL@@@@@ATL@@PEB_W@Z 0000000140017590 f   CViHTTPStorage.obj
 0001:00016680       ?getUUID@CViHTTPStorage@@UEAA?AV?$CStringT@DV?$StrTraitMFC_DLL@DV?$ChTraitsCRT@D@ATL@@@@@ATL@@XZ 0000000140017680 f   CViHTTPStorage.obj
 0001:000166d0       ?getUserName@CViHTTPStorage@@UEAA?AV?$CStringT@DV?$StrTraitMFC_DLL@DV?$ChTraitsCRT@D@ATL@@@@@ATL@@XZ 00000001400176d0 f   CViHTTPStorage.obj
 0001:000167c0       ?isSet@CViHTTPStorage@@UEAA_NPEBD@Z 00000001400177c0 f   CViHTTPStorage.obj
 0001:00016820       ?loadTemplate@CViHTTPStorage@@KA?AV?$CStringT@DV?$StrTraitMFC_DLL@DV?$ChTraitsCRT@D@ATL@@@@@ATL@@H@Z 0000000140017820 f   CViHTTPStorage.obj
 0001:000169b0       ?onSessionEnd@CViHTTPStorage@@UEAAXXZ 00000001400179b0 f   CViHTTPStorage.obj
 0001:00016be0       ?onSessionStarted@CViHTTPStorage@@UEAAXPEB_W@Z 0000000140017be0 f   CViHTTPStorage.obj
 0001:00017260       ?push_back@?$list@UtagHTTP_DATA@CViHTTPStorage@@V?$allocator@UtagHTTP_DATA@CViHTTPStorage@@@std@@@std@@QEAAXAEBUtagHTTP_DATA@CViHTTPStorage@@@Z 0000000140018260 f i CViHTTPStorage.obj
 0001:00017380       ?sendJSON@CViHTTPStorage@@UEAAHV?$CStringT@DV?$StrTraitMFC_DLL@DV?$ChTraitsCRT@D@ATL@@@@@ATL@@V?$CStringT@_WV?$StrTraitMFC_DLL@_WV?$ChTraitsCRT@_W@ATL@@@@@3@AEAV?$list@V?$CStringT@_WV?$StrTraitMFC_DLL@_WV?$ChTraitsCRT@_W@ATL@@@@@ATL@@V?$allocator@V?$CStringT@_WV?$StrTraitMFC_DLL@_WV?$ChTraitsCRT@_W@ATL@@@@@ATL@@@std@@@std@@_N@Z 0000000140018380 f   CViHTTPStorage.obj
 0001:00017600       ?sendJSON_v1@CViHTTPStorage@@SAHPEAUtagHTTP_SEND@1@@Z 0000000140018600 f   CViHTTPStorage.obj
 0001:00017c50       ?sendJSON_v2@CViHTTPStorage@@SAHPEAUtagHTTP_SEND@1@@Z 0000000140018c50 f   CViHTTPStorage.obj
 0001:00018220       ?set@CViHTTPStorage@@UEAA_NPEBD0@Z 0000000140019220 f   CViHTTPStorage.obj
 0001:00018290       ?set@CViHTTPStorage@@UEAA_NPEBDM@Z 0000000140019290 f   CViHTTPStorage.obj
 0001:00018330       ??$_Convert_stringoid_to_wide@U_Normal_conversion@filesystem@std@@@filesystem@std@@YA?AV?$basic_string@_WU?$char_traits@_W@std@@V?$allocator@_W@2@@1@V?$basic_string_view@_WU?$char_traits@_W@std@@@1@U_Normal_conversion@01@@Z 0000000140019330 f i CViLogStorage.obj
 0001:00018480       ??$_Invoke@V?$tuple@P6AXPEAVCViLogStorage@@@ZPEAV1@@std@@$0A@$00@thread@std@@CAIPEAX@Z 0000000140019480 f i CViLogStorage.obj
 0001:000184c0       ??$_Reallocate_grow_by@V<lambda_07b002202a580d07f308bf60d51244b2>@@_K_KPEB_W_K@?$basic_string@_WU?$char_traits@_W@std@@V?$allocator@_W@2@@std@@AEAAAEAV01@_KV<lambda_07b002202a580d07f308bf60d51244b2>@@_K2PEB_W2@Z 00000001400194c0 f i CViLogStorage.obj
 0001:00018650       ??0CViLogStorage@@QEAA@H@Z 0000000140019650 f   CViLogStorage.obj
 0001:00018740       ??1?$_Alloc_construct_ptr@V?$allocator@U?$_List_node@UtagLOG@CViLogStorage@@PEAX@std@@@std@@@std@@QEAA@XZ 0000000140019740 f i CViLogStorage.obj
 0001:00018760       ??1?$_List_node_emplace_op@V?$allocator@U?$_List_node@UtagLOG@CViLogStorage@@PEAX@std@@@std@@@std@@QEAA@XZ 0000000140019760 f i CViLogStorage.obj
 0001:000187a0       ??1?$list@UtagLOG@CViLogStorage@@V?$allocator@UtagLOG@CViLogStorage@@@std@@@std@@QEAA@XZ 00000001400197a0 f i CViLogStorage.obj
 0001:00018810       ??1?$unique_ptr@V?$tuple@P6AXPEAVCViLogStorage@@@ZPEAV1@@std@@U?$default_delete@V?$tuple@P6AXPEAVCViLogStorage@@@ZPEAV1@@std@@@2@@std@@QEAA@XZ 0000000140019810 f i CViLogStorage.obj
 0001:00018830       ??1CViLogStorage@@QEAA@XZ  0000000140019830 f   CViLogStorage.obj
 0001:000189d0       ??1tagLOG@CViLogStorage@@QEAA@XZ 00000001400199d0 f i CViLogStorage.obj
 0001:000189e0       ??_E?$_Ref_count_obj@Vthread@std@@@std@@UEAAPEAXI@Z 00000001400199e0 f i CViLogStorage.obj
 0001:000189e0       ??_G?$_Ref_count_obj@Vthread@std@@@std@@UEAAPEAXI@Z 00000001400199e0 f i CViLogStorage.obj
 0001:00018a10       ?CheckAll@CViLogStorage@@SAXXZ 0000000140019a10 f   CViLogStorage.obj
 0001:00018c40       ?Init@CViLogStorage@@QEAAXXZ 0000000140019c40 f   CViLogStorage.obj
 0001:00018c90       ?Log@CViLogStorage@@QEAAXAEBV?$CStringT@_WV?$StrTraitMFC_DLL@_WV?$ChTraitsCRT@_W@ATL@@@@@ATL@@@Z 0000000140019c90 f   CViLogStorage.obj
 0001:00018de0       ?OnFaceDetected@CViLogStorage@@QEAAXPEAUtagVI_FACE_INFO_DATA@@@Z 0000000140019de0 f   CViLogStorage.obj
 0001:00018e70       ?OnFaceOut@CViLogStorage@@QEAA_NXZ 0000000140019e70 f   CViLogStorage.obj
 0001:00018f90       ?Start@CViLogStorage@@QEAAXXZ 0000000140019f90 f   CViLogStorage.obj
 0001:00019410       ?ThreadProc@CViLogStorage@@SAXPEAV1@@Z 000000014001a410 f i CViLogStorage.obj
 0001:00019480       ?Write@CViLogStorage@@QEAAXXZ 000000014001a480 f   CViLogStorage.obj
 0001:00019bc0       ?_Destroy@?$_Ref_count_obj@Vthread@std@@@std@@EEAAXXZ 000000014001abc0 f i CViLogStorage.obj
 0001:00019be0       ?_Find_relative_path@filesystem@std@@YAPEB_WQEB_W0@Z 000000014001abe0 f i CViLogStorage.obj
 0001:00019cf0       ?_Throw_fs_error@filesystem@std@@YAXPEBDAEBVerror_code@2@AEBVpath@12@@Z 000000014001acf0 f i CViLogStorage.obj
 0001:00019d50       ?bLog@CViLogStorage@@QEAA_NXZ 000000014001ad50 f   CViLogStorage.obj
 0001:00019db0       ?create_directories@filesystem@std@@YA_NAEBVpath@12@AEAVerror_code@2@@Z 000000014001adb0 f i CViLogStorage.obj
 0001:0001a0a0       ?exists@filesystem@std@@YA_NAEBVpath@12@@Z 000000014001b0a0 f i CViLogStorage.obj
 0001:0001a200       ?replace@?$basic_string@_WU?$char_traits@_W@std@@V?$allocator@_W@2@@std@@QEAAAEAV12@_K_KQEB_W0@Z 000000014001b200 f i CViLogStorage.obj
 0001:0001a3d0       fprintf_s                  000000014001b3d0 f i CViLogStorage.obj
 0001:0001a420       ??$_Erase_tree@V?$allocator@U?$_Tree_node@U?$pair@$$CBV?$CStringT@_WV?$StrTraitMFC_DLL@_WV?$ChTraitsCRT@_W@ATL@@@@@ATL@@PEAUHKEY__@@@std@@PEAX@std@@@std@@@?$_Tree_val@U?$_Tree_simple_types@U?$pair@$$CBV?$CStringT@_WV?$StrTraitMFC_DLL@_WV?$ChTraitsCRT@_W@ATL@@@@@ATL@@PEAUHKEY__@@@std@@@std@@@std@@QEAAXAEAV?$allocator@U?$_Tree_node@U?$pair@$$CBV?$CStringT@_WV?$StrTraitMFC_DLL@_WV?$ChTraitsCRT@_W@ATL@@@@@ATL@@PEAUHKEY__@@@std@@PEAX@std@@@1@PEAU?$_Tree_node@U?$pair@$$CBV?$CStringT@_WV?$StrTraitMFC_DLL@_WV?$ChTraitsCRT@_W@ATL@@@@@ATL@@PEAUHKEY__@@@std@@PEAX@1@@Z 000000014001b420 f i CWinAppExReg.obj
 0001:0001a4a0       ??1?$_Alloc_construct_ptr@V?$allocator@U?$_List_node@UtagSEND_DATA@CViFTPStorage@@PEAX@std@@@std@@@std@@QEAA@XZ 000000014001b4a0 f i ViFTPStorage.obj
 0001:0001a4a0       ??1?$_Alloc_construct_ptr@V?$allocator@U?$_Tree_node@U?$pair@$$CBHVCRect@@@std@@PEAX@std@@@std@@@std@@QEAA@XZ 000000014001b4a0 f i ViEngineExProc.obj
 0001:0001a4a0       ??1?$_Alloc_construct_ptr@V?$allocator@U?$_Tree_node@U?$pair@$$CBV?$CStringT@DV?$StrTraitMFC_DLL@DV?$ChTraitsCRT@D@ATL@@@@@ATL@@PEAVCDockablePane@@@std@@PEAX@std@@@std@@@std@@QEAA@XZ 000000014001b4a0 f i PropertiesPack.obj
 0001:0001a4a0       ??1?$_Tree_temp_node_alloc@V?$allocator@U?$_Tree_node@U?$pair@$$CBV?$CStringT@_WV?$StrTraitMFC_DLL@_WV?$ChTraitsCRT@_W@ATL@@@@@ATL@@V12@@std@@PEAX@std@@@std@@@std@@QEAA@XZ 000000014001b4a0 f i VibraimageExProp.obj
 0001:0001a4a0       ??1?$_Alloc_construct_ptr@V?$allocator@U?$_Tree_node@U?$pair@$$CBHV?$CStringT@_WV?$StrTraitMFC_DLL@_WV?$ChTraitsCRT@_W@ATL@@@@@ATL@@@std@@PEAX@std@@@std@@@std@@QEAA@XZ 000000014001b4a0 f i VibraimageEx.obj
 0001:0001a4a0       ??1?$_Alloc_construct_ptr@V?$allocator@U?$_Tree_node@U?$pair@$$CBV?$CStringT@_WV?$StrTraitMFC_DLL@_WV?$ChTraitsCRT@_W@ATL@@@@@ATL@@PEAUHKEY__@@@std@@PEAX@std@@@std@@@std@@QEAA@XZ 000000014001b4a0 f i CWinAppExReg.obj
 0001:0001a4a0       ??1?$_Alloc_construct_ptr@V?$allocator@U?$_Tree_node@U?$pair@$$CBV?$CStringT@_WV?$StrTraitMFC_DLL@_WV?$ChTraitsCRT@_W@ATL@@@@@ATL@@V12@@std@@PEAX@std@@@std@@@std@@QEAA@XZ 000000014001b4a0 f i VibraimageExProp.obj
 0001:0001a4a0       ??1?$_Alloc_construct_ptr@V?$allocator@U?$_Tree_node@U?$pair@$$CBV?$CStringT@DV?$StrTraitMFC_DLL@DV?$ChTraitsCRT@D@ATL@@@@@ATL@@H@std@@PEAX@std@@@std@@@std@@QEAA@XZ 000000014001b4a0 f i VibraimageEx.obj
 0001:0001a4a0       ??1?$_Alloc_construct_ptr@V?$allocator@U?$_Tree_node@U?$pair@$$CBHPEAVITEM@CPropertiesWnd@CDockablePaneVI@@@std@@PEAX@std@@@std@@@std@@QEAA@XZ 000000014001b4a0 f i PropertiesWnd.obj
 0001:0001a4a0       ??1?$_Tree_temp_node_alloc@V?$allocator@U?$_Tree_node@U?$pair@$$CBV?$CStringT@DV?$StrTraitMFC_DLL@DV?$ChTraitsCRT@D@ATL@@@@@ATL@@H@std@@PEAX@std@@@std@@@std@@QEAA@XZ 000000014001b4a0 f i VibraimageEx.obj
 0001:0001a4a0       ??1?$_Tree_temp_node_alloc@V?$allocator@U?$_Tree_node@U?$pair@$$CBV?$CStringT@_WV?$StrTraitMFC_DLL@_WV?$ChTraitsCRT@_W@ATL@@@@@ATL@@PEAUHKEY__@@@std@@PEAX@std@@@std@@@std@@QEAA@XZ 000000014001b4a0 f i CWinAppExReg.obj
 0001:0001a4a0       ??1?$_Alloc_construct_ptr@V?$allocator@U?$_Tree_node@U?$pair@$$CB_KPEAUHBITMAP__@@@std@@PEAX@std@@@std@@@std@@QEAA@XZ 000000014001b4a0 f i VibraimageExOverview.obj
 0001:0001a4a0       ??1?$_Tree_temp_node_alloc@V?$allocator@U?$_Tree_node@U?$pair@$$CBV?$CStringT@DV?$StrTraitMFC_DLL@DV?$ChTraitsCRT@D@ATL@@@@@ATL@@PEAVCDockablePane@@@std@@PEAX@std@@@std@@@std@@QEAA@XZ 000000014001b4a0 f i PropertiesPack.obj
 0001:0001a4a0       ??1?$_Alloc_construct_ptr@V?$allocator@U?$_Tree_node@U?$pair@$$CBHUtagITEM@CVibraimageExMenu@@@std@@PEAX@std@@@std@@@std@@QEAA@XZ 000000014001b4a0 f i VibraimageExMenu.obj
 0001:0001a4c0       ??1CWinAppExReg@@UEAA@XZ   000000014001b4c0 f   CWinAppExReg.obj
 0001:0001a610       ??_GCWinAppExReg@@UEAAPEAXI@Z 000000014001b610 f i CWinAppExReg.obj
 0001:0001a610       ??_ECWinAppExReg@@UEAAPEAXI@Z 000000014001b610 f i CWinAppExReg.obj
 0001:0001a7a0       ?GetApplicationRecoveryPingInterval@CWinApp@@UEAAKXZ 000000014001b7a0 f i CWinAppExReg.obj
 0001:0001a7b0       ?GetProfileBinary@CWinAppExReg@@UEAAHPEB_W0PEAPEAEPEAI@Z 000000014001b7b0 f   CWinAppExReg.obj
 0001:0001a960       ?GetProfileIntW@CWinAppExReg@@UEAAIPEB_W0H@Z 000000014001b960 f   CWinAppExReg.obj
 0001:0001aa00       ?GetProfileStringW@CWinAppExReg@@UEAA?AV?$CStringT@_WV?$StrTraitMFC_DLL@_WV?$ChTraitsCRT@_W@ATL@@@@@ATL@@PEB_W00@Z 000000014001ba00 f   CWinAppExReg.obj
 0001:0001ab90       ?GetSectionKey@CWinAppExReg@@QEAAPEAUHKEY__@@PEB_WPEAVCAtlTransactionManager@ATL@@@Z 000000014001bb90 f   CWinAppExReg.obj
 0001:0001ae90       ?RegFlush@CWinAppExReg@@QEAAXXZ 000000014001be90 f   CWinAppExReg.obj
 0001:0001af90       ?ReopenPreviousFilesAtRestart@CWinApp@@UEBAHXZ 000000014001bf90 f i CWinAppExReg.obj
 0001:0001afa0       ?RestoreAutosavedFilesAtRestart@CWinApp@@UEBAHXZ 000000014001bfa0 f i CWinAppExReg.obj
 0001:0001afb0       ?SupportsApplicationRecovery@CWinApp@@UEBAHXZ 000000014001bfb0 f i CWinAppExReg.obj
 0001:0001afc0       ?SupportsAutosaveAtInterval@CWinApp@@UEBAHXZ 000000014001bfc0 f i CWinAppExReg.obj
 0001:0001afd0       ?SupportsAutosaveAtRestart@CWinApp@@UEBAHXZ 000000014001bfd0 f i CWinAppExReg.obj
 0001:0001afe0       ?SupportsRestartManager@CWinApp@@UEBAHXZ 000000014001bfe0 f i CWinAppExReg.obj
 0001:0001aff0       ?WriteProfileBinary@CWinAppExReg@@UEAAHPEB_W0PEAEI@Z 000000014001bff0 f   CWinAppExReg.obj
 0001:0001b130       ?WriteProfileInt@CWinAppExReg@@UEAAHPEB_W0H@Z 000000014001c130 f   CWinAppExReg.obj
 0001:0001b1f0       ?WriteProfileStringW@CWinAppExReg@@UEAAHPEB_W00@Z 000000014001c1f0 f   CWinAppExReg.obj
 0001:0001b320       ?_Insert_node@?$_Tree_val@U?$_Tree_simple_types@U?$pair@$$CBV?$CStringT@DV?$StrTraitMFC_DLL@DV?$ChTraitsCRT@D@ATL@@@@@ATL@@H@std@@@std@@@std@@QEAAPEAU?$_Tree_node@U?$pair@$$CBV?$CStringT@DV?$StrTraitMFC_DLL@DV?$ChTraitsCRT@D@ATL@@@@@ATL@@H@std@@PEAX@2@U?$_Tree_id@PEAU?$_Tree_node@U?$pair@$$CBV?$CStringT@DV?$StrTraitMFC_DLL@DV?$ChTraitsCRT@D@ATL@@@@@ATL@@H@std@@PEAX@std@@@2@QEAU32@@Z 000000014001c320 f i VibraimageEx.obj
 0001:0001b320       ?_Insert_node@?$_Tree_val@U?$_Tree_simple_types@U?$pair@$$CBHV?$map@V?$CStringT@DV?$StrTraitMFC_DLL@DV?$ChTraitsCRT@D@ATL@@@@@ATL@@HU?$less@V?$CStringT@DV?$StrTraitMFC_DLL@DV?$ChTraitsCRT@D@ATL@@@@@ATL@@@std@@V?$allocator@U?$pair@$$CBV?$CStringT@DV?$StrTraitMFC_DLL@DV?$ChTraitsCRT@D@ATL@@@@@ATL@@H@std@@@4@@std@@@std@@@std@@@std@@QEAAPEAU?$_Tree_node@U?$pair@$$CBHV?$map@V?$CStringT@DV?$StrTraitMFC_DLL@DV?$ChTraitsCRT@D@ATL@@@@@ATL@@HU?$less@V?$CStringT@DV?$StrTraitMFC_DLL@DV?$ChTraitsCRT@D@ATL@@@@@ATL@@@std@@V?$allocator@U?$pair@$$CBV?$CStringT@DV?$StrTraitMFC_DLL@DV?$ChTraitsCRT@D@ATL@@@@@ATL@@H@std@@@4@@std@@@std@@PEAX@2@U?$_Tree_id@PEAU?$_Tree_node@U?$pair@$$CBHV?$map@V?$CStringT@DV?$StrTraitMFC_DLL@DV?$ChTraitsCRT@D@ATL@@@@@ATL@@HU?$less@V?$CStringT@DV?$StrTraitMFC_DLL@DV?$ChTraitsCRT@D@ATL@@@@@ATL@@@std@@V?$allocator@U?$pair@$$CBV?$CStringT@DV?$StrTraitMFC_DLL@DV?$ChTraitsCRT@D@ATL@@@@@ATL@@H@std@@@4@@std@@@std@@PEAX@std@@@2@QEAU32@@Z 000000014001c320 f i VibraimageEx.obj
 0001:0001b320       ?_Insert_node@?$_Tree_val@U?$_Tree_simple_types@U?$pair@$$CBHV?$shared_ptr@VCColorProcress@@@std@@@std@@@std@@@std@@QEAAPEAU?$_Tree_node@U?$pair@$$CBHV?$shared_ptr@VCColorProcress@@@std@@@std@@PEAX@2@U?$_Tree_id@PEAU?$_Tree_node@U?$pair@$$CBHV?$shared_ptr@VCColorProcress@@@std@@@std@@PEAX@std@@@2@QEAU32@@Z 000000014001c320 f i VibraimageExAIV.obj
 0001:0001b320       ?_Insert_node@?$_Tree_val@U?$_Tree_simple_types@U?$pair@$$CBMK@std@@@std@@@std@@QEAAPEAU?$_Tree_node@U?$pair@$$CBMK@std@@PEAX@2@U?$_Tree_id@PEAU?$_Tree_node@U?$pair@$$CBMK@std@@PEAX@std@@@2@QEAU32@@Z 000000014001c320 f i VibraimageExQT.obj
 0001:0001b320       ?_Insert_node@?$_Tree_val@U?$_Tree_simple_types@U?$pair@$$CBHUtagPANE@CPropertiesPack@CDockablePaneVI@@@std@@@std@@@std@@QEAAPEAU?$_Tree_node@U?$pair@$$CBHUtagPANE@CPropertiesPack@CDockablePaneVI@@@std@@PEAX@2@U?$_Tree_id@PEAU?$_Tree_node@U?$pair@$$CBHUtagPANE@CPropertiesPack@CDockablePaneVI@@@std@@PEAX@std@@@2@QEAU32@@Z 000000014001c320 f i PropertiesPack.obj
 0001:0001b320       ?_Insert_node@?$_Tree_val@U?$_Tree_simple_types@U?$pair@$$CBHH@std@@@std@@@std@@QEAAPEAU?$_Tree_node@U?$pair@$$CBHH@std@@PEAX@2@U?$_Tree_id@PEAU?$_Tree_node@U?$pair@$$CBHH@std@@PEAX@std@@@2@QEAU32@@Z 000000014001c320 f i VibraimageExFrame.obj
 0001:0001b320       ?_Insert_node@?$_Tree_val@U?$_Tree_simple_types@U?$pair@$$CBV?$CStringT@_WV?$StrTraitMFC_DLL@_WV?$ChTraitsCRT@_W@ATL@@@@@ATL@@UtagITEM@CVIImages@@@std@@@std@@@std@@QEAAPEAU?$_Tree_node@U?$pair@$$CBV?$CStringT@_WV?$StrTraitMFC_DLL@_WV?$ChTraitsCRT@_W@ATL@@@@@ATL@@UtagITEM@CVIImages@@@std@@PEAX@2@U?$_Tree_id@PEAU?$_Tree_node@U?$pair@$$CBV?$CStringT@_WV?$StrTraitMFC_DLL@_WV?$ChTraitsCRT@_W@ATL@@@@@ATL@@UtagITEM@CVIImages@@@std@@PEAX@std@@@2@QEAU32@@Z 000000014001c320 f i VIImages.obj
 0001:0001b320       ?_Insert_node@?$_Tree_val@U?$_Tree_simple_types@U?$pair@$$CBV?$CStringT@_WV?$StrTraitMFC_DLL@_WV?$ChTraitsCRT@_W@ATL@@@@@ATL@@V12@@std@@@std@@@std@@QEAAPEAU?$_Tree_node@U?$pair@$$CBV?$CStringT@_WV?$StrTraitMFC_DLL@_WV?$ChTraitsCRT@_W@ATL@@@@@ATL@@V12@@std@@PEAX@2@U?$_Tree_id@PEAU?$_Tree_node@U?$pair@$$CBV?$CStringT@_WV?$StrTraitMFC_DLL@_WV?$ChTraitsCRT@_W@ATL@@@@@ATL@@V12@@std@@PEAX@std@@@2@QEAU32@@Z 000000014001c320 f i VibraimageExProp.obj
 0001:0001b320       ?_Insert_node@?$_Tree_val@U?$_Tree_simple_types@U?$pair@$$CBHPEAVITEM@CPropertiesWnd@CDockablePaneVI@@@std@@@std@@@std@@QEAAPEAU?$_Tree_node@U?$pair@$$CBHPEAVITEM@CPropertiesWnd@CDockablePaneVI@@@std@@PEAX@2@U?$_Tree_id@PEAU?$_Tree_node@U?$pair@$$CBHPEAVITEM@CPropertiesWnd@CDockablePaneVI@@@std@@PEAX@std@@@2@QEAU32@@Z 000000014001c320 f i PropertiesWnd.obj
 0001:0001b320       ?_Insert_node@?$_Tree_val@U?$_Tree_simple_types@U?$pair@$$CBKVCBrush@@@std@@@std@@@std@@QEAAPEAU?$_Tree_node@U?$pair@$$CBKVCBrush@@@std@@PEAX@2@U?$_Tree_id@PEAU?$_Tree_node@U?$pair@$$CBKVCBrush@@@std@@PEAX@std@@@2@QEAU32@@Z 000000014001c320 f i PropertiesWndBase.obj
 0001:0001b320       ?_Insert_node@?$_Tree_val@U?$_Tree_simple_types@U?$pair@$$CBHK@std@@@std@@@std@@QEAAPEAU?$_Tree_node@U?$pair@$$CBHK@std@@PEAX@2@U?$_Tree_id@PEAU?$_Tree_node@U?$pair@$$CBHK@std@@PEAX@std@@@2@QEAU32@@Z 000000014001c320 f i PropertiesWndBase.obj
 0001:0001b320       ?_Insert_node@?$_Tree_val@U?$_Tree_simple_types@U?$pair@$$CBHVCRect@@@std@@@std@@@std@@QEAAPEAU?$_Tree_node@U?$pair@$$CBHVCRect@@@std@@PEAX@2@U?$_Tree_id@PEAU?$_Tree_node@U?$pair@$$CBHVCRect@@@std@@PEAX@std@@@2@QEAU32@@Z 000000014001c320 f i ViEngineExProc.obj
 0001:0001b320       ?_Insert_node@?$_Tree_val@U?$_Tree_simple_types@U?$pair@$$CBHUtagITEM@CVibraimageExMenu@@@std@@@std@@@std@@QEAAPEAU?$_Tree_node@U?$pair@$$CBHUtagITEM@CVibraimageExMenu@@@std@@PEAX@2@U?$_Tree_id@PEAU?$_Tree_node@U?$pair@$$CBHUtagITEM@CVibraimageExMenu@@@std@@PEAX@std@@@2@QEAU32@@Z 000000014001c320 f i VibraimageExMenu.obj
 0001:0001b320       ?_Insert_node@?$_Tree_val@U?$_Tree_simple_types@U?$pair@$$CBV?$CStringT@DV?$StrTraitMFC_DLL@DV?$ChTraitsCRT@D@ATL@@@@@ATL@@PEAVCDockablePane@@@std@@@std@@@std@@QEAAPEAU?$_Tree_node@U?$pair@$$CBV?$CStringT@DV?$StrTraitMFC_DLL@DV?$ChTraitsCRT@D@ATL@@@@@ATL@@PEAVCDockablePane@@@std@@PEAX@2@U?$_Tree_id@PEAU?$_Tree_node@U?$pair@$$CBV?$CStringT@DV?$StrTraitMFC_DLL@DV?$ChTraitsCRT@D@ATL@@@@@ATL@@PEAVCDockablePane@@@std@@PEAX@std@@@2@QEAU32@@Z 000000014001c320 f i PropertiesPack.obj
 0001:0001b320       ?_Insert_node@?$_Tree_val@U?$_Tree_simple_types@U?$pair@$$CBV?$CStringT@_WV?$StrTraitMFC_DLL@_WV?$ChTraitsCRT@_W@ATL@@@@@ATL@@PEAUHKEY__@@@std@@@std@@@std@@QEAAPEAU?$_Tree_node@U?$pair@$$CBV?$CStringT@_WV?$StrTraitMFC_DLL@_WV?$ChTraitsCRT@_W@ATL@@@@@ATL@@PEAUHKEY__@@@std@@PEAX@2@U?$_Tree_id@PEAU?$_Tree_node@U?$pair@$$CBV?$CStringT@_WV?$StrTraitMFC_DLL@_WV?$ChTraitsCRT@_W@ATL@@@@@ATL@@PEAUHKEY__@@@std@@PEAX@std@@@2@QEAU32@@Z 000000014001c320 f i CWinAppExReg.obj
 0001:0001b320       ?_Insert_node@?$_Tree_val@U?$_Tree_simple_types@U?$pair@$$CBHV?$CStringT@_WV?$StrTraitMFC_DLL@_WV?$ChTraitsCRT@_W@ATL@@@@@ATL@@@std@@@std@@@std@@QEAAPEAU?$_Tree_node@U?$pair@$$CBHV?$CStringT@_WV?$StrTraitMFC_DLL@_WV?$ChTraitsCRT@_W@ATL@@@@@ATL@@@std@@PEAX@2@U?$_Tree_id@PEAU?$_Tree_node@U?$pair@$$CBHV?$CStringT@_WV?$StrTraitMFC_DLL@_WV?$ChTraitsCRT@_W@ATL@@@@@ATL@@@std@@PEAX@std@@@2@QEAU32@@Z 000000014001c320 f i VibraimageEx.obj
 0001:0001b320       ?_Insert_node@?$_Tree_val@U?$_Tree_simple_types@U?$pair@$$CB_KPEAUHBITMAP__@@@std@@@std@@@std@@QEAAPEAU?$_Tree_node@U?$pair@$$CB_KPEAUHBITMAP__@@@std@@PEAX@2@U?$_Tree_id@PEAU?$_Tree_node@U?$pair@$$CB_KPEAUHBITMAP__@@@std@@PEAX@std@@@2@QEAU32@@Z 000000014001c320 f i VibraimageExOverview.obj
 0001:0001b320       ?_Insert_node@?$_Tree_val@U?$_Tree_simple_types@U?$pair@$$CBV?$CStringT@_WV?$StrTraitMFC_DLL@_WV?$ChTraitsCRT@_W@ATL@@@@@ATL@@VSESSIONREF@CViEngineExProcDb@@@std@@@std@@@std@@QEAAPEAU?$_Tree_node@U?$pair@$$CBV?$CStringT@_WV?$StrTraitMFC_DLL@_WV?$ChTraitsCRT@_W@ATL@@@@@ATL@@VSESSIONREF@CViEngineExProcDb@@@std@@PEAX@2@U?$_Tree_id@PEAU?$_Tree_node@U?$pair@$$CBV?$CStringT@_WV?$StrTraitMFC_DLL@_WV?$ChTraitsCRT@_W@ATL@@@@@ATL@@VSESSIONREF@CViEngineExProcDb@@@std@@PEAX@std@@@2@QEAU32@@Z 000000014001c320 f i ViEngineExProcDb.obj
 0001:0001b5a0       swprintf_s                 000000014001c5a0 f i CWinAppExReg.obj
 0001:0001b600       ??HATL@@YA?AV?$CStringT@_WV?$StrTraitMFC_DLL@_WV?$ChTraitsCRT@_W@ATL@@@@@0@PEB_WAEBV10@@Z 000000014001c600 f i LogReport.obj
 0001:0001b6a0       ?LogMessage@CLogReport@@QEAA_NV?$CStringT@_WV?$StrTraitMFC_DLL@_WV?$ChTraitsCRT@_W@ATL@@@@@ATL@@G0@Z 000000014001c6a0 f   LogReport.obj
 0001:0001b9f0       ?Register@CLogReport@@QEAA_NV?$CStringT@_WV?$StrTraitMFC_DLL@_WV?$ChTraitsCRT@_W@ATL@@@@@ATL@@@Z 000000014001c9f0 f   LogReport.obj
 0001:0001bb90       ?Unregister@CLogReport@@QEAAXV?$CStringT@_WV?$StrTraitMFC_DLL@_WV?$ChTraitsCRT@_W@ATL@@@@@ATL@@@Z 000000014001cb90 f   LogReport.obj
 0001:0001bc60       ??0CNewVarEventVI@@QEAA@XZ 000000014001cc60 f   NewVarEventVI.obj
 0001:0001bc90       ??1CNewVarEventVI@@UEAA@XZ 000000014001cc90 f   NewVarEventVI.obj
 0001:0001bca0       ??_GCNewVarEventVI@@UEAAPEAXI@Z 000000014001cca0 f i NewVarEventVI.obj
 0001:0001bca0       ??_ECNewVarEventVI@@UEAAPEAXI@Z 000000014001cca0 f i NewVarEventVI.obj
 0001:0001bce0       ?getCore@CNewVarEventVI@@UEAAHXZ 000000014001cce0 f   NewVarEventVI.obj
 0001:0001bd00       ??$_Emplace_reallocate@V?$CStringT@DV?$StrTraitMFC_DLL@DV?$ChTraitsCRT@D@ATL@@@@@ATL@@@?$vector@V?$CStringT@DV?$StrTraitMFC_DLL@DV?$ChTraitsCRT@D@ATL@@@@@ATL@@V?$allocator@V?$CStringT@DV?$StrTraitMFC_DLL@DV?$ChTraitsCRT@D@ATL@@@@@ATL@@@std@@@std@@QEAAPEAV?$CStringT@DV?$StrTraitMFC_DLL@DV?$ChTraitsCRT@D@ATL@@@@@ATL@@QEAV23@$$QEAV23@@Z 000000014001cd00 f i PropertiesPack.obj
 0001:0001bd00       ??$_Emplace_reallocate@AEBV?$CStringT@DV?$StrTraitMFC_DLL@DV?$ChTraitsCRT@D@ATL@@@@@ATL@@@?$vector@V?$CStringT@DV?$StrTraitMFC_DLL@DV?$ChTraitsCRT@D@ATL@@@@@ATL@@V?$allocator@V?$CStringT@DV?$StrTraitMFC_DLL@DV?$ChTraitsCRT@D@ATL@@@@@ATL@@@std@@@std@@QEAAPEAV?$CStringT@DV?$StrTraitMFC_DLL@DV?$ChTraitsCRT@D@ATL@@@@@ATL@@QEAV23@AEBV23@@Z 000000014001cd00 f i PropertiesPack.obj
 0001:0001be30       ??$_Erase_tree@V?$allocator@U?$_Tree_node@U?$pair@$$CBHUtagPANE@CPropertiesPack@CDockablePaneVI@@@std@@PEAX@std@@@std@@@?$_Tree_val@U?$_Tree_simple_types@U?$pair@$$CBHUtagPANE@CPropertiesPack@CDockablePaneVI@@@std@@@std@@@std@@QEAAXAEAV?$allocator@U?$_Tree_node@U?$pair@$$CBHUtagPANE@CPropertiesPack@CDockablePaneVI@@@std@@PEAX@std@@@1@PEAU?$_Tree_node@U?$pair@$$CBHUtagPANE@CPropertiesPack@CDockablePaneVI@@@std@@PEAX@1@@Z 000000014001ce30 f i PropertiesPack.obj
 0001:0001bef0       ??$_Erase_tree@V?$allocator@U?$_Tree_node@U?$pair@$$CBV?$CStringT@DV?$StrTraitMFC_DLL@DV?$ChTraitsCRT@D@ATL@@@@@ATL@@PEAVCDockablePane@@@std@@PEAX@std@@@std@@@?$_Tree_val@U?$_Tree_simple_types@U?$pair@$$CBV?$CStringT@DV?$StrTraitMFC_DLL@DV?$ChTraitsCRT@D@ATL@@@@@ATL@@PEAVCDockablePane@@@std@@@std@@@std@@QEAAXAEAV?$allocator@U?$_Tree_node@U?$pair@$$CBV?$CStringT@DV?$StrTraitMFC_DLL@DV?$ChTraitsCRT@D@ATL@@@@@ATL@@PEAVCDockablePane@@@std@@PEAX@std@@@1@PEAU?$_Tree_node@U?$pair@$$CBV?$CStringT@DV?$StrTraitMFC_DLL@DV?$ChTraitsCRT@D@ATL@@@@@ATL@@PEAVCDockablePane@@@std@@PEAX@1@@Z 000000014001cef0 f i PropertiesPack.obj
 0001:0001bef0       ??$_Erase_tree@V?$allocator@U?$_Tree_node@U?$pair@$$CBV?$CStringT@DV?$StrTraitMFC_DLL@DV?$ChTraitsCRT@D@ATL@@@@@ATL@@H@std@@PEAX@std@@@std@@@?$_Tree_val@U?$_Tree_simple_types@U?$pair@$$CBV?$CStringT@DV?$StrTraitMFC_DLL@DV?$ChTraitsCRT@D@ATL@@@@@ATL@@H@std@@@std@@@std@@QEAAXAEAV?$allocator@U?$_Tree_node@U?$pair@$$CBV?$CStringT@DV?$StrTraitMFC_DLL@DV?$ChTraitsCRT@D@ATL@@@@@ATL@@H@std@@PEAX@std@@@1@PEAU?$_Tree_node@U?$pair@$$CBV?$CStringT@DV?$StrTraitMFC_DLL@DV?$ChTraitsCRT@D@ATL@@@@@ATL@@H@std@@PEAX@1@@Z 000000014001cef0 f i VibraimageEx.obj
 0001:0001bf70       ??$explode@V?$CStringT@DV?$StrTraitMFC_DLL@DV?$ChTraitsCRT@D@ATL@@@@@ATL@@@@YA?AV?$vector@V?$CStringT@DV?$StrTraitMFC_DLL@DV?$ChTraitsCRT@D@ATL@@@@@ATL@@V?$allocator@V?$CStringT@DV?$StrTraitMFC_DLL@DV?$ChTraitsCRT@D@ATL@@@@@ATL@@@std@@@std@@V?$CStringT@DV?$StrTraitMFC_DLL@DV?$ChTraitsCRT@D@ATL@@@@@ATL@@AEBV23@@Z 000000014001cf70 f i PropertiesPack.obj
 0001:0001c140       ??0CPropertiesPack@CDockablePaneVI@@QEAA@PEAVCFrameWndEx@@@Z 000000014001d140 f   PropertiesPack.obj
 0001:0001c200       ??1?$_Alloc_construct_ptr@V?$allocator@U?$_Tree_node@U?$pair@$$CBHUtagPANE@CPropertiesPack@CDockablePaneVI@@@std@@PEAX@std@@@std@@@std@@QEAA@XZ 000000014001d200 f i PropertiesPack.obj
 0001:0001c220       ??1?$_Uninitialized_backout_al@V?$allocator@V?$CStringT@DV?$StrTraitMFC_DLL@DV?$ChTraitsCRT@D@ATL@@@@@ATL@@@std@@@std@@QEAA@XZ 000000014001d220 f i PropertiesPack.obj
 0001:0001c260       ??1?$list@PEAVITEM@CPropertiesWnd@CDockablePaneVI@@V?$allocator@PEAVITEM@CPropertiesWnd@CDockablePaneVI@@@std@@@std@@QEAA@XZ 000000014001d260 f i PropertiesWnd.obj
 0001:0001c260       ??1?$list@PEAUtagPANE@CPropertiesPack@CDockablePaneVI@@V?$allocator@PEAUtagPANE@CPropertiesPack@CDockablePaneVI@@@std@@@std@@QEAA@XZ 000000014001d260 f i PropertiesPack.obj
 0001:0001c2c0       ??1?$map@HUtagPANE@CPropertiesPack@CDockablePaneVI@@U?$less@H@std@@V?$allocator@U?$pair@$$CBHUtagPANE@CPropertiesPack@CDockablePaneVI@@@std@@@5@@std@@QEAA@XZ 000000014001d2c0 f i PropertiesPack.obj
 0001:0001c2f0       ??1?$map@V?$CStringT@DV?$StrTraitMFC_DLL@DV?$ChTraitsCRT@D@ATL@@@@@ATL@@PEAVCDockablePane@@U?$less@V?$CStringT@DV?$StrTraitMFC_DLL@DV?$ChTraitsCRT@D@ATL@@@@@ATL@@@std@@V?$allocator@U?$pair@$$CBV?$CStringT@DV?$StrTraitMFC_DLL@DV?$ChTraitsCRT@D@ATL@@@@@ATL@@PEAVCDockablePane@@@std@@@5@@std@@QEAA@XZ 000000014001d2f0 f i PropertiesPack.obj
 0001:0001c320       ??1?$vector@V?$CStringT@DV?$StrTraitMFC_DLL@DV?$ChTraitsCRT@D@ATL@@@@@ATL@@V?$allocator@V?$CStringT@DV?$StrTraitMFC_DLL@DV?$ChTraitsCRT@D@ATL@@@@@ATL@@@std@@@std@@QEAA@XZ 000000014001d320 f i PropertiesPack.obj
 0001:0001c3b0       ??1CPropertiesPack@CDockablePaneVI@@UEAA@XZ 000000014001d3b0 f   PropertiesPack.obj
 0001:0001c550       ??1tagPANE@CPropertiesPack@CDockablePaneVI@@QEAA@XZ 000000014001d550 f i PropertiesPack.obj
 0001:0001c5b0       ??1xml_attribute_iterator@pugi@@QEAA@XZ 000000014001d5b0 f i VibraimageExGraph.obj
 0001:0001c5b0       ??1xml_node_iterator@pugi@@QEAA@XZ 000000014001d5b0 f i PropertiesPack.obj
 0001:0001c640       ??A?$map@HUtagPANE@CPropertiesPack@CDockablePaneVI@@U?$less@H@std@@V?$allocator@U?$pair@$$CBHUtagPANE@CPropertiesPack@CDockablePaneVI@@@std@@@5@@std@@QEAAAEAUtagPANE@CPropertiesPack@CDockablePaneVI@@AEBH@Z 000000014001d640 f i PropertiesPack.obj
 0001:0001c7b0       ??A?$map@V?$CStringT@DV?$StrTraitMFC_DLL@DV?$ChTraitsCRT@D@ATL@@@@@ATL@@PEAVCDockablePane@@U?$less@V?$CStringT@DV?$StrTraitMFC_DLL@DV?$ChTraitsCRT@D@ATL@@@@@ATL@@@std@@V?$allocator@U?$pair@$$CBV?$CStringT@DV?$StrTraitMFC_DLL@DV?$ChTraitsCRT@D@ATL@@@@@ATL@@PEAVCDockablePane@@@std@@@5@@std@@QEAAAEAPEAVCDockablePane@@AEBV?$CStringT@DV?$StrTraitMFC_DLL@DV?$ChTraitsCRT@D@ATL@@@@@ATL@@@Z 000000014001d7b0 f i PropertiesPack.obj
 0001:0001c8e0       ??HATL@@YA?AV?$CStringT@_WV?$StrTraitMFC_DLL@_WV?$ChTraitsCRT@_W@ATL@@@@@0@AEBV10@0@Z 000000014001d8e0 f i PropertiesPack.obj
 0001:0001c990       ??_ECPropertiesPack@CDockablePaneVI@@UEAAPEAXI@Z 000000014001d990 f i PropertiesPack.obj
 0001:0001c990       ??_GCPropertiesPack@CDockablePaneVI@@UEAAPEAXI@Z 000000014001d990 f i PropertiesPack.obj
 0001:0001c9d0       ?AdjustLayout@CPropertiesPack@CDockablePaneVI@@QEAAXXZ 000000014001d9d0 f   PropertiesPack.obj
 0001:0001c9d0       ?OnInit@CPropertiesPack@CDockablePaneVI@@QEAAXXZ 000000014001d9d0 f   PropertiesPack.obj
 0001:0001ca20       ?AdjustVisible@CPropertiesPack@CDockablePaneVI@@QEAAXXZ 000000014001da20 f   PropertiesPack.obj
 0001:0001ca90       __acrt_initialize          000000014001da90 f i msvcrt:ucrt_stubs.obj
 0001:0001ca90       __vcrt_uninitialize        000000014001da90 f i msvcrt:ucrt_stubs.obj
 0001:0001ca90       __acrt_uninitialize        000000014001da90 f i msvcrt:ucrt_stubs.obj
 0001:0001ca90       __scrt_stub_for_acrt_uninitialize 000000014001da90 f i msvcrt:ucrt_stubs.obj
 0001:0001ca90       ?CanSaveState@CPropertiesPack@CDockablePaneVI@@UEAA_NXZ 000000014001da90 f i PropertiesPack.obj
 0001:0001ca90       _should_initialize_environment 000000014001da90 f i msvcrt:env_mode.obj
 0001:0001ca90       ?CanEdit@CPropertiesWndBase@CDockablePaneVI@@UEAA_NPEAVCMFCPropertyGridProperty@@@Z 000000014001da90 f i PropertiesWnd.obj
 0001:0001ca90       ?UpdateValue@CPropertiesWnd@CDockablePaneVI@@MEAA_NPEAVITEM@12@_N1@Z 000000014001da90 f i PropertiesWnd.obj
 0001:0001ca90       ?CanLoadState@CPropertiesPack@CDockablePaneVI@@UEAA_NXZ 000000014001da90 f i PropertiesPack.obj
 0001:0001ca90       ?AddItem@CVibraimageExLD@@UEAA_NAEAVxml_node@pugi@@@Z 000000014001da90 f i VibraimageExLD.obj
 0001:0001ca90       __vcrt_initialize          000000014001da90 f i msvcrt:ucrt_stubs.obj
 0001:0001ca90       __scrt_stub_for_acrt_initialize 000000014001da90 f i msvcrt:ucrt_stubs.obj
 0001:0001caa0       ?CreatePane@CPropertiesPack@CDockablePaneVI@@UEAAPEAVCDockablePane@@AEAVxml_node@pugi@@@Z 000000014001daa0 f   PropertiesPack.obj
 0001:0001d260       ?CreatePaneProperty@CPropertiesPack@CDockablePaneVI@@UEAAPEAVCDockablePane@@AEAVxml_node@pugi@@AEAUtagPANE@12@@Z 000000014001e260 f   PropertiesPack.obj
 0001:0001d4f0       ?CreateWnd@CPropertiesPack@CDockablePaneVI@@UEAAPEAVCPropertiesWndBase@2@AEBV?$CStringT@DV?$StrTraitMFC_DLL@DV?$ChTraitsCRT@D@ATL@@@@@ATL@@H@Z 000000014001e4f0 f   PropertiesPack.obj
 0001:0001d560       ?CryptInit@CPropertiesPack@CDockablePaneVI@@KA_NPEA_K@Z 000000014001e560 f   PropertiesPack.obj
 0001:0001d5f0       ?GetValue@CPropertiesPack@CDockablePaneVI@@UEAA_NPEAUtagITEM_VALUE@CPropertiesWnd@2@G@Z 000000014001e5f0 f i PropertiesPack.obj
 0001:0001d5f0       ?SetValue@CPropertiesPack@CDockablePaneVI@@UEAA_NPEAVITEM@CPropertiesWnd@2@@Z 000000014001e5f0 f i PropertiesPack.obj
 0001:0001d5f0       ?OnClickValue@CPropertiesWnd@CDockablePaneVI@@UEAA_NPEAVITEM@12@@Z 000000014001e5f0 f i PropertiesWnd.obj
 0001:0001d5f0       ?OnClickName@CPropertiesWnd@CDockablePaneVI@@UEAA_NPEAVITEM@12@@Z 000000014001e5f0 f i PropertiesWnd.obj
 0001:0001d5f0       ?SetValue@CPropertiesPack@CDockablePaneVI@@UEAA_NPEAUtagITEM_VALUE@CPropertiesWnd@2@@Z 000000014001e5f0 f i PropertiesPack.obj
 0001:0001d5f0       ?OnDblClk@CPropertiesWnd@CDockablePaneVI@@UEAA_NPEAVITEM@12@@Z 000000014001e5f0 f i PropertiesWnd.obj
 0001:0001d5f0       ?Reload@CPropertiesWndBase@CDockablePaneVI@@UEAA_NXZ 000000014001e5f0 f i PropertiesWndBase.obj
 0001:0001d5f0       ?DockPane@CPropertiesPack@CDockablePaneVI@@UEAA_NAEAUtagPANE@12@@Z 000000014001e5f0 f i PropertiesPack.obj
 0001:0001d5f0       ?GetValue@CPropertiesPack@CDockablePaneVI@@UEAA_NPEAVITEM@CPropertiesWnd@2@G@Z 000000014001e5f0 f i PropertiesPack.obj
 0001:0001d5f0       ?GetVideoChannel@CViEngineExProc@@UEAA_NPEA_WJ@Z 000000014001e5f0 f i ViEngineExProc.obj
 0001:0001d5f0       ?OnClickButton@CPropertiesWnd@CDockablePaneVI@@UEAA_NPEAVITEM@12@@Z 000000014001e5f0 f i PropertiesWnd.obj
 0001:0001d600       ?DockPanes@CPropertiesPack@CDockablePaneVI@@UEAAXXZ 000000014001e600 f   PropertiesPack.obj
 0001:0001ddd0       ?Find@CPropertiesPack@CDockablePaneVI@@UEAAPEAVCPropertiesWndBase@2@V?$CStringT@DV?$StrTraitMFC_DLL@DV?$ChTraitsCRT@D@ATL@@@@@ATL@@@Z 000000014001edd0 f   PropertiesPack.obj
 0001:0001de60       ?GetConfigBase@CPropertiesPack@CDockablePaneVI@@UEAA?AV?$CStringT@_WV?$StrTraitMFC_DLL@_WV?$ChTraitsCRT@_W@ATL@@@@@ATL@@XZ 000000014001ee60 f i PropertiesPack.obj
 0001:0001de90       ?GetDefaultFormat@CPropertiesPack@CDockablePaneVI@@UEAA?AV?$CStringT@_WV?$StrTraitMFC_DLL@_WV?$ChTraitsCRT@_W@ATL@@@@@ATL@@H@Z 000000014001ee90 f   PropertiesPack.obj
 0001:0001df40       ?GetDefaultSize@CPropertiesPack@CDockablePaneVI@@UEAA?AVCSize@@XZ 000000014001ef40 f   PropertiesPack.obj
 0001:0001e000       ?GetInfo@CPropertiesPack@CDockablePaneVI@@QEAAPEAUtagPANE@12@H@Z 000000014001f000 f   PropertiesPack.obj
 0001:0001e050       ?GetLang@CPropertiesPack@CDockablePaneVI@@UEAAPEB_WHPEB_W@Z 000000014001f050 f i PropertiesPack.obj
 0001:0001e050       ?GetLang@CPropertiesPack@CDockablePaneVI@@UEAAPEB_WPEB_W0@Z 000000014001f050 f i PropertiesPack.obj
 0001:0001e060       ?GetLangId@CPropertiesPack@CDockablePaneVI@@UEAAHPEB_W@Z 000000014001f060 f i PropertiesPack.obj
 0001:0001e060       ?GetResizeStep@CPane@@UEBAHXZ 000000014001f060 f i PropertiesWnd.obj
 0001:0001e070       ?GetProfileIntW@CPropertiesPack@CDockablePaneVI@@UEAAHPEB_W0H@Z 000000014001f070 f i PropertiesPack.obj
 0001:0001e080       ?GetProfileStringW@CPropertiesPack@CDockablePaneVI@@UEAA?AV?$CStringT@_WV?$StrTraitMFC_DLL@_WV?$ChTraitsCRT@_W@ATL@@@@@ATL@@PEB_W0V34@@Z 000000014001f080 f i PropertiesPack.obj
 0001:0001e0c0       ?GetTab@CPropertiesPack@CDockablePaneVI@@UEAAPEAVCDockablePane@@PEBD@Z 000000014001f0c0 f   PropertiesPack.obj
 0001:0001e1a0       ?GetValueSelect@CPropertiesPack@CDockablePaneVI@@UEAA?AV?$CStringT@_WV?$StrTraitMFC_DLL@_WV?$ChTraitsCRT@_W@ATL@@@@@ATL@@PEAUtagITEM_VALUE@CPropertiesWnd@2@H@Z 000000014001f1a0 f   PropertiesPack.obj
 0001:0001e210       ?GetValueSelect@CPropertiesPack@CDockablePaneVI@@UEAAHPEAUtagITEM_VALUE@CPropertiesWnd@2@PEB_W@Z 000000014001f210 f   PropertiesPack.obj
 0001:0001e2a0       ?Load@CPropertiesPack@CDockablePaneVI@@UEAA_NPEB_W@Z 000000014001f2a0 f   PropertiesPack.obj
 0001:0001e430       ?LoadXml@CPropertiesPack@CDockablePaneVI@@UEAA_NPEB_WH@Z 000000014001f430 f   PropertiesPack.obj
 0001:0001e810       ?ReScale@CPropertiesPack@CDockablePaneVI@@UEAA?AVCOleVariant@@PEAUtagITEM_VALUE@CPropertiesWnd@2@AEBV3@_N@Z 000000014001f810 f   PropertiesPack.obj
 0001:0001e930       ?RegSave@CPropertiesPack@CDockablePaneVI@@QEAAXXZ 000000014001f930 f   PropertiesPack.obj
 0001:0001e9f0       ?Reload@CPropertiesPack@CDockablePaneVI@@UEAA_NXZ 000000014001f9f0 f   PropertiesPack.obj
 0001:0001ea40       ?RemoveAll@CPropertiesPack@CDockablePaneVI@@UEAAXXZ 000000014001fa40 f   PropertiesPack.obj
 0001:0001eb50       ?ShowAll@CPropertiesPack@CDockablePaneVI@@QEAAXH@Z 000000014001fb50 f   PropertiesPack.obj
 0001:0001ec40       ?ToHex@CPropertiesPack@CDockablePaneVI@@KA?AV?$CStringT@DV?$StrTraitMFC_DLL@DV?$ChTraitsCRT@D@ATL@@@@@ATL@@PEAEH@Z 000000014001fc40 f   PropertiesPack.obj
 0001:0001ed60       ?UpdateAll@CPropertiesPack@CDockablePaneVI@@UEAAXXZ 000000014001fd60 f   PropertiesPack.obj
 0001:0001edb0       ?WriteProfileStringW@CPropertiesPack@CDockablePaneVI@@UEAAXPEB_W0V?$CStringT@_WV?$StrTraitMFC_DLL@_WV?$ChTraitsCRT@_W@ATL@@@@@ATL@@@Z 000000014001fdb0 f i PropertiesPack.obj
 0001:0001edc0       ?_Change_array@?$vector@V?$CStringT@DV?$StrTraitMFC_DLL@DV?$ChTraitsCRT@D@ATL@@@@@ATL@@V?$allocator@V?$CStringT@DV?$StrTraitMFC_DLL@DV?$ChTraitsCRT@D@ATL@@@@@ATL@@@std@@@std@@AEAAXQEAV?$CStringT@DV?$StrTraitMFC_DLL@DV?$ChTraitsCRT@D@ATL@@@@@ATL@@_K1@Z 000000014001fdc0 f i PropertiesPack.obj
 0001:0001ee80       ?_Destroy@?$vector@V?$CStringT@DV?$StrTraitMFC_DLL@DV?$ChTraitsCRT@D@ATL@@@@@ATL@@V?$allocator@V?$CStringT@DV?$StrTraitMFC_DLL@DV?$ChTraitsCRT@D@ATL@@@@@ATL@@@std@@@std@@AEAAXPEAV?$CStringT@DV?$StrTraitMFC_DLL@DV?$ChTraitsCRT@D@ATL@@@@@ATL@@0@Z 000000014001fe80 f i PropertiesPack.obj
 0001:0001eec0       ?_Reallocate_exactly@?$vector@V?$CStringT@DV?$StrTraitMFC_DLL@DV?$ChTraitsCRT@D@ATL@@@@@ATL@@V?$allocator@V?$CStringT@DV?$StrTraitMFC_DLL@DV?$ChTraitsCRT@D@ATL@@@@@ATL@@@std@@@std@@AEAAX_K@Z 000000014001fec0 f i PropertiesPack.obj
 0001:0001ef30       ?_Umove@?$vector@V?$CStringT@DV?$StrTraitMFC_DLL@DV?$ChTraitsCRT@D@ATL@@@@@ATL@@V?$allocator@V?$CStringT@DV?$StrTraitMFC_DLL@DV?$ChTraitsCRT@D@ATL@@@@@ATL@@@std@@@std@@AEAAPEAV?$CStringT@DV?$StrTraitMFC_DLL@DV?$ChTraitsCRT@D@ATL@@@@@ATL@@PEAV34@00@Z 000000014001ff30 f i PropertiesPack.obj
 0001:0001efb0       ?_Umove_if_noexcept@?$vector@V?$CStringT@DV?$StrTraitMFC_DLL@DV?$ChTraitsCRT@D@ATL@@@@@ATL@@V?$allocator@V?$CStringT@DV?$StrTraitMFC_DLL@DV?$ChTraitsCRT@D@ATL@@@@@ATL@@@std@@@std@@AEAAXPEAV?$CStringT@DV?$StrTraitMFC_DLL@DV?$ChTraitsCRT@D@ATL@@@@@ATL@@00@Z 000000014001ffb0 f i PropertiesPack.obj
 0001:0001f020       ?attrib@CPropertiesPack@CDockablePaneVI@@IEAA?AV?$CStringT@_WV?$StrTraitMFC_DLL@_WV?$ChTraitsCRT@_W@ATL@@@@@ATL@@AEAVxml_node@pugi@@PEBD@Z 0000000140020020 f i PropertiesPack.obj
 0001:0001f190       sprintf_s                  0000000140020190 f i PropertiesPack.obj
 0001:0001f1f0       ??$_Emplace_reallocate@AEBH@?$vector@HV?$allocator@H@std@@@std@@QEAAPEAHQEAHAEBH@Z 00000001400201f0 f i PropertiesWnd.obj
 0001:0001f340       ??$_Emplace_reallocate@UtagITEM_VALUE@CPropertiesWnd@CDockablePaneVI@@@?$vector@UtagITEM_VALUE@CPropertiesWnd@CDockablePaneVI@@V?$allocator@UtagITEM_VALUE@CPropertiesWnd@CDockablePaneVI@@@std@@@std@@QEAAPEAUtagITEM_VALUE@CPropertiesWnd@CDockablePaneVI@@QEAU234@$$QEAU234@@Z 0000000140020340 f i PropertiesWnd.obj
 0001:0001f4c0       ??$_Erase_tree@V?$allocator@U?$_Tree_node@U?$pair@$$CBHVCRect@@@std@@PEAX@std@@@std@@@?$_Tree_val@U?$_Tree_simple_types@U?$pair@$$CBHVCRect@@@std@@@std@@@std@@QEAAXAEAV?$allocator@U?$_Tree_node@U?$pair@$$CBHVCRect@@@std@@PEAX@std@@@1@PEAU?$_Tree_node@U?$pair@$$CBHVCRect@@@std@@PEAX@1@@Z 00000001400204c0 f i ViEngineExProc.obj
 0001:0001f4c0       ??$_Erase_tree@V?$allocator@U?$_Tree_node@U?$pair@$$CB_KPEAUHBITMAP__@@@std@@PEAX@std@@@std@@@?$_Tree_val@U?$_Tree_simple_types@U?$pair@$$CB_KPEAUHBITMAP__@@@std@@@std@@@std@@QEAAXAEAV?$allocator@U?$_Tree_node@U?$pair@$$CB_KPEAUHBITMAP__@@@std@@PEAX@std@@@1@PEAU?$_Tree_node@U?$pair@$$CB_KPEAUHBITMAP__@@@std@@PEAX@1@@Z 00000001400204c0 f i VibraimageExOverview.obj
 0001:0001f4c0       ??$_Erase_tree@V?$allocator@U?$_Tree_node@U?$pair@$$CBHPEAVITEM@CPropertiesWnd@CDockablePaneVI@@@std@@PEAX@std@@@std@@@?$_Tree_val@U?$_Tree_simple_types@U?$pair@$$CBHPEAVITEM@CPropertiesWnd@CDockablePaneVI@@@std@@@std@@@std@@QEAAXAEAV?$allocator@U?$_Tree_node@U?$pair@$$CBHPEAVITEM@CPropertiesWnd@CDockablePaneVI@@@std@@PEAX@std@@@1@PEAU?$_Tree_node@U?$pair@$$CBHPEAVITEM@CPropertiesWnd@CDockablePaneVI@@@std@@PEAX@1@@Z 00000001400204c0 f i PropertiesWnd.obj
 0001:0001f4c0       ??$_Erase_tree@V?$allocator@U?$_Tree_node@U?$pair@$$CBHUtagITEM@CVibraimageExMenu@@@std@@PEAX@std@@@std@@@?$_Tree_val@U?$_Tree_simple_types@U?$pair@$$CBHUtagITEM@CVibraimageExMenu@@@std@@@std@@@std@@QEAAXAEAV?$allocator@U?$_Tree_node@U?$pair@$$CBHUtagITEM@CVibraimageExMenu@@@std@@PEAX@std@@@1@PEAU?$_Tree_node@U?$pair@$$CBHUtagITEM@CVibraimageExMenu@@@std@@PEAX@1@@Z 00000001400204c0 f i VibraimageExMenu.obj
 0001:0001f520       ??$_Resize_reallocate@U_Value_init_tag@std@@@?$vector@UtagITEM_VALUE@CPropertiesWnd@CDockablePaneVI@@V?$allocator@UtagITEM_VALUE@CPropertiesWnd@CDockablePaneVI@@@std@@@std@@AEAAX_KAEBU_Value_init_tag@1@@Z 0000000140020520 f i PropertiesWnd.obj
 0001:0001f680       ??$_Uninitialized_copy@PEAV?$CStringT@_WV?$StrTraitMFC_DLL@_WV?$ChTraitsCRT@_W@ATL@@@@@ATL@@V?$allocator@V?$CStringT@_WV?$StrTraitMFC_DLL@_WV?$ChTraitsCRT@_W@ATL@@@@@ATL@@@std@@@std@@YAPEAV?$CStringT@_WV?$StrTraitMFC_DLL@_WV?$ChTraitsCRT@_W@ATL@@@@@ATL@@QEAV12@0PEAV12@AEAV?$allocator@V?$CStringT@_WV?$StrTraitMFC_DLL@_WV?$ChTraitsCRT@_W@ATL@@@@@ATL@@@0@@Z 0000000140020680 f i PropertiesWnd.obj
 0001:0001f700       ??0?$vector@V?$CStringT@_WV?$StrTraitMFC_DLL@_WV?$ChTraitsCRT@_W@ATL@@@@@ATL@@V?$allocator@V?$CStringT@_WV?$StrTraitMFC_DLL@_WV?$ChTraitsCRT@_W@ATL@@@@@ATL@@@std@@@std@@QEAA@AEBV01@@Z 0000000140020700 f i PropertiesWnd.obj
 0001:0001f790       ??0CPropertiesWnd@CDockablePaneVI@@QEAA@PEAVCPropertiesPack@1@H@Z 0000000140020790 f   PropertiesWnd.obj
 0001:0001f860       ??0ITEM@CPropertiesWnd@CDockablePaneVI@@QEAA@PEAV12@@Z 0000000140020860 f   PropertiesWnd.obj
 0001:0001fa50       ??0tagITEM_VALUE@CPropertiesWnd@CDockablePaneVI@@QEAA@$$QEAU012@@Z 0000000140020a50 f i PropertiesWnd.obj
 0001:0001fbf0       ??0tagITEM_VALUE@CPropertiesWnd@CDockablePaneVI@@QEAA@AEBU012@@Z 0000000140020bf0 f i PropertiesWnd.obj
 0001:0001fd50       ??0tagITEM_VALUE@CPropertiesWnd@CDockablePaneVI@@QEAA@XZ 0000000140020d50 f i PropertiesWnd.obj
 0001:0001fe00       ??1?$_Tidy_guard@V?$vector@V?$CStringT@_WV?$StrTraitMFC_DLL@_WV?$ChTraitsCRT@_W@ATL@@@@@ATL@@V?$allocator@V?$CStringT@_WV?$StrTraitMFC_DLL@_WV?$ChTraitsCRT@_W@ATL@@@@@ATL@@@std@@@std@@@std@@QEAA@XZ 0000000140020e00 f i PropertiesWnd.obj
 0001:0001fe10       ??1?$_Uninitialized_backout_al@V?$allocator@UtagITEM_VALUE@CPropertiesWnd@CDockablePaneVI@@@std@@@std@@QEAA@XZ 0000000140020e10 f i PropertiesWnd.obj
 0001:0001fe50       ??1?$vector@UtagITEM_VALUE@CPropertiesWnd@CDockablePaneVI@@V?$allocator@UtagITEM_VALUE@CPropertiesWnd@CDockablePaneVI@@@std@@@std@@QEAA@XZ 0000000140020e50 f i PropertiesWnd.obj
 0001:0001ff10       ??1CInc@@QEAA@XZ           0000000140020f10 f i PropertiesWnd.obj
 0001:0001ff20       ??1CPropertiesWnd@CDockablePaneVI@@UEAA@XZ 0000000140020f20 f   PropertiesWnd.obj
 0001:000200c0       ??1tagITEM_VALUE@CPropertiesWnd@CDockablePaneVI@@QEAA@XZ 00000001400210c0 f i PropertiesWnd.obj
 0001:0002018c       ??_9CVibraimageExGraph@@$BHLI@AA 000000014002118c f i VibraimageExGraph.obj
 0001:0002018c       ??_9CVibraimageExVPos@@$BHLI@AA 000000014002118c f i VibraimageExVPos.obj
 0001:0002018c       ??_9CVibraimageExLD@@$BHLI@AA 000000014002118c f i VibraimageExLD.obj
 0001:0002018c       ??_9CPropertiesWndBase@CDockablePaneVI@@$BHLI@AA 000000014002118c f i PropertiesWndBase.obj
 0001:0002018c       ??_9CPropertiesWnd@CDockablePaneVI@@$BHLI@AA 000000014002118c f i PropertiesWnd.obj
 0001:0002018c       ??_9CVibraimageExProp@@$BHLI@AA 000000014002118c f i VibraimageExProp.obj
 0001:000201a0       ??_GCPropertiesWnd@CDockablePaneVI@@UEAAPEAXI@Z 00000001400211a0 f i PropertiesWnd.obj
 0001:000201a0       ??_ECPropertiesWnd@CDockablePaneVI@@UEAAPEAXI@Z 00000001400211a0 f i PropertiesWnd.obj
 0001:000201f0       ??_EITEM@CPropertiesWnd@CDockablePaneVI@@UEAAPEAXI@Z 00000001400211f0 f i PropertiesWnd.obj
 0001:000201f0       ??_GITEM@CPropertiesWnd@CDockablePaneVI@@UEAAPEAXI@Z 00000001400211f0 f i PropertiesWnd.obj
 0001:000202e0       ?AddItem@CPropertiesWnd@CDockablePaneVI@@MEAAPEAVITEM@12@PEAV312@AEAVxml_node@pugi@@@Z 00000001400212e0 f   PropertiesWnd.obj
 0001:00021010       ?CalcSize@CPane@@UEAA?AVCSize@@H@Z 0000000140022010 f i PropertiesWnd.obj
 0001:00021010       ?StretchPane@CBasePane@@UEAA?AVCSize@@HH@Z 0000000140022010 f i PropertiesWnd.obj
 0001:00021020       ?CanAcceptPane@CPropertiesWndBase@CDockablePaneVI@@UEBAHPEBVCBasePane@@@Z 0000000140022020 f i PropertiesWnd.obj
 0001:00021090       ?CanFloat@CPropertiesWndBase@CDockablePaneVI@@UEBAHXZ 0000000140022090 f i PropertiesWnd.obj
 0001:00021090       ?CanBeAttached@CPropertiesWndBase@CDockablePaneVI@@UEBAHXZ 0000000140022090 f i PropertiesWnd.obj
 0001:00021090       ?CanAutoHide@CPropertiesWndBase@CDockablePaneVI@@UEBAHXZ 0000000140022090 f i PropertiesWnd.obj
 0001:000210a0       ?CanBeClosed@CBasePane@@UEBAHXZ 00000001400220a0 f i PropertiesWnd.obj
 0001:000210b0       ?CanBeDocked@CPane@@UEBAHPEAVCBasePane@@@Z 00000001400220b0 f i PropertiesWnd.obj
 0001:000210f0       ?CanBeResized@CBasePane@@UEBAHXZ 00000001400220f0 f i PropertiesWnd.obj
 0001:00021100       ?CreateItem@CPropertiesWnd@CDockablePaneVI@@MEAAPEAVITEM@12@PEAV12@PEAV312@AEAVxml_node@pugi@@@Z 0000000140022100 f   PropertiesWnd.obj
 0001:00021240       ?CreateItem@CPropertiesWnd@CDockablePaneVI@@MEAAPEAVITEM@12@PEAV12@PEAV312@AEBV?$CStringT@DV?$StrTraitMFC_DLL@DV?$ChTraitsCRT@D@ATL@@@@@ATL@@AEAVxml_node@pugi@@@Z 0000000140022240 f   PropertiesWnd.obj
 0001:00021900       ?CreateTabbedPane@CPropertiesWnd@CDockablePaneVI@@MEAAPEAVCTabbedPane@@XZ 0000000140022900 f   PropertiesWnd.obj
 0001:00021a50       ?DockToRecentPos@CDockablePane@@UEAAHXZ 0000000140022a50 f i PropertiesWnd.obj
 0001:00021a70       ?DoesAllowDynInsertBefore@CBasePane@@UEBAHXZ 0000000140022a70 f i PropertiesWnd.obj
 0001:00021a80       ?DoesAllowSiblingBars@CPane@@UEBAHXZ 0000000140022a80 f i PropertiesWnd.obj
 0001:00021a90       ?EnableDocking@CBasePane@@UEAAXK@Z 0000000140022a90 f i PropertiesWnd.obj
 0001:00021aa0       ?FormatProperty@CPropertiesWnd@CDockablePaneVI@@UEAA?AV?$CStringT@_WV?$StrTraitMFC_DLL@_WV?$ChTraitsCRT@_W@ATL@@@@@ATL@@AEBVCOleVariant@@AEBV34@@Z 0000000140022aa0 f   PropertiesWnd.obj
 0001:00021c40       ?GetAHSlideMode@CDockablePane@@UEBAIXZ 0000000140022c40 f i PropertiesWnd.obj
 0001:00021c50       ?GetControlBarStyle@CBasePane@@UEBAKXZ 0000000140022c50 f i PropertiesWnd.obj
 0001:00021c60       ?GetEnabledAlignment@CBasePane@@UEBAKXZ 0000000140022c60 f i PropertiesWnd.obj
 0001:00021c70       ?GetExclusiveRowMode@CPane@@UEBAHXZ 0000000140022c70 f i PropertiesWnd.obj
 0001:00021c80       ?GetItem@CPropertiesWnd@CDockablePaneVI@@MEAAPEAVITEM@12@HH@Z 0000000140022c80 f   PropertiesWnd.obj
 0001:00021d60       ?GetItemByPos@CPropertiesWnd@CDockablePaneVI@@MEAAPEAVITEM@12@H@Z 0000000140022d60 f   PropertiesWnd.obj
 0001:00021de0       ?GetThisMessageMap@CPropertiesWnd@CDockablePaneVI@@KAPEBUAFX_MSGMAP@@XZ 0000000140022de0 f   PropertiesWnd.obj
 0001:00021de0       ?GetMessageMap@CPropertiesWnd@CDockablePaneVI@@MEBAPEBUAFX_MSGMAP@@XZ 0000000140022de0 f   PropertiesWnd.obj
 0001:00021df0       ?GetMinSize@CPane@@UEBAXAEAVCSize@@@Z 0000000140022df0 f i PropertiesWnd.obj
 0001:00021e00       ?GetPaneIcon@CBasePane@@UEAAPEAUHICON__@@H@Z 0000000140022e00 f i PropertiesWnd.obj
 0001:00021e20       ?GetPaneStyle@CBasePane@@UEBAKXZ 0000000140022e20 f i PropertiesWnd.obj
 0001:00021e30       ?GetParentDockSite@CBasePane@@UEBAPEAVCDockSite@@XZ 0000000140022e30 f i PropertiesWnd.obj
 0001:00021e40       ?GetRecentVisibleState@CPropertiesWndBase@CDockablePaneVI@@UEAAHXZ 0000000140022e40 f i PropertiesWndBase.obj
 0001:00021e40       ?GetRecentVisibleState@CBasePane@@UEBAHXZ 0000000140022e40 f i PropertiesWnd.obj
 0001:00021e50       ?GetTabArea@CDockablePane@@UEBAXAEAVCRect@@0@Z 0000000140022e50 f i PropertiesWnd.obj
 0001:00021e80       ?GetTypeID@CPropertiesWnd@CDockablePaneVI@@MEAAHAEBV?$CStringT@DV?$StrTraitMFC_DLL@DV?$ChTraitsCRT@D@ATL@@@@@ATL@@@Z 0000000140022e80 f   PropertiesWnd.obj
 0001:00022100       ?InitPropList@CPropertiesWnd@CDockablePaneVI@@MEAAXXZ 0000000140023100 f   PropertiesWnd.obj
 0001:00022110       ?IsAutoHideMode@CDockablePane@@UEBAHXZ 0000000140023110 f i PropertiesWnd.obj
 0001:00022120       ?IsAutohideAllEnabled@CDockablePane@@UEBAHXZ 0000000140023120 f i PropertiesWnd.obj
 0001:00022130       ?IsDragMode@CPane@@UEBAHXZ 0000000140023130 f i PropertiesWnd.obj
 0001:00022140       ?IsFloating@CBasePane@@UEBAHXZ 0000000140023140 f i PropertiesWnd.obj
 0001:00022160       ?IsHideInAutoHideMode@CDockablePane@@UEBAHXZ 0000000140023160 f i PropertiesWnd.obj
 0001:00022170       ?IsHorizontal@CBasePane@@UEBAHXZ 0000000140023170 f i PropertiesWnd.obj
 0001:00022190       ?IsRestoredFromRegistry@CBasePane@@UEBAHXZ 0000000140023190 f i PropertiesWnd.obj
 0001:000221a0       ?Load@CPropertiesWnd@CDockablePaneVI@@UEAA_NAEAVxml_node@pugi@@@Z 00000001400231a0 f   PropertiesWnd.obj
 0001:000223d0       ?LoadAttributes@CPropertiesWnd@CDockablePaneVI@@MEAAXAEAUtagITEM_VALUE@12@AEAVxml_node@pugi@@@Z 00000001400233d0 f   PropertiesWnd.obj
 0001:000228a0       ?LoadValues@CPropertiesWnd@CDockablePaneVI@@MEAAXPEAVITEM@12@AEAVxml_node@pugi@@@Z 00000001400238a0 f   PropertiesWnd.obj
 0001:00022c70       ?OnAfterDock@CPropertiesWnd@CDockablePaneVI@@MEAAXPEAVCBasePane@@PEBUtagRECT@@W4AFX_DOCK_METHOD@@@Z 0000000140023c70 f   PropertiesWnd.obj
 0001:00022ce0       ?OnAfterDockFromMiniFrame@CDockablePane@@UEAAXXZ 0000000140023ce0 f i PropertiesWnd.obj
 0001:00022d00       ?OnClose@CPropertiesWnd@CDockablePaneVI@@IEAAXXZ 0000000140023d00 f   PropertiesWnd.obj
 0001:00022d10       ?OnCreate@CPropertiesWnd@CDockablePaneVI@@IEAAHPEAUtagCREATESTRUCTW@@@Z 0000000140023d10 f   PropertiesWnd.obj
 0001:00022d60       ?OnDestroy@CPropertiesWnd@CDockablePaneVI@@IEAAXXZ 0000000140023d60 f   PropertiesWnd.obj
 0001:00022d80       ?OnSetFocus@CPropertiesWnd@CDockablePaneVI@@IEAAXPEAVCWnd@@@Z 0000000140023d80 f   PropertiesWnd.obj
 0001:00022d90       ?OnSettingChange@CPropertiesWnd@CDockablePaneVI@@IEAAXIPEB_W@Z 0000000140023d90 f   PropertiesWnd.obj
 0001:00022d90       ?OnSettingChange@CPropertiesWndProp@CDockablePaneVI@@IEAAXIPEB_W@Z 0000000140023d90 f   PropertiesWndProp.obj
 0001:00022db0       ?OnSize@CPropertiesWnd@CDockablePaneVI@@IEAAXIHH@Z 0000000140023db0 f   PropertiesWnd.obj
 0001:00022df0       ?OnTimer@CPropertiesWnd@CDockablePaneVI@@UEAAX_K@Z 0000000140023df0 f   PropertiesWnd.obj
 0001:00022e60       ?OnUpdateTimer@CPropertiesWnd@CDockablePaneVI@@UEAAXXZ 0000000140023e60 f   PropertiesWnd.obj
 0001:00022f50       ?Reload@CPropertiesWnd@CDockablePaneVI@@UEAA_NXZ 0000000140023f50 f   PropertiesWnd.obj
 0001:00022fe0       ?RemoveAllItems@CPropertiesWnd@CDockablePaneVI@@MEAAXXZ 0000000140023fe0 f   PropertiesWnd.obj
 0001:000230e0       ?Reset@ITEM@CPropertiesWnd@CDockablePaneVI@@UEAAXXZ 00000001400240e0 f   PropertiesWnd.obj
 0001:00023200       ?SetControlBarStyle@CBasePane@@UEAAXK@Z 0000000140024200 f i PropertiesWnd.obj
 0001:00023210       ?SetExclusiveRowMode@CPane@@UEAAXH@Z 0000000140024210 f i PropertiesWnd.obj
 0001:00023220       ?SetPaneAlignment@CBasePane@@UEAAXK@Z 0000000140024220 f i PropertiesWnd.obj
 0001:00023240       ?SetPaneStyle@CBasePane@@UEAAXK@Z 0000000140024240 f i PropertiesWnd.obj
 0001:00023250       ?SetPropListFont@CPropertiesWnd@CDockablePaneVI@@MEAAXXZ 0000000140024250 f   PropertiesWnd.obj
 0001:00023620       ?SetRestoredFromRegistry@CBasePane@@UEAAXH@Z 0000000140024620 f i PropertiesWnd.obj
 0001:00023630       ?SetUpdate@CPropertiesWnd@CDockablePaneVI@@MEAAHHH@Z 0000000140024630 f   PropertiesWnd.obj
 0001:00023820       ?SetUpdateAll@CPropertiesWnd@CDockablePaneVI@@MEAAHXZ 0000000140024820 f   PropertiesWnd.obj
 0001:000238c0       ?UpdateAll@CPropertiesWnd@CDockablePaneVI@@MEAAXXZ 00000001400248c0 f i PropertiesWnd.obj
 0001:000238d0       ?_Change_array@?$vector@UtagITEM_VALUE@CPropertiesWnd@CDockablePaneVI@@V?$allocator@UtagITEM_VALUE@CPropertiesWnd@CDockablePaneVI@@@std@@@std@@AEAAXQEAUtagITEM_VALUE@CPropertiesWnd@CDockablePaneVI@@_K1@Z 00000001400248d0 f i PropertiesWnd.obj
 0001:000239b0       ?_Destroy@?$vector@UtagITEM_VALUE@CPropertiesWnd@CDockablePaneVI@@V?$allocator@UtagITEM_VALUE@CPropertiesWnd@CDockablePaneVI@@@std@@@std@@AEAAXPEAUtagITEM_VALUE@CPropertiesWnd@CDockablePaneVI@@0@Z 00000001400249b0 f i PropertiesWnd.obj
 0001:000239f0       ?_Ufill@?$vector@UtagITEM_VALUE@CPropertiesWnd@CDockablePaneVI@@V?$allocator@UtagITEM_VALUE@CPropertiesWnd@CDockablePaneVI@@@std@@@std@@AEAAPEAUtagITEM_VALUE@CPropertiesWnd@CDockablePaneVI@@PEAU345@_KU_Value_init_tag@2@@Z 00000001400249f0 f i PropertiesWnd.obj
 0001:00023a60       ?_Umove@?$vector@UtagITEM_VALUE@CPropertiesWnd@CDockablePaneVI@@V?$allocator@UtagITEM_VALUE@CPropertiesWnd@CDockablePaneVI@@@std@@@std@@AEAAPEAUtagITEM_VALUE@CPropertiesWnd@CDockablePaneVI@@PEAU345@00@Z 0000000140024a60 f i PropertiesWnd.obj
 0001:00023ae0       ?_Umove_if_noexcept@?$vector@UtagITEM_VALUE@CPropertiesWnd@CDockablePaneVI@@V?$allocator@UtagITEM_VALUE@CPropertiesWnd@CDockablePaneVI@@@std@@@std@@AEAAXPEAUtagITEM_VALUE@CPropertiesWnd@CDockablePaneVI@@00@Z 0000000140024ae0 f i PropertiesWnd.obj
 0001:00023b60       ?allocate@?$allocator@H@std@@QEAAPEAH_K@Z 0000000140024b60 f i PropertiesWnd.obj
 0001:00023be0       ?allocate@?$allocator@UtagITEM_VALUE@CPropertiesWnd@CDockablePaneVI@@@std@@QEAAPEAUtagITEM_VALUE@CPropertiesWnd@CDockablePaneVI@@_K@Z 0000000140024be0 f i PropertiesWnd.obj
 0001:00023c60       ?deallocate@?$allocator@H@std@@QEAAXQEAH_K@Z 0000000140024c60 f i PropertiesWnd.obj
 0001:00023cb0       ?deallocate@?$allocator@UtagITEM_VALUE@CPropertiesWnd@CDockablePaneVI@@@std@@QEAAXQEAUtagITEM_VALUE@CPropertiesWnd@CDockablePaneVI@@_K@Z 0000000140024cb0 f i PropertiesWnd.obj
 0001:00023d00       ??$_Erase_tree@V?$allocator@U?$_Tree_node@U?$pair@$$CBKVCBrush@@@std@@PEAX@std@@@std@@@?$_Tree_val@U?$_Tree_simple_types@U?$pair@$$CBKVCBrush@@@std@@@std@@@std@@QEAAXAEAV?$allocator@U?$_Tree_node@U?$pair@$$CBKVCBrush@@@std@@PEAX@std@@@1@PEAU?$_Tree_node@U?$pair@$$CBKVCBrush@@@std@@PEAX@1@@Z 0000000140024d00 f i PropertiesWndBase.obj
 0001:00023d80       ??$_Find_hint@H@?$_Tree@V?$_Tmap_traits@HKU?$less@H@std@@V?$allocator@U?$pair@$$CBHK@std@@@2@$0A@@std@@@std@@IEBA?AU?$_Tree_find_hint_result@PEAU?$_Tree_node@U?$pair@$$CBHK@std@@PEAX@std@@@1@QEAU?$_Tree_node@U?$pair@$$CBHK@std@@PEAX@1@AEBH@Z 0000000140024d80 f i PropertiesWndBase.obj
 0001:00023fb0       ??0CPropertiesWndBase@CDockablePaneVI@@QEAA@PEAVCPropertiesPack@1@H@Z 0000000140024fb0 f   PropertiesWndBase.obj
 0001:00024060       ??1CPropertiesWndBase@CDockablePaneVI@@UEAA@XZ 0000000140025060 f   PropertiesWndBase.obj
 0001:000240c8       ??_9CPropertiesWndBase@CDockablePaneVI@@$BHLA@AA 00000001400250c8 f i PropertiesWndBase.obj
 0001:000240e0       ??_GCPropertiesWndBase@CDockablePaneVI@@UEAAPEAXI@Z 00000001400250e0 f i PropertiesWndBase.obj
 0001:000240e0       ??_ECPropertiesWndBase@CDockablePaneVI@@UEAAPEAXI@Z 00000001400250e0 f i PropertiesWndBase.obj
 0001:00024190       ?AdjustLayout@CPropertiesWndBase@CDockablePaneVI@@UEAAXXZ 0000000140025190 f   PropertiesWndBase.obj
 0001:000241f0       ?AdjustLayoutFn@CPropertiesWndBase@CDockablePaneVI@@UEAAXXZ 00000001400251f0 f   PropertiesWndBase.obj
 0001:00024280       ?AttachToTabWnd@CPropertiesWndBase@CDockablePaneVI@@UEAAPEAVCDockablePane@@PEAV3@W4AFX_DOCK_METHOD@@HPEAPEAV3@@Z 0000000140025280 f   PropertiesWndBase.obj
 0001:000242c0       ?GetFlag@CPropertiesWndBase@CDockablePaneVI@@UEAA_NPEBD@Z 00000001400252c0 f   PropertiesWndBase.obj
 0001:000243c0       ?GetLang@CPropertiesWndBase@CDockablePaneVI@@UEAAPEB_WHPEB_W@Z 00000001400253c0 f   PropertiesWndBase.obj
 0001:000243e0       ?GetLang@CPropertiesWndBase@CDockablePaneVI@@UEAAPEB_WPEB_W0@Z 00000001400253e0 f   PropertiesWndBase.obj
 0001:00024400       ?GetLangId@CPropertiesWndBase@CDockablePaneVI@@UEAAHPEB_W@Z 0000000140025400 f   PropertiesWndBase.obj
 0001:00024420       ?GetMessageMap@CPropertiesWndBase@CDockablePaneVI@@MEBAPEBUAFX_MSGMAP@@XZ 0000000140025420 f   PropertiesWndBase.obj
 0001:00024420       ?GetThisMessageMap@CPropertiesWndBase@CDockablePaneVI@@KAPEBUAFX_MSGMAP@@XZ 0000000140025420 f   PropertiesWndBase.obj
 0001:00024430       ?GetThisClass@CPropertiesWndBase@CDockablePaneVI@@SAPEAUCRuntimeClass@@XZ 0000000140025430 f   PropertiesWndBase.obj
 0001:00024430       ?GetRuntimeClass@CPropertiesWndBase@CDockablePaneVI@@UEBAPEAUCRuntimeClass@@XZ 0000000140025430 f   PropertiesWndBase.obj
 0001:00024440       ?GetWndBrush@CPropertiesWndBase@CDockablePaneVI@@UEAAPEAVCBrush@@H@Z 0000000140025440 f   PropertiesWndBase.obj
 0001:00024470       ?GetWndBrushColor@CPropertiesWndBase@CDockablePaneVI@@UEAAPEAVCBrush@@K@Z 0000000140025470 f   PropertiesWndBase.obj
 0001:00024590       ?GetWndColor@CPropertiesWndBase@CDockablePaneVI@@UEAAKH@Z 0000000140025590 f   PropertiesWndBase.obj
 0001:00024910       ?Load@CPropertiesWndBase@CDockablePaneVI@@UEAA_NAEAVxml_node@pugi@@@Z 0000000140025910 f   PropertiesWndBase.obj
 0001:00024a50       ?LoadState@CPropertiesWndBase@CDockablePaneVI@@UEAAHPEB_WHI@Z 0000000140025a50 f   PropertiesWndBase.obj
 0001:00024ab0       ?OnEraseBkgnd@CPropertiesWndBase@CDockablePaneVI@@QEAAHPEAVCDC@@@Z 0000000140025ab0 f   PropertiesWndBase.obj
 0001:00024ac0       ?OnShowWindow@CPropertiesWndBase@CDockablePaneVI@@UEAAXHI@Z 0000000140025ac0 f   PropertiesWndBase.obj
 0001:00024af0       ?OnTimer@CPropertiesWndBase@CDockablePaneVI@@UEAAX_K@Z 0000000140025af0 f   PropertiesWndBase.obj
 0001:00024b20       ?OnUpdateTitle@CPropertiesWndBase@CDockablePaneVI@@UEAAX_N@Z 0000000140025b20 f   PropertiesWndBase.obj
 0001:00024d50       ?SaveState@CPropertiesWndBase@CDockablePaneVI@@UEAAHPEB_WHI@Z 0000000140025d50 f   PropertiesWndBase.obj
 0001:00024db0       ?SetTabIconOnly@CPropertiesWndBase@CDockablePaneVI@@UEAAXH@Z 0000000140025db0 f   PropertiesWndBase.obj
 0001:00024e90       ?_GetBaseClass@CPropertiesWndBase@CDockablePaneVI@@KAPEAUCRuntimeClass@@XZ 0000000140025e90 f   PropertiesWndBase.obj
 0001:00024ea0       ??$_Destroy_range@V?$allocator@V?$shared_ptr@VCButton@@@std@@@std@@@std@@YAXPEAV?$shared_ptr@VCButton@@@0@QEAV10@AEAV?$allocator@V?$shared_ptr@VCButton@@@std@@@0@@Z 0000000140025ea0 f i PropertiesWndProp.obj
 0001:00024f20       ??$_Emplace_reallocate@V?$shared_ptr@VCButton@@@std@@@?$vector@V?$shared_ptr@VCButton@@@std@@V?$allocator@V?$shared_ptr@VCButton@@@std@@@2@@std@@QEAAPEAV?$shared_ptr@VCButton@@@1@QEAV21@$$QEAV21@@Z 0000000140025f20 f i PropertiesWndProp.obj
 0001:00025160       ??0CPropertiesWndProp@CDockablePaneVI@@QEAA@PEAVCPropertiesPack@1@H@Z 0000000140026160 f   PropertiesWndProp.obj
 0001:00025230       ??1?$vector@V?$shared_ptr@VCButton@@@std@@V?$allocator@V?$shared_ptr@VCButton@@@std@@@2@@std@@QEAA@XZ 0000000140026230 f i PropertiesWndProp.obj
 0001:000252a0       ??1CPropertiesWndProp@CDockablePaneVI@@UEAA@XZ 00000001400262a0 f   PropertiesWndProp.obj
 0001:00025310       ??1CRgn@@UEAA@XZ           0000000140026310 f i PropertiesWndProp.obj
 0001:00025320       ??_9CPropertiesWndProp@CDockablePaneVI@@$BIII@AA 0000000140026320 f i PropertiesWndProp.obj
 0001:00025330       ??_G?$_Ref_count_obj@VCButton@@@std@@UEAAPEAXI@Z 0000000140026330 f i PropertiesWndProp.obj
 0001:00025330       ??_E?$_Ref_count_obj@VCButton@@@std@@UEAAPEAXI@Z 0000000140026330 f i PropertiesWndProp.obj
 0001:00025360       ??_ECButton@@UEAAPEAXI@Z   0000000140026360 f i PropertiesWndProp.obj
 0001:00025360       ??_GCButton@@UEAAPEAXI@Z   0000000140026360 f i PropertiesWndProp.obj
 0001:000253b0       ??_ECPropertiesWndProp@CDockablePaneVI@@UEAAPEAXI@Z 00000001400263b0 f i PropertiesWndProp.obj
 0001:000253b0       ??_GCPropertiesWndProp@CDockablePaneVI@@UEAAPEAXI@Z 00000001400263b0 f i PropertiesWndProp.obj
 0001:00025460       ??_GCRgn@@UEAAPEAXI@Z      0000000140026460 f i PropertiesWndProp.obj
 0001:00025460       ??_ECRgn@@UEAAPEAXI@Z      0000000140026460 f i PropertiesWndProp.obj
 0001:000254c0       ??_GCTRL@CPropertiesWndProp@CDockablePaneVI@@UEAAPEAXI@Z 00000001400264c0 f i PropertiesWndProp.obj
 0001:000254c0       ??_ECTRL@CPropertiesWndProp@CDockablePaneVI@@UEAAPEAXI@Z 00000001400264c0 f i PropertiesWndProp.obj
 0001:00025520       ??_EITEM_PROP@CPropertiesWndProp@CDockablePaneVI@@UEAAPEAXI@Z 0000000140026520 f i PropertiesWndProp.obj
 0001:00025520       ??_GITEM_PROP@CPropertiesWndProp@CDockablePaneVI@@UEAAPEAXI@Z 0000000140026520 f i PropertiesWndProp.obj
 0001:00025580       ?AddItem@CPropertiesWndProp@CDockablePaneVI@@UEAAPEAVITEM@CPropertiesWnd@2@PEAV342@AEAVxml_node@pugi@@@Z 0000000140026580 f   PropertiesWndProp.obj
 0001:000258e0       ?AdjustLayout@CPropertiesWndProp@CDockablePaneVI@@UEAAXXZ 00000001400268e0 f   PropertiesWndProp.obj
 0001:000258f0       ?AdjustLayoutFn@CPropertiesWndProp@CDockablePaneVI@@UEAAXXZ 00000001400268f0 f   PropertiesWndProp.obj
 0001:00025c10       ?CompareProps@CTRL@CPropertiesWndProp@CDockablePaneVI@@UEBAHPEBVCMFCPropertyGridProperty@@0@Z 0000000140026c10 f   PropertiesWndProp.obj
 0001:00025d00       ?Create@CTRL@CPropertiesWndProp@CDockablePaneVI@@UEAAHKAEBUtagRECT@@PEAVCWnd@@I@Z 0000000140026d00 f   PropertiesWndProp.obj
 0001:00025e10       ?CreateItem@CPropertiesWndProp@CDockablePaneVI@@UEAAPEAVITEM@CPropertiesWnd@2@PEAV42@PEAV342@AEAVxml_node@pugi@@@Z 0000000140026e10 f   PropertiesWndProp.obj
 0001:00025f00       ?CreateItem@CPropertiesWndProp@CDockablePaneVI@@UEAAPEAVITEM@CPropertiesWnd@2@PEAV42@PEAV342@AEBV?$CStringT@DV?$StrTraitMFC_DLL@DV?$ChTraitsCRT@D@ATL@@@@@ATL@@AEAVxml_node@pugi@@@Z 0000000140026f00 f   PropertiesWndProp.obj
 0001:00026940       ?EditItem@CTRL@CPropertiesWndProp@CDockablePaneVI@@UEAAHPEAVCMFCPropertyGridProperty@@PEAUtagPOINT@@@Z 0000000140027940 f   PropertiesWndProp.obj
 0001:000269f0       ?EditNext@CTRL@CPropertiesWndProp@CDockablePaneVI@@UEAAHH@Z 00000001400279f0 f   PropertiesWndProp.obj
 0001:00026a40       ?EndEditItem@CTRL@CPropertiesWndProp@CDockablePaneVI@@UEAAHH@Z 0000000140027a40 f   PropertiesWndProp.obj
 0001:00026ae0       ?FormatProperty@ITEM_PROP@CPropertiesWndProp@CDockablePaneVI@@UEAA?AV?$CStringT@_WV?$StrTraitMFC_DLL@_WV?$ChTraitsCRT@_W@ATL@@@@@ATL@@XZ 0000000140027ae0 f   PropertiesWndProp.obj
 0001:00026c90       ?GetHeaderCtrl@CMFCPropertyGridCtrl@@UEAAAEAVCMFCHeaderCtrl@@XZ 0000000140027c90 f i PropertiesWndProp.obj
 0001:00026ca0       ?GetMessageMap@CPropertiesWndProp@CDockablePaneVI@@MEBAPEBUAFX_MSGMAP@@XZ 0000000140027ca0 f   PropertiesWndProp.obj
 0001:00026dd0       ?GetThisMessageMap@CPropertiesWndProp@CDockablePaneVI@@KAPEBUAFX_MSGMAP@@XZ 0000000140027dd0 f   PropertiesWndProp.obj
 0001:00026e40       ?GetValue@CMFCPropertyGridProperty@@UEBAAEBVCOleVariant@@XZ 0000000140027e40 f i PropertiesWndProp.obj
 0001:00026e50       ?HasButton@ITEM_PROP@CPropertiesWndProp@CDockablePaneVI@@UEBAHXZ 0000000140027e50 f i PropertiesWndProp.obj
 0001:00026ea0       ?InitPropList@CPropertiesWndProp@CDockablePaneVI@@MEAAXXZ 0000000140027ea0 f   PropertiesWndProp.obj
 0001:00026f50       ?IsSelectedEx@CPropertiesWndProp@CDockablePaneVI@@UEAAHPEAVITEM@CPropertiesWnd@2@@Z 0000000140027f50 f   PropertiesWndProp.obj
 0001:00027260       ?IsSelectedEx@ITEM_PROP@CPropertiesWndProp@CDockablePaneVI@@UEBAHXZ 0000000140028260 f   PropertiesWndProp.obj
 0001:00027280       ?Load@CPropertiesWndProp@CDockablePaneVI@@UEAA_NAEAVxml_node@pugi@@@Z 0000000140028280 f   PropertiesWndProp.obj
 0001:00027830       ?OnChangeSelection@CTRL@CPropertiesWndProp@CDockablePaneVI@@UEAAXPEAVCMFCPropertyGridProperty@@0@Z 0000000140028830 f i PropertiesWndProp.obj
 0001:00027850       ?OnClickButton@CPropertiesWndProp@CDockablePaneVI@@UEAA_NPEAVITEM@CPropertiesWnd@2@@Z 0000000140028850 f   PropertiesWndProp.obj
 0001:00027b80       ?OnClickButton@ITEM_PROP@CPropertiesWndProp@CDockablePaneVI@@UEAAXVCPoint@@@Z 0000000140028b80 f   PropertiesWndProp.obj
 0001:00027bd0       ?OnClickName@ITEM_PROP@CPropertiesWndProp@CDockablePaneVI@@UEAAXVCPoint@@@Z 0000000140028bd0 f   PropertiesWndProp.obj
 0001:00027bf0       ?OnClickValue@ITEM_PROP@CPropertiesWndProp@CDockablePaneVI@@UEAAHIVCPoint@@@Z 0000000140028bf0 f   PropertiesWndProp.obj
 0001:00027c60       ?OnCreate@CPropertiesWndProp@CDockablePaneVI@@IEAAHPEAUtagCREATESTRUCTW@@@Z 0000000140028c60 f   PropertiesWndProp.obj
 0001:00027d30       ?OnDblClk@ITEM_PROP@CPropertiesWndProp@CDockablePaneVI@@UEAAHVCPoint@@@Z 0000000140028d30 f   PropertiesWndProp.obj
 0001:00027d90       ?OnDestroy@CPropertiesWndProp@CDockablePaneVI@@QEAAXXZ 0000000140028d90 f   PropertiesWndProp.obj
 0001:00027dc0       ?OnDrawButton@ITEM_PROP@CPropertiesWndProp@CDockablePaneVI@@UEAAXPEAVCDC@@VCRect@@@Z 0000000140028dc0 f   PropertiesWndProp.obj
 0001:00027de0       ?OnDrawName@ITEM_PROP@CPropertiesWndProp@CDockablePaneVI@@UEAAXPEAVCDC@@VCRect@@@Z 0000000140028de0 f   PropertiesWndProp.obj
 0001:00028120       ?OnDrawProperty@CTRL@CPropertiesWndProp@CDockablePaneVI@@UEBAHPEAVCDC@@PEAVCMFCPropertyGridProperty@@@Z 0000000140029120 f   PropertiesWndProp.obj
 0001:00028690       ?OnDrawValue@ITEM_PROP@CPropertiesWndProp@CDockablePaneVI@@UEAAXPEAVCDC@@VCRect@@@Z 0000000140029690 f   PropertiesWndProp.obj
 0001:00028910       ?OnExpandAllProperties@CPropertiesWndProp@CDockablePaneVI@@IEAAXXZ 0000000140029910 f   PropertiesWndProp.obj
 0001:00028930       ?OnHScroll@CPropertiesWndProp@CDockablePaneVI@@QEAAXIIPEAVCScrollBar@@@Z 0000000140029930 f   PropertiesWndProp.obj
 0001:00028a20       ?OnPropertyChanged@CPropertiesWndProp@CDockablePaneVI@@UEAA_J_K_J@Z 0000000140029a20 f   PropertiesWndProp.obj
 0001:00028a40       ?OnSetFocus@CPropertiesWndProp@CDockablePaneVI@@IEAAXPEAVCWnd@@@Z 0000000140029a40 f   PropertiesWndProp.obj
 0001:00028a60       ?OnSortProperties@CPropertiesWndProp@CDockablePaneVI@@IEAAXXZ 0000000140029a60 f   PropertiesWndProp.obj
 0001:00028a80       ?OnUpdateSortProperties@CPropertiesWndProp@CDockablePaneVI@@IEAAXPEAVCCmdUI@@@Z 0000000140029a80 f   PropertiesWndProp.obj
 0001:00028aa0       ?OnUpdateTimer@CPropertiesWndProp@CDockablePaneVI@@MEAAXXZ 0000000140029aa0 f   PropertiesWndProp.obj
 0001:00028b00       ?RegSave@CPropertiesWndProp@CDockablePaneVI@@QEAAXPEAVITEM@CPropertiesWnd@2@@Z 0000000140029b00 f   PropertiesWndProp.obj
 0001:00028ca0       ?RegSave@CPropertiesWndProp@CDockablePaneVI@@QEAAXXZ 0000000140029ca0 f   PropertiesWndProp.obj
 0001:00028d20       ?Reload@CPropertiesWndProp@CDockablePaneVI@@UEAA_NXZ 0000000140029d20 f   PropertiesWndProp.obj
 0001:00028dc0       ?RemoveAllItems@CPropertiesWndProp@CDockablePaneVI@@UEAAXXZ 0000000140029dc0 f   PropertiesWndProp.obj
 0001:00028e10       ?SetPropListFont@CPropertiesWndProp@CDockablePaneVI@@MEAAXXZ 0000000140029e10 f   PropertiesWndProp.obj
 0001:00028e50       ?SetVSDotNetLook@CPropertiesWndProp@CDockablePaneVI@@UEAAXH@Z 0000000140029e50 f i PropertiesWndProp.obj
 0001:00028e90       ?UpdateColor@CPropertiesWndProp@CDockablePaneVI@@UEAAXPEAVITEM@CPropertiesWnd@2@@Z 0000000140029e90 f   PropertiesWndProp.obj
 0001:00028f70       ?UpdateValue@CPropertiesWndProp@CDockablePaneVI@@UEAA_NPEAVITEM@CPropertiesWnd@2@_N1@Z 0000000140029f70 f   PropertiesWndProp.obj
 0001:000291e0       ?Var2Variant@@YA?AVCOleVariant@@HG@Z 000000014002a1e0 f i PropertiesWndProp.obj
 0001:00029330       ?Var2Variant@@YA?AVCOleVariant@@_JG@Z 000000014002a330 f i PropertiesWndProp.obj
 0001:00029480       ?Variant2Variant@@YA?AVCOleVariant@@AEBV1@0@Z 000000014002a480 f i PropertiesWndProp.obj
 0001:000298c0       ?_Destroy@?$_Ref_count_obj@VCButton@@@std@@EEAAXXZ 000000014002a8c0 f i PropertiesWndProp.obj
 0001:000298c0       ?_Destroy@?$_Ref_count_obj@VCColorProcress@@@std@@EEAAXXZ 000000014002a8c0 f i VibraimageExAIV.obj
 0001:000298d0       ?_Destroy@?$vector@V?$shared_ptr@VCButton@@@std@@V?$allocator@V?$shared_ptr@VCButton@@@std@@@2@@std@@AEAAXPEAV?$shared_ptr@VCButton@@@2@0@Z 000000014002a8d0 f i PropertiesWndProp.obj
 0001:000298f0       ?_Umove@?$vector@V?$shared_ptr@VCButton@@@std@@V?$allocator@V?$shared_ptr@VCButton@@@std@@@2@@std@@AEAAPEAV?$shared_ptr@VCButton@@@2@PEAV32@00@Z 000000014002a8f0 f i PropertiesWndProp.obj
 0001:00029960       ?deallocate@?$allocator@V?$shared_ptr@VCButton@@@std@@@std@@QEAAXQEAV?$shared_ptr@VCButton@@@2@_K@Z 000000014002a960 f i PropertiesWndProp.obj
 0001:000299b0       ??1CPwdDlg@@UEAA@XZ        000000014002a9b0 f   PwdDlg.obj
 0001:00029a10       ??_GCPwdDlg@@UEAAPEAXI@Z   000000014002aa10 f i PwdDlg.obj
 0001:00029a10       ??_ECPwdDlg@@UEAAPEAXI@Z   000000014002aa10 f i PwdDlg.obj
 0001:00029ab0       ?Check@CPwdDlg@@SA_NH@Z    000000014002aab0 f   PwdDlg.obj
 0001:00029be0       ?DoDataExchange@CPwdDlg@@MEAAXPEAVCDataExchange@@@Z 000000014002abe0 f   PwdDlg.obj
 0001:00029c00       ?GetMessageMap@CPwdDlg@@MEBAPEBUAFX_MSGMAP@@XZ 000000014002ac00 f   PwdDlg.obj
 0001:00029c10       ?GetRuntimeClass@CPwdDlg@@UEBAPEAUCRuntimeClass@@XZ 000000014002ac10 f   PwdDlg.obj
 0001:00029c20       ?OnBnClickedOk@CPwdDlg@@QEAAXXZ 000000014002ac20 f   PwdDlg.obj
 0001:00029cf0       ?OnInitDialog@CPwdDlg@@UEAAHXZ 000000014002acf0 f   PwdDlg.obj
 0001:00029d10       ??0CPwdDlg2@@QEAA@HPEAVCWnd@@@Z 000000014002ad10 f   PwdDlg2.obj
 0001:00029da0       ??1CPwdDlg2@@UEAA@XZ       000000014002ada0 f   PwdDlg2.obj
 0001:00029e20       ??_GCPwdDlg2@@UEAAPEAXI@Z  000000014002ae20 f i PwdDlg2.obj
 0001:00029e20       ??_ECPwdDlg2@@UEAAPEAXI@Z  000000014002ae20 f i PwdDlg2.obj
 0001:00029ee0       ?Check@CPwdDlg2@@QEAAXXZ   000000014002aee0 f   PwdDlg2.obj
 0001:00029fb0       ?DoDataExchange@CPwdDlg2@@MEAAXPEAVCDataExchange@@@Z 000000014002afb0 f   PwdDlg2.obj
 0001:0002a010       ?GetMessageMap@CPwdDlg2@@MEBAPEBUAFX_MSGMAP@@XZ 000000014002b010 f   PwdDlg2.obj
 0001:0002a020       ?GetRuntimeClass@CPwdDlg2@@UEBAPEAUCRuntimeClass@@XZ 000000014002b020 f   PwdDlg2.obj
 0001:0002a030       ?OnBnClickedOk@CPwdDlg2@@QEAAXXZ 000000014002b030 f   PwdDlg2.obj
 0001:0002a0c0       ?OnEnChangeEditPwd2@CPwdDlg2@@QEAAXXZ 000000014002b0c0 f   PwdDlg2.obj
 0001:0002a0c0       ?OnEnChangeEditPwd3@CPwdDlg2@@QEAAXXZ 000000014002b0c0 f   PwdDlg2.obj
 0001:0002a0d0       ?OnEnChangeEditPwd@CPwdDlg2@@QEAAXXZ 000000014002b0d0 f   PwdDlg2.obj
 0001:0002a160       ?OnInitDialog@CPwdDlg2@@UEAAHXZ 000000014002b160 f   PwdDlg2.obj
 0001:0002a320       ??0CUserIdDlg@@QEAA@PEAVCWnd@@@Z 000000014002b320 f   UserIdDlg.obj
 0001:0002a370       ??1CUserIdDlg@@UEAA@XZ     000000014002b370 f   UserIdDlg.obj
 0001:0002a3c0       ??_ECUserIdDlg@@UEAAPEAXI@Z 000000014002b3c0 f i UserIdDlg.obj
 0001:0002a3c0       ??_GCUserIdDlg@@UEAAPEAXI@Z 000000014002b3c0 f i UserIdDlg.obj
 0001:0002a450       ?DoDataExchange@CUserIdDlg@@MEAAXPEAVCDataExchange@@@Z 000000014002b450 f   UserIdDlg.obj
 0001:0002a470       ?GetMessageMap@CUserIdDlg@@MEBAPEBUAFX_MSGMAP@@XZ 000000014002b470 f   UserIdDlg.obj
 0001:0002a480       ?GetRuntimeClass@CUserIdDlg@@UEBAPEAUCRuntimeClass@@XZ 000000014002b480 f   UserIdDlg.obj
 0001:0002a490       ?OnBnClickedOk@CUserIdDlg@@QEAAXXZ 000000014002b490 f   UserIdDlg.obj
 0001:0002a4f0       ?OnEnChangeEditId@CUserIdDlg@@QEAAXXZ 000000014002b4f0 f   UserIdDlg.obj
 0001:0002a540       ?OnInitDialog@CUserIdDlg@@UEAAHXZ 000000014002b540 f   UserIdDlg.obj
 0001:0002a59c       ??_ECVibraimageExApp@@WCCI@EAAPEAXI@Z 000000014002b59c f i VibraimageEx.obj
 0001:0002a5b0       ?OnNewVar@CVibraimageExApp@@UEAAXHH@Z 000000014002b5b0 f   VibraimageEx.obj
 0001:0002a6f0       ?InitInstance@CVibraimageExApp@@UEAAHXZ 000000014002b6f0 f   VibraimageEx.obj
 0001:0002b010       ?ExitInstance@CVibraimageExApp@@UEAAHXZ 000000014002c010 f   VibraimageEx.obj
 0001:0002b200       ?PreLoadState@CVibraimageExApp@@UEAAXXZ 000000014002c200 f   VibraimageEx.obj
 0001:0002b250       ?SaveCustomState@CVibraimageExApp@@UEAAXXZ 000000014002c250 f   VibraimageEx.obj
 0001:0002b260       ?StoreWindowPlacement@CVibraimageExApp@@UEAAHAEBVCRect@@HH@Z 000000014002c260 f   VibraimageEx.obj
 0001:0002b2c0       ?LoadWindowPlacement@CVibraimageExApp@@UEAAHAEAVCRect@@AEAH1@Z 000000014002c2c0 f   VibraimageEx.obj
 0001:0002b2d0       ?WriteProfileInt@CVibraimageExApp@@UEAAHPEB_W0H@Z 000000014002c2d0 f   VibraimageEx.obj
 0001:0002b360       ?WriteProfileStringW@CVibraimageExApp@@UEAAHPEB_W00@Z 000000014002c360 f   VibraimageEx.obj
 0001:0002b3f0       ?WriteProfileBinary@CVibraimageExApp@@UEAAHPEB_W0PEAEI@Z 000000014002c3f0 f   VibraimageEx.obj
 0001:0002b480       ?GetMessageMap@CVibraimageExApp@@MEBAPEBUAFX_MSGMAP@@XZ 000000014002c480 f   VibraimageEx.obj
 0001:0002b490       ?PreTranslateMessage@CVibraimageExApp@@UEAAHPEAUtagMSG@@@Z 000000014002c490 f   VibraimageEx.obj
 0001:0002b4e0       ?SaveState@CVibraimageExApp@@UEAAHPEB_WPEAVCFrameImpl@@@Z 000000014002c4e0 f   VibraimageEx.obj
 0001:0002b540       ?LoadState@CVibraimageExApp@@UEAAHPEB_WPEAVCFrameImpl@@@Z 000000014002c540 f   VibraimageEx.obj
 0001:0002b560       ??_GCVibraimageExApp@@UEAAPEAXI@Z 000000014002c560 f i VibraimageEx.obj
 0001:0002b560       ??_ECVibraimageExApp@@UEAAPEAXI@Z 000000014002c560 f i VibraimageEx.obj
 0001:0002b5b0       ??$_Emplace_reallocate@PEAVView@CVibraimageExOverview@@@?$vector@PEAVView@CVibraimageExOverview@@V?$allocator@PEAVView@CVibraimageExOverview@@@std@@@std@@QEAAPEAPEAVView@CVibraimageExOverview@@QEAPEAV23@$$QEAPEAV23@@Z 000000014002c5b0 f i VibraimageExOverview.obj
 0001:0002b5b0       ??$_Emplace_reallocate@AEBQEAUtagENGINE_PACK@CVibraimageExApp@@@?$vector@PEAUtagENGINE_PACK@CVibraimageExApp@@V?$allocator@PEAUtagENGINE_PACK@CVibraimageExApp@@@std@@@std@@QEAAPEAPEAUtagENGINE_PACK@CVibraimageExApp@@QEAPEAU23@AEBQEAU23@@Z 000000014002c5b0 f i VibraimageEx.obj
 0001:0002b6b0       ??$_Erase_tree@V?$allocator@U?$_Tree_node@U?$pair@$$CBHV?$CStringT@_WV?$StrTraitMFC_DLL@_WV?$ChTraitsCRT@_W@ATL@@@@@ATL@@@std@@PEAX@std@@@std@@@?$_Tree_val@U?$_Tree_simple_types@U?$pair@$$CBHV?$CStringT@_WV?$StrTraitMFC_DLL@_WV?$ChTraitsCRT@_W@ATL@@@@@ATL@@@std@@@std@@@std@@QEAAXAEAV?$allocator@U?$_Tree_node@U?$pair@$$CBHV?$CStringT@_WV?$StrTraitMFC_DLL@_WV?$ChTraitsCRT@_W@ATL@@@@@ATL@@@std@@PEAX@std@@@1@PEAU?$_Tree_node@U?$pair@$$CBHV?$CStringT@_WV?$StrTraitMFC_DLL@_WV?$ChTraitsCRT@_W@ATL@@@@@ATL@@@std@@PEAX@1@@Z 000000014002c6b0 f i VibraimageEx.obj
 0001:0002b730       ??$_Erase_tree@V?$allocator@U?$_Tree_node@U?$pair@$$CBHV?$map@V?$CStringT@DV?$StrTraitMFC_DLL@DV?$ChTraitsCRT@D@ATL@@@@@ATL@@HU?$less@V?$CStringT@DV?$StrTraitMFC_DLL@DV?$ChTraitsCRT@D@ATL@@@@@ATL@@@std@@V?$allocator@U?$pair@$$CBV?$CStringT@DV?$StrTraitMFC_DLL@DV?$ChTraitsCRT@D@ATL@@@@@ATL@@H@std@@@4@@std@@@std@@PEAX@std@@@std@@@?$_Tree_val@U?$_Tree_simple_types@U?$pair@$$CBHV?$map@V?$CStringT@DV?$StrTraitMFC_DLL@DV?$ChTraitsCRT@D@ATL@@@@@ATL@@HU?$less@V?$CStringT@DV?$StrTraitMFC_DLL@DV?$ChTraitsCRT@D@ATL@@@@@ATL@@@std@@V?$allocator@U?$pair@$$CBV?$CStringT@DV?$StrTraitMFC_DLL@DV?$ChTraitsCRT@D@ATL@@@@@ATL@@H@std@@@4@@std@@@std@@@std@@@std@@QEAAXAEAV?$allocator@U?$_Tree_node@U?$pair@$$CBHV?$map@V?$CStringT@DV?$StrTraitMFC_DLL@DV?$ChTraitsCRT@D@ATL@@@@@ATL@@HU?$less@V?$CStringT@DV?$StrTraitMFC_DLL@DV?$ChTraitsCRT@D@ATL@@@@@ATL@@@std@@V?$allocator@U?$pair@$$CBV?$CStringT@DV?$StrTraitMFC_DLL@DV?$ChTraitsCRT@D@ATL@@@@@ATL@@H@std@@@4@@std@@@std@@PEAX@std@@@1@PEAU?$_Tree_node@U?$pair@$$CBHV?$map@V?$CStringT@DV?$StrTraitMFC_DLL@DV?$ChTraitsCRT@D@ATL@@@@@ATL@@HU?$less@V?$CStringT@DV?$StrTraitMFC_DLL@DV?$ChTraitsCRT@D@ATL@@@@@ATL@@@std@@V?$allocator@U?$pair@$$CBV?$CStringT@DV?$StrTraitMFC_DLL@DV?$ChTraitsCRT@D@ATL@@@@@ATL@@H@std@@@4@@std@@@std@@PEAX@1@@Z 000000014002c730 f i VibraimageEx.obj
 0001:0002b7d0       ??0?$basic_string@_WU?$char_traits@_W@std@@V?$allocator@_W@2@@std@@QEAA@_K_W@Z 000000014002c7d0 f i VibraimageEx.obj
 0001:0002b8b0       ??0CVibraimageExApp@@QEAA@XZ 000000014002c8b0 f   VibraimageEx.obj
 0001:0002bb20       ??0_TAG_VI_FRAME@@QEAA@XZ  000000014002cb20 f i VibraimageEx.obj
 0001:0002dee0       ??0exception@std@@QEAA@QEBD@Z 000000014002eee0 f i VibraimageEx.obj
 0001:0002df20       ??1?$map@HV?$map@V?$CStringT@DV?$StrTraitMFC_DLL@DV?$ChTraitsCRT@D@ATL@@@@@ATL@@HU?$less@V?$CStringT@DV?$StrTraitMFC_DLL@DV?$ChTraitsCRT@D@ATL@@@@@ATL@@@std@@V?$allocator@U?$pair@$$CBV?$CStringT@DV?$StrTraitMFC_DLL@DV?$ChTraitsCRT@D@ATL@@@@@ATL@@H@std@@@4@@std@@U?$less@H@2@V?$allocator@U?$pair@$$CBHV?$map@V?$CStringT@DV?$StrTraitMFC_DLL@DV?$ChTraitsCRT@D@ATL@@@@@ATL@@HU?$less@V?$CStringT@DV?$StrTraitMFC_DLL@DV?$ChTraitsCRT@D@ATL@@@@@ATL@@@std@@V?$allocator@U?$pair@$$CBV?$CStringT@DV?$StrTraitMFC_DLL@DV?$ChTraitsCRT@D@ATL@@@@@ATL@@H@std@@@4@@std@@@std@@@2@@std@@QEAA@XZ 000000014002ef20 f i VibraimageEx.obj
 0001:0002df50       ??1CSplashScreen@@QEAA@XZ  000000014002ef50 f i VibraimageEx.obj
 0001:0002df80       ??1CSplashScreenLock@@QEAA@XZ 000000014002ef80 f i VibraimageEx.obj
 0001:0002dfc0       ??1CVibraimageExApp@@UEAA@XZ 000000014002efc0 f i VibraimageEx.obj
 0001:0002e0f0       ??1_bstr_t@@QEAA@XZ        000000014002f0f0 f i VibraimageEx.obj
 0001:0002e100       ??1recursive_mutex@std@@QEAA@XZ 000000014002f100 f i VibraimageEx.obj
 0001:0002e110       ??A?$map@HV?$CStringT@_WV?$StrTraitMFC_DLL@_WV?$ChTraitsCRT@_W@ATL@@@@@ATL@@U?$less@H@std@@V?$allocator@U?$pair@$$CBHV?$CStringT@_WV?$StrTraitMFC_DLL@_WV?$ChTraitsCRT@_W@ATL@@@@@ATL@@@std@@@4@@std@@QEAAAEAV?$CStringT@_WV?$StrTraitMFC_DLL@_WV?$ChTraitsCRT@_W@ATL@@@@@ATL@@$$QEAH@Z 000000014002f110 f i VibraimageEx.obj
 0001:0002e210       ??A?$map@HV?$map@V?$CStringT@DV?$StrTraitMFC_DLL@DV?$ChTraitsCRT@D@ATL@@@@@ATL@@HU?$less@V?$CStringT@DV?$StrTraitMFC_DLL@DV?$ChTraitsCRT@D@ATL@@@@@ATL@@@std@@V?$allocator@U?$pair@$$CBV?$CStringT@DV?$StrTraitMFC_DLL@DV?$ChTraitsCRT@D@ATL@@@@@ATL@@H@std@@@4@@std@@U?$less@H@2@V?$allocator@U?$pair@$$CBHV?$map@V?$CStringT@DV?$StrTraitMFC_DLL@DV?$ChTraitsCRT@D@ATL@@@@@ATL@@HU?$less@V?$CStringT@DV?$StrTraitMFC_DLL@DV?$ChTraitsCRT@D@ATL@@@@@ATL@@@std@@V?$allocator@U?$pair@$$CBV?$CStringT@DV?$StrTraitMFC_DLL@DV?$ChTraitsCRT@D@ATL@@@@@ATL@@H@std@@@4@@std@@@std@@@2@@std@@QEAAAEAV?$map@V?$CStringT@DV?$StrTraitMFC_DLL@DV?$ChTraitsCRT@D@ATL@@@@@ATL@@HU?$less@V?$CStringT@DV?$StrTraitMFC_DLL@DV?$ChTraitsCRT@D@ATL@@@@@ATL@@@std@@V?$allocator@U?$pair@$$CBV?$CStringT@DV?$StrTraitMFC_DLL@DV?$ChTraitsCRT@D@ATL@@@@@ATL@@H@std@@@4@@1@AEBH@Z 000000014002f210 f i VibraimageEx.obj
 0001:0002e340       ??A?$map@V?$CStringT@DV?$StrTraitMFC_DLL@DV?$ChTraitsCRT@D@ATL@@@@@ATL@@HU?$less@V?$CStringT@DV?$StrTraitMFC_DLL@DV?$ChTraitsCRT@D@ATL@@@@@ATL@@@std@@V?$allocator@U?$pair@$$CBV?$CStringT@DV?$StrTraitMFC_DLL@DV?$ChTraitsCRT@D@ATL@@@@@ATL@@H@std@@@4@@std@@QEAAAEAHAEBV?$CStringT@DV?$StrTraitMFC_DLL@DV?$ChTraitsCRT@D@ATL@@@@@ATL@@@Z 000000014002f340 f i VibraimageEx.obj
 0001:0002e470       ??H@YA?AV_bstr_t@@PEB_WAEBV0@@Z 000000014002f470 f i VibraimageEx.obj
 0001:0002e520       ??Y_bstr_t@@QEAAAEAV0@AEBV0@@Z 000000014002f520 f i VibraimageEx.obj
 0001:0002e680       ??_E?$_Ref_count_obj@VCViFTPStorage@@@std@@UEAAPEAXI@Z 000000014002f680 f i VibraimageEx.obj
 0001:0002e680       ??_G?$_Ref_count_obj@VCViFTPStorage@@@std@@UEAAPEAXI@Z 000000014002f680 f i VibraimageEx.obj
 0001:0002e6b0       ??_G?$_Ref_count_obj@VCViLogStorage@@@std@@UEAAPEAXI@Z 000000014002f6b0 f i VibraimageEx.obj
 0001:0002e6b0       ??_E?$_Ref_count_obj@VCViLogStorage@@@std@@UEAAPEAXI@Z 000000014002f6b0 f i VibraimageEx.obj
 0001:0002e6e0       ??_G?$_Ref_count_obj@VCVideoCheck@@@std@@UEAAPEAXI@Z 000000014002f6e0 f i VibraimageEx.obj
 0001:0002e6e0       ??_E?$_Ref_count_obj@VCVideoCheck@@@std@@UEAAPEAXI@Z 000000014002f6e0 f i VibraimageEx.obj
 0001:0002e710       ?CanLoadState@CVibraimageExApp@@QEAA_NXZ 000000014002f710 f   VibraimageEx.obj
 0001:0002e720       ?CanSaveState@CVibraimageExApp@@QEAA_NXZ 000000014002f720 f   VibraimageEx.obj
 0001:0002e7a0       ?CheckExcelVersion@CVibraimageExApp@@QEAA_NXZ 000000014002f7a0 f   VibraimageEx.obj
 0001:0002e9b0       ?CleanSlateVI@CVibraimageExApp@@QEAAXXZ 000000014002f9b0 f   VibraimageEx.obj
 0001:0002ec90       ?FileExists@CVibraimageExApp@@QEAAHPEB_W@Z 000000014002fc90 f   VibraimageEx.obj
 0001:0002ecc0       ?GetProductAndVersion@CVibraimageExApp@@QEAA_NAEAV?$CStringT@_WV?$StrTraitMFC_DLL@_WV?$ChTraitsCRT@_W@ATL@@@@@ATL@@0@Z 000000014002fcc0 f   VibraimageEx.obj
 0001:0002f230       ?InitEngines@CVibraimageExApp@@QEAAXH@Z 0000000140030230 f   VibraimageEx.obj
 0001:0002f6a0       ?IsRegLocked@CVibraimageExApp@@QEAA_NXZ 00000001400306a0 f   VibraimageEx.obj
 0001:0002f760       ?LoadSettings@CVibraimageExApp@@QEAA_NPEB_W_N1@Z 0000000140030760 f   VibraimageEx.obj
 0001:0002ff90       ?OnError@CVibraimageExApp@@QEAAXHGPEB_W@Z 0000000140030f90 f   VibraimageEx.obj
 0001:000300e0       ?OnExit@CVibraimageExApp@@QEAAXXZ 00000001400310e0 f   VibraimageEx.obj
 0001:000303d0       ?OnFileNew@CVibraimageExApp@@QEAAXXZ 00000001400313d0 f   VibraimageEx.obj
 0001:000303e0       ?OnFileOpen@CVibraimageExApp@@QEAAXXZ 00000001400313e0 f   VibraimageEx.obj
 0001:000303f0       ?OnOpenDocument@CVibraimageExApp@@QEAAHHAEBV?$CStringT@_WV?$StrTraitMFC_DLL@_WV?$ChTraitsCRT@_W@ATL@@@@@ATL@@@Z 00000001400313f0 f   VibraimageEx.obj
 0001:000304d0       ?PushVar@CVibraimageExApp@@QEAAXHHH@Z 00000001400314d0 f   VibraimageEx.obj
 0001:000304f0       ?RegDelnode@CVibraimageExApp@@QEAAHPEAUHKEY__@@PEB_W@Z 00000001400314f0 f   VibraimageEx.obj
 0001:00030580       ?RegDelnodeRecurse@CVibraimageExApp@@QEAAHPEAUHKEY__@@PEA_W@Z 0000000140031580 f   VibraimageEx.obj
 0001:000307c0       ?RegSave@CVibraimageExApp@@QEAAX_N@Z 00000001400317c0 f   VibraimageEx.obj
 0001:00030960       ?Restart@CVibraimageExApp@@QEAA?AU_PROCESS_INFORMATION@@_NPEAV?$vector@PEB_WV?$allocator@PEB_W@std@@@std@@@Z 0000000140031960 f   VibraimageEx.obj
 0001:00030e10       ?SelectCore@CVibraimageExApp@@QEAA_NH_N@Z 0000000140031e10 f   VibraimageEx.obj
 0001:00030f40       ?SetRegLocked@CVibraimageExApp@@QEAAX_N@Z 0000000140031f40 f   VibraimageEx.obj
 0001:00031000       ?SkipAll@CVibraimageExApp@@QEAAXHK@Z 0000000140032000 f   VibraimageEx.obj
 0001:00031130       ?Start@CSplashScreen@@QEAAXXZ 0000000140032130 f i VibraimageEx.obj
 0001:00031390       ?StringCchPrintfW@@YAJPEA_W_KPEB_WZZ 0000000140032390 f i VibraimageEx.obj
 0001:00031460       ?_Change_array@?$vector@PEAUtagENGINE_PACK@CVibraimageExApp@@V?$allocator@PEAUtagENGINE_PACK@CVibraimageExApp@@@std@@@std@@AEAAXQEAPEAUtagENGINE_PACK@CVibraimageExApp@@_K1@Z 0000000140032460 f i VibraimageEx.obj
 0001:00031460       ?_Change_array@?$vector@PEAVView@CVibraimageExOverview@@V?$allocator@PEAVView@CVibraimageExOverview@@@std@@@std@@AEAAXQEAPEAVView@CVibraimageExOverview@@_K1@Z 0000000140032460 f i VibraimageExOverview.obj
 0001:000314f0       ?_Destroy@?$_Ref_count_obj@VCViFTPStorage@@@std@@EEAAXXZ 00000001400324f0 f i VibraimageEx.obj
 0001:00031500       ?_Destroy@?$_Ref_count_obj@VCViLogStorage@@@std@@EEAAXXZ 0000000140032500 f i VibraimageEx.obj
 0001:00031510       ?_Destroy@?$_Ref_count_obj@VCVideoCheck@@@std@@EEAAXXZ 0000000140032510 f i VibraimageEx.obj
 0001:00031520       ?_Free@_bstr_t@@AEAAXXZ    0000000140032520 f i VibraimageEx.obj
 0001:00031590       ?_Reallocate_exactly@?$vector@PEAUtagENGINE_PACK@CVibraimageExApp@@V?$allocator@PEAUtagENGINE_PACK@CVibraimageExApp@@@std@@@std@@AEAAX_K@Z 0000000140032590 f i VibraimageEx.obj
 0001:00031590       ?_Reallocate_exactly@?$vector@PEAVView@CVibraimageExOverview@@V?$allocator@PEAVView@CVibraimageExOverview@@@std@@@std@@AEAAX_K@Z 0000000140032590 f i VibraimageExOverview.obj
 0001:00031600       ?append@?$basic_string@_WU?$char_traits@_W@std@@V?$allocator@_W@2@@std@@QEAAAEAV12@QEB_W_K@Z 0000000140032600 f i VibraimageEx.obj
 0001:00031780       ?assign@?$basic_string@_WU?$char_traits@_W@std@@V?$allocator@_W@2@@std@@QEAAAEAV12@QEB_W_K@Z 0000000140032780 f i VibraimageEx.obj
 0001:000318b0       ?cmlParam@CVibraimageExApp@@SA?AV?$CStringT@_WV?$StrTraitMFC_DLL@_WV?$ChTraitsCRT@_W@ATL@@@@@ATL@@V23@@Z 00000001400328b0 f   VibraimageEx.obj
 0001:00031990       ?launchProcess@CVibraimageExApp@@SA?AU_PROCESS_INFORMATION@@V?$basic_string@_WU?$char_traits@_W@std@@V?$allocator@_W@2@@std@@0@Z 0000000140032990 f   VibraimageEx.obj
 0001:00031e10       ?stopProcess@CVibraimageExApp@@SA_NAEAU_PROCESS_INFORMATION@@@Z 0000000140032e10 f   VibraimageEx.obj
 0001:00031e80       __local_stdio_scanf_options 0000000140032e80 f i VibraimageEx.obj
 0001:00031f40       printf                     0000000140032f40 f i VibraimageEx.obj
 0001:00031fa0       swscanf_s                  0000000140032fa0 f i VibraimageEx.obj
 0001:00032000       ??0CVibraimageExAI@@QEAA@PEAVCPropertiesPack@CDockablePaneVI@@H@Z 0000000140033000 f   VibraimageExAI.obj
 0001:00032030       ??_GCVibraimageExAI@@UEAAPEAXI@Z 0000000140033030 f i VibraimageExAI.obj
 0001:00032030       ??_ECVibraimageExAI@@UEAAPEAXI@Z 0000000140033030 f i VibraimageExAI.obj
 0001:00032090       ?Align@CVibraimageExAI@@QEAAXXZ 0000000140033090 f   VibraimageExAI.obj
 0001:000321d0       ?GetMessageMap@CVibraimageExAI@@MEBAPEBUAFX_MSGMAP@@XZ 00000001400331d0 f   VibraimageExAI.obj
 0001:000321e0       ?GetRuntimeClass@CVibraimageExAI@@UEBAPEAUCRuntimeClass@@XZ 00000001400331e0 f   VibraimageExAI.obj
 0001:000321f0       ?Load@CVibraimageExAI@@UEAA_NAEAVxml_node@pugi@@@Z 00000001400331f0 f   VibraimageExAI.obj
 0001:000321f0       ?Load@CVibraimageExAIV@@UEAA_NAEAVxml_node@pugi@@@Z 00000001400331f0 f   VibraimageExAIV.obj
 0001:000321f0       ?Load@CVibraimageExAIT@@UEAA_NAEAVxml_node@pugi@@@Z 00000001400331f0 f   VibraimageExAIT.obj
 0001:000321f0       ?Load@CVibraimageExLDR@@UEAA_NAEAVxml_node@pugi@@@Z 00000001400331f0 f   VibraimageExLDR.obj
 0001:000321f0       ?Load@CVibraimageExSV@@UEAA_NAEAVxml_node@pugi@@@Z 00000001400331f0 f   VibraimageExSV.obj
 0001:000321f0       ?Load@CVibraimageExVPos@@UEAA_NAEAVxml_node@pugi@@@Z 00000001400331f0 f   VibraimageExVPos.obj
 0001:00032200       ?OnCreate@CVibraimageExHistStat@@QEAAHPEAUtagCREATESTRUCTW@@@Z 0000000140033200 f   VibraimageExHistStat.obj
 0001:00032200       ?OnCreate@CVibraimageExAI@@QEAAHPEAUtagCREATESTRUCTW@@@Z 0000000140033200 f   VibraimageExAI.obj
 0001:00032200       ?OnCreate@CVibraimageExLD@@QEAAHPEAUtagCREATESTRUCTW@@@Z 0000000140033200 f   VibraimageExLD.obj
 0001:00032220       ?OnMove@CVibraimageExAI@@QEAAXHH@Z 0000000140033220 f   VibraimageExAI.obj
 0001:00032250       ?OnSize@CVibraimageExAI@@QEAAXIHH@Z 0000000140033250 f   VibraimageExAI.obj
 0001:00032270       ?_GetBaseClass@CVibraimageExQT@@KAPEAUCRuntimeClass@@XZ 0000000140033270 f   VibraimageExQT.obj
 0001:00032270       ?_GetBaseClass@CVibraimageExHistStat@@KAPEAUCRuntimeClass@@XZ 0000000140033270 f   VibraimageExHistStat.obj
 0001:00032270       ?_GetBaseClass@CVibraimageExLDR@@KAPEAUCRuntimeClass@@XZ 0000000140033270 f   VibraimageExLDR.obj
 0001:00032270       ?_GetBaseClass@CVibraimageExHist@@KAPEAUCRuntimeClass@@XZ 0000000140033270 f   VibraimageExHist.obj
 0001:00032270       ?_GetBaseClass@CVibraimageExGraph@@KAPEAUCRuntimeClass@@XZ 0000000140033270 f   VibraimageExGraph.obj
 0001:00032270       ?_GetBaseClass@CVibraimageExAIV@@KAPEAUCRuntimeClass@@XZ 0000000140033270 f   VibraimageExAIV.obj
 0001:00032270       ?_GetBaseClass@CVibraimageExVPos@@KAPEAUCRuntimeClass@@XZ 0000000140033270 f   VibraimageExVPos.obj
 0001:00032270       ?_GetBaseClass@CVibraimageExLD@@KAPEAUCRuntimeClass@@XZ 0000000140033270 f   VibraimageExLD.obj
 0001:00032270       ?_GetBaseClass@CVibraimageExAI@@KAPEAUCRuntimeClass@@XZ 0000000140033270 f   VibraimageExAI.obj
 0001:00032270       ?_GetBaseClass@CVibraimageExAIT@@KAPEAUCRuntimeClass@@XZ 0000000140033270 f   VibraimageExAIT.obj
 0001:00032270       ?_GetBaseClass@CVibraimageExSV@@KAPEAUCRuntimeClass@@XZ 0000000140033270 f   VibraimageExSV.obj
 0001:00032280       ??0CVibraimageExAIT@@QEAA@PEAVCPropertiesPack@CDockablePaneVI@@H@Z 0000000140033280 f   VibraimageExAIT.obj
 0001:00032304       ??_ECVibraimageExAIT@@WFBA@EAAPEAXI@Z 0000000140033304 f i VibraimageExAIT.obj
 0001:00032310       ??_GCVibraimageExAIT@@UEAAPEAXI@Z 0000000140033310 f i VibraimageExAIT.obj
 0001:00032310       ??_ECVibraimageExAIT@@UEAAPEAXI@Z 0000000140033310 f i VibraimageExAIT.obj
 0001:000323c0       ?Align@CVibraimageExAIT@@QEAAXXZ 00000001400333c0 f   VibraimageExAIT.obj
 0001:000324a0       ?GetMessageMap@CVibraimageExAIT@@MEBAPEBUAFX_MSGMAP@@XZ 00000001400334a0 f   VibraimageExAIT.obj
 0001:000324b0       ?GetRuntimeClass@CVibraimageExAIT@@UEBAPEAUCRuntimeClass@@XZ 00000001400334b0 f   VibraimageExAIT.obj
 0001:000324c0       ?OnCreate@CVibraimageExAIT@@QEAAHPEAUtagCREATESTRUCTW@@@Z 00000001400334c0 f   VibraimageExAIT.obj
 0001:00032620       ?OnMove@CVibraimageExAIT@@QEAAXHH@Z 0000000140033620 f   VibraimageExAIT.obj
 0001:00032650       ?OnNewVar@CVibraimageExAIT@@UEAAXHH@Z 0000000140033650 f   VibraimageExAIT.obj
 0001:00032790       ?OnSize@CVibraimageExAIT@@QEAAXIHH@Z 0000000140033790 f   VibraimageExAIT.obj
 0001:000327b0       ?OnTimer@CVibraimageExAIT@@UEAAX_K@Z 00000001400337b0 f   VibraimageExAIT.obj
 0001:000327c0       ??$_Erase_tree@V?$allocator@U?$_Tree_node@U?$pair@$$CBHV?$shared_ptr@VCColorProcress@@@std@@@std@@PEAX@std@@@std@@@?$_Tree_val@U?$_Tree_simple_types@U?$pair@$$CBHV?$shared_ptr@VCColorProcress@@@std@@@std@@@std@@@std@@QEAAXAEAV?$allocator@U?$_Tree_node@U?$pair@$$CBHV?$shared_ptr@VCColorProcress@@@std@@@std@@PEAX@std@@@1@PEAU?$_Tree_node@U?$pair@$$CBHV?$shared_ptr@VCColorProcress@@@std@@@std@@PEAX@1@@Z 00000001400337c0 f i VibraimageExAIV.obj
 0001:00032870       ??0CVibraimageExAIV@@QEAA@PEAVCPropertiesPack@CDockablePaneVI@@H@Z 0000000140033870 f   VibraimageExAIV.obj
 0001:00032934       ??_ECVibraimageExAIV@@WFBA@EAAPEAXI@Z 0000000140033934 f i VibraimageExAIV.obj
 0001:00032940       ??_E?$_Ref_count_obj@VCColorProcress@@@std@@UEAAPEAXI@Z 0000000140033940 f i VibraimageExAIV.obj
 0001:00032940       ??_G?$_Ref_count_obj@VCColorProcress@@@std@@UEAAPEAXI@Z 0000000140033940 f i VibraimageExAIV.obj
 0001:00032970       ??_ECVibraimageExAIV@@UEAAPEAXI@Z 0000000140033970 f i VibraimageExAIV.obj
 0001:00032970       ??_GCVibraimageExAIV@@UEAAPEAXI@Z 0000000140033970 f i VibraimageExAIV.obj
 0001:00032a40       ?Align@CVibraimageExAIV@@QEAAXXZ 0000000140033a40 f   VibraimageExAIV.obj
 0001:00032c60       ?CheckAndCreate@CVibraimageExAIV@@QEAAHXZ 0000000140033c60 f   VibraimageExAIV.obj
 0001:000330a0       ?GetMessageMap@CVibraimageExAIV@@MEBAPEBUAFX_MSGMAP@@XZ 00000001400340a0 f   VibraimageExAIV.obj
 0001:000330b0       ?GetRuntimeClass@CVibraimageExAIV@@UEBAPEAUCRuntimeClass@@XZ 00000001400340b0 f   VibraimageExAIV.obj
 0001:000330c0       ?GetWndCount@CVibraimageExAIV@@QEAAHXZ 00000001400340c0 f   VibraimageExAIV.obj
 0001:00033170       ?OnCreate@CVibraimageExAIV@@QEAAHPEAUtagCREATESTRUCTW@@@Z 0000000140034170 f   VibraimageExAIV.obj
 0001:000331b0       ?OnMove@CVibraimageExAIV@@QEAAXHH@Z 00000001400341b0 f   VibraimageExAIV.obj
 0001:000331e0       ?OnNewVar@CVibraimageExAIV@@UEAAXHH@Z 00000001400341e0 f   VibraimageExAIV.obj
 0001:00033210       ?OnPaint@CVibraimageExAIV@@QEAAXXZ 0000000140034210 f   VibraimageExAIV.obj
 0001:000332a0       ?OnSize@CVibraimageExAIV@@QEAAXIHH@Z 00000001400342a0 f   VibraimageExAIV.obj
 0001:000332c0       ?OnTimer@CVibraimageExAIV@@UEAAX_K@Z 00000001400342c0 f   VibraimageExAIV.obj
 0001:000333b0       ?Update@CVibraimageExAIV@@QEAAXXZ 00000001400343b0 f   VibraimageExAIV.obj
 0001:000339b0       ?_Extract@?$_Tree_val@U?$_Tree_simple_types@U?$pair@$$CBV?$CStringT@_WV?$StrTraitMFC_DLL@_WV?$ChTraitsCRT@_W@ATL@@@@@ATL@@UtagITEM@CVIImages@@@std@@@std@@@std@@QEAAPEAU?$_Tree_node@U?$pair@$$CBV?$CStringT@_WV?$StrTraitMFC_DLL@_WV?$ChTraitsCRT@_W@ATL@@@@@ATL@@UtagITEM@CVIImages@@@std@@PEAX@2@V?$_Tree_unchecked_const_iterator@V?$_Tree_val@U?$_Tree_simple_types@U?$pair@$$CBV?$CStringT@_WV?$StrTraitMFC_DLL@_WV?$ChTraitsCRT@_W@ATL@@@@@ATL@@UtagITEM@CVIImages@@@std@@@std@@@std@@U_Iterator_base0@2@@2@@Z 00000001400349b0 f i VIImages.obj
 0001:000339b0       ?_Extract@?$_Tree_val@U?$_Tree_simple_types@U?$pair@$$CBHVCRect@@@std@@@std@@@std@@QEAAPEAU?$_Tree_node@U?$pair@$$CBHVCRect@@@std@@PEAX@2@V?$_Tree_unchecked_const_iterator@V?$_Tree_val@U?$_Tree_simple_types@U?$pair@$$CBHVCRect@@@std@@@std@@@std@@U_Iterator_base0@2@@2@@Z 00000001400349b0 f i ViEngineExProc.obj
 0001:000339b0       ?_Extract@?$_Tree_val@U?$_Tree_simple_types@U?$pair@$$CBHV?$shared_ptr@VCColorProcress@@@std@@@std@@@std@@@std@@QEAAPEAU?$_Tree_node@U?$pair@$$CBHV?$shared_ptr@VCColorProcress@@@std@@@std@@PEAX@2@V?$_Tree_unchecked_const_iterator@V?$_Tree_val@U?$_Tree_simple_types@U?$pair@$$CBHV?$shared_ptr@VCColorProcress@@@std@@@std@@@std@@@std@@U_Iterator_base0@2@@2@@Z 00000001400349b0 f i VibraimageExAIV.obj
 0001:000339b0       ?_Extract@?$_Tree_val@U?$_Tree_simple_types@U?$pair@$$CBV?$CStringT@_WV?$StrTraitMFC_DLL@_WV?$ChTraitsCRT@_W@ATL@@@@@ATL@@VSESSIONREF@CViEngineExProcDb@@@std@@@std@@@std@@QEAAPEAU?$_Tree_node@U?$pair@$$CBV?$CStringT@_WV?$StrTraitMFC_DLL@_WV?$ChTraitsCRT@_W@ATL@@@@@ATL@@VSESSIONREF@CViEngineExProcDb@@@std@@PEAX@2@V?$_Tree_unchecked_const_iterator@V?$_Tree_val@U?$_Tree_simple_types@U?$pair@$$CBV?$CStringT@_WV?$StrTraitMFC_DLL@_WV?$ChTraitsCRT@_W@ATL@@@@@ATL@@VSESSIONREF@CViEngineExProcDb@@@std@@@std@@@std@@U_Iterator_base0@2@@2@@Z 00000001400349b0 f i ViEngineExProcDb.obj
 0001:00033d50       ?_Lrotate@?$_Tree_val@U?$_Tree_simple_types@U?$pair@$$CBHV?$shared_ptr@VCColorProcress@@@std@@@std@@@std@@@std@@QEAAXPEAU?$_Tree_node@U?$pair@$$CBHV?$shared_ptr@VCColorProcress@@@std@@@std@@PEAX@2@@Z 0000000140034d50 f i VibraimageExAIV.obj
 0001:00033d50       ?_Lrotate@?$_Tree_val@U?$_Tree_simple_types@U?$pair@$$CBHVCRect@@@std@@@std@@@std@@QEAAXPEAU?$_Tree_node@U?$pair@$$CBHVCRect@@@std@@PEAX@2@@Z 0000000140034d50 f i ViEngineExProc.obj
 0001:00033d50       ?_Lrotate@?$_Tree_val@U?$_Tree_simple_types@U?$pair@$$CBV?$CStringT@_WV?$StrTraitMFC_DLL@_WV?$ChTraitsCRT@_W@ATL@@@@@ATL@@UtagITEM@CVIImages@@@std@@@std@@@std@@QEAAXPEAU?$_Tree_node@U?$pair@$$CBV?$CStringT@_WV?$StrTraitMFC_DLL@_WV?$ChTraitsCRT@_W@ATL@@@@@ATL@@UtagITEM@CVIImages@@@std@@PEAX@2@@Z 0000000140034d50 f i VIImages.obj
 0001:00033d50       ?_Lrotate@?$_Tree_val@U?$_Tree_simple_types@U?$pair@$$CBV?$CStringT@_WV?$StrTraitMFC_DLL@_WV?$ChTraitsCRT@_W@ATL@@@@@ATL@@VSESSIONREF@CViEngineExProcDb@@@std@@@std@@@std@@QEAAXPEAU?$_Tree_node@U?$pair@$$CBV?$CStringT@_WV?$StrTraitMFC_DLL@_WV?$ChTraitsCRT@_W@ATL@@@@@ATL@@VSESSIONREF@CViEngineExProcDb@@@std@@PEAX@2@@Z 0000000140034d50 f i ViEngineExProcDb.obj
 0001:00033db0       ?_Rrotate@?$_Tree_val@U?$_Tree_simple_types@U?$pair@$$CBHVCRect@@@std@@@std@@@std@@QEAAXPEAU?$_Tree_node@U?$pair@$$CBHVCRect@@@std@@PEAX@2@@Z 0000000140034db0 f i ViEngineExProc.obj
 0001:00033db0       ?_Rrotate@?$_Tree_val@U?$_Tree_simple_types@U?$pair@$$CBV?$CStringT@_WV?$StrTraitMFC_DLL@_WV?$ChTraitsCRT@_W@ATL@@@@@ATL@@VSESSIONREF@CViEngineExProcDb@@@std@@@std@@@std@@QEAAXPEAU?$_Tree_node@U?$pair@$$CBV?$CStringT@_WV?$StrTraitMFC_DLL@_WV?$ChTraitsCRT@_W@ATL@@@@@ATL@@VSESSIONREF@CViEngineExProcDb@@@std@@PEAX@2@@Z 0000000140034db0 f i ViEngineExProcDb.obj
 0001:00033db0       ?_Rrotate@?$_Tree_val@U?$_Tree_simple_types@U?$pair@$$CBHV?$shared_ptr@VCColorProcress@@@std@@@std@@@std@@@std@@QEAAXPEAU?$_Tree_node@U?$pair@$$CBHV?$shared_ptr@VCColorProcress@@@std@@@std@@PEAX@2@@Z 0000000140034db0 f i VibraimageExAIV.obj
 0001:00033db0       ?_Rrotate@?$_Tree_val@U?$_Tree_simple_types@U?$pair@$$CBV?$CStringT@_WV?$StrTraitMFC_DLL@_WV?$ChTraitsCRT@_W@ATL@@@@@ATL@@UtagITEM@CVIImages@@@std@@@std@@@std@@QEAAXPEAU?$_Tree_node@U?$pair@$$CBV?$CStringT@_WV?$StrTraitMFC_DLL@_WV?$ChTraitsCRT@_W@ATL@@@@@ATL@@UtagITEM@CVIImages@@@std@@PEAX@2@@Z 0000000140034db0 f i VIImages.obj
 0001:00033e10       ?erase@?$_Tree@V?$_Tmap_traits@HV?$shared_ptr@VCColorProcress@@@std@@U?$less@H@2@V?$allocator@U?$pair@$$CBHV?$shared_ptr@VCColorProcress@@@std@@@std@@@2@$0A@@std@@@std@@QEAA_KAEBH@Z 0000000140034e10 f i VibraimageExAIV.obj
 0001:00034060       ??_ECVibraimageExDoc@@WBIA@EAAPEAXI@Z 0000000140035060 f i VibraimageExDoc.obj
 0001:00034070       ??_ECDocumentAdapter@CDocument@@UEAAPEAXI@Z 0000000140035070 f i VibraimageExDoc.obj
 0001:00034070       ??_GCDocumentAdapter@CDocument@@UEAAPEAXI@Z 0000000140035070 f i VibraimageExDoc.obj
 0001:000340d0       ??_GCVibraimageExDoc@@UEAAPEAXI@Z 00000001400350d0 f i VibraimageExDoc.obj
 0001:000340d0       ??_ECVibraimageExDoc@@UEAAPEAXI@Z 00000001400350d0 f i VibraimageExDoc.obj
 0001:00034150       ??_EIDocument@ATL@@UEAAPEAXI@Z 0000000140035150 f i VibraimageExDoc.obj
 0001:00034150       ??_GIDocument@ATL@@UEAAPEAXI@Z 0000000140035150 f i VibraimageExDoc.obj
 0001:00034180       ?AddRef@IDocument@ATL@@UEAAJXZ 0000000140035180 f i VibraimageExDoc.obj
 0001:00034190       ?BeginReadChunks@CDocumentAdapter@CDocument@@UEAAXXZ 0000000140035190 f i VibraimageExDoc.obj
 0001:000341b0       ?ClearChunkList@CDocumentAdapter@CDocument@@UEAAXXZ 00000001400351b0 f i VibraimageExDoc.obj
 0001:000341d0       ?CreateObject@CVibraimageExDoc@@SAPEAVCObject@@XZ 00000001400351d0 f   VibraimageExDoc.obj
 0001:00034250       ?DeleteContents@CVibraimageExDoc@@UEAAXXZ 0000000140035250 f   VibraimageExDoc.obj
 0001:000342a0       ?FindChunk@CDocumentAdapter@CDocument@@UEAAPEAU__POSITION@@AEBU_GUID@@K@Z 00000001400352a0 f i VibraimageExDoc.obj
 0001:000342c0       ?GetAdapter@CDocument@@UEAAPEAUIDocument@ATL@@XZ 00000001400352c0 f i VibraimageExDoc.obj
 0001:00034360       ?GetContainer@CDocumentAdapter@CDocument@@UEBAPEAXXZ 0000000140035360 f i VibraimageExDoc.obj
 0001:00034370       ?GetMessageMap@CVibraimageExDoc@@MEBAPEBUAFX_MSGMAP@@XZ 0000000140035370 f   VibraimageExDoc.obj
 0001:00034380       ?GetThisClass@CVibraimageExDoc@@SAPEAUCRuntimeClass@@XZ 0000000140035380 f   VibraimageExDoc.obj
 0001:00034380       ?GetRuntimeClass@CVibraimageExDoc@@UEBAPEAUCRuntimeClass@@XZ 0000000140035380 f   VibraimageExDoc.obj
 0001:00034390       ?GetThumbnail@CDocumentAdapter@CDocument@@UEAAHIPEAPEAUHBITMAP__@@PEAW4WTS_ALPHATYPE@@@Z 0000000140035390 f i VibraimageExDoc.obj
 0001:000343b0       ?InitializeSearchContent@CDocumentAdapter@CDocument@@UEAAXXZ 00000001400353b0 f i VibraimageExDoc.obj
 0001:000343d0       ?IsModified@CDocument@@UEAAHXZ 00000001400353d0 f i VibraimageExDoc.obj
 0001:000343e0       ?LoadFromStream@CDocumentAdapter@CDocument@@UEAAJPEAUIStream@@K@Z 00000001400353e0 f i VibraimageExDoc.obj
 0001:00034460       ?MakeTitle@CVibraimageExDoc@@QEAAXH@Z 0000000140035460 f   VibraimageExDoc.obj
 0001:00034500       ?OnNewDocument@CVibraimageExDoc@@UEAAHXZ 0000000140035500 f   VibraimageExDoc.obj
 0001:00034540       ?OnNewVar@CVibraimageExDoc@@UEAAXHH@Z 0000000140035540 f   VibraimageExDoc.obj
 0001:000345a0       ?OnOpenDocument@CVibraimageExDoc@@UEAAHPEB_W@Z 00000001400355a0 f   VibraimageExDoc.obj
 0001:00034610       ?ReadNextChunkValue@CDocumentAdapter@CDocument@@UEAAHPEAPEAUIFilterChunkValue@ATL@@@Z 0000000140035610 f i VibraimageExDoc.obj
 0001:00034630       ?Release@IDocument@ATL@@UEAAJXZ 0000000140035630 f i VibraimageExDoc.obj
 0001:00034670       ?RemoveChunk@CDocumentAdapter@CDocument@@UEAAXAEBU_GUID@@K@Z 0000000140035670 f i VibraimageExDoc.obj
 0001:00034690       ?SetChunkValue@CDocumentAdapter@CDocument@@UEAAHPEAUIFilterChunkValue@ATL@@@Z 0000000140035690 f i VibraimageExDoc.obj
 0001:000346b0       ?SetModifiedFlag@CDocument@@UEAAXH@Z 00000001400356b0 f i VibraimageExDoc.obj
 0001:000346c0       ?SetTitle@CVibraimageExDoc@@UEAAXPEB_W@Z 00000001400356c0 f   VibraimageExDoc.obj
 0001:00034780       ?_GetBaseClass@CVibraimageExDoc@@KAPEAUCRuntimeClass@@XZ 0000000140035780 f   VibraimageExDoc.obj
 0001:00034790       ??$_Emplace_reallocate@D@?$vector@DV?$allocator@D@std@@@std@@QEAAPEADQEAD$$QEAD@Z 0000000140035790 f i VibraimageExFrame.obj
 0001:000348d0       ??1CVibraimageExPropPack@@UEAA@XZ 00000001400358d0 f i VibraimageExFrame.obj
 0001:000348e0       ??1CWaitCursor@@QEAA@XZ    00000001400358e0 f i VibraimageExFrame.obj
 0001:00034930       ??A?$map@HHU?$less@H@std@@V?$allocator@U?$pair@$$CBHH@std@@@2@@std@@QEAAAEAH$$QEAH@Z 0000000140035930 f i VibraimageExFrame.obj
 0001:00034a28       ??_ECVibraimageExFrame@@WGPA@EAAPEAXI@Z 0000000140035a28 f i VibraimageExFrame.obj
 0001:00034a40       ??_GCVibraimageExFrame@@UEAAPEAXI@Z 0000000140035a40 f i VibraimageExFrame.obj
 0001:00034a40       ??_ECVibraimageExFrame@@UEAAPEAXI@Z 0000000140035a40 f i VibraimageExFrame.obj
 0001:00034ba0       ??_ECVibraimageExPropPack@@UEAAPEAXI@Z 0000000140035ba0 f i VibraimageExFrame.obj
 0001:00034ba0       ??_GCVibraimageExPropPack@@UEAAPEAXI@Z 0000000140035ba0 f i VibraimageExFrame.obj
 0001:00034be0       ?CreateObject@CVibraimageExFrame@@SAPEAVCObject@@XZ 0000000140035be0 f   VibraimageExFrame.obj
 0001:00034d90       ?FormatMenu@CVibraimageExFrame@@QEAAXPEAVCCmdUI@@AEBV?$CStringT@_WV?$StrTraitMFC_DLL@_WV?$ChTraitsCRT@_W@ATL@@@@@ATL@@HH@Z 0000000140035d90 f   VibraimageExFrame.obj
 0001:00034e30       ?GetMessageMap@CVibraimageExFrame@@MEBAPEBUAFX_MSGMAP@@XZ 0000000140035e30 f   VibraimageExFrame.obj
 0001:00035490       ?GetThisClass@CVibraimageExFrame@@SAPEAUCRuntimeClass@@XZ 0000000140036490 f   VibraimageExFrame.obj
 0001:00035490       ?GetRuntimeClass@CVibraimageExFrame@@UEBAPEAUCRuntimeClass@@XZ 0000000140036490 f   VibraimageExFrame.obj
 0001:000354a0       ?GetStrText@CColorProcress@@QEAA?AV?$CStringT@_WV?$StrTraitMFC_DLL@_WV?$ChTraitsCRT@_W@ATL@@@@@ATL@@XZ 00000001400364a0 f i VibraimageExFrame.obj
 0001:00035500       ?GetToolbarPath@CVibraimageExFrame@@QEAA?AV?$CStringT@_WV?$StrTraitMFC_DLL@_WV?$ChTraitsCRT@_W@ATL@@@@@ATL@@XZ 0000000140036500 f   VibraimageExFrame.obj
 0001:00035600       ?GetTrackingID@CFrameWnd@@UEAAIXZ 0000000140036600 f i VibraimageExFrame.obj
 0001:00035610       ?LoadFrame@CVibraimageExFrame@@UEAAHIKPEAVCWnd@@PEAUCCreateContext@@@Z 0000000140036610 f   VibraimageExFrame.obj
 0001:000356a0       ?MakeLoadPos@CVibraimageExFrame@@QEAAXXZ 00000001400366a0 f   VibraimageExFrame.obj
 0001:00035890       ?MakeLoadState@CVibraimageExFrame@@QEAAXXZ 0000000140036890 f   VibraimageExFrame.obj
 0001:00035b90       ?MakeSavePos@CVibraimageExFrame@@QEAAX_N@Z 0000000140036b90 f   VibraimageExFrame.obj
 0001:00035d00       ?MakeSaveSettings@CVibraimageExFrame@@QEAAXV?$CStringT@_WV?$StrTraitMFC_DLL@_WV?$ChTraitsCRT@_W@ATL@@@@@ATL@@PEAV?$vector@DV?$allocator@D@std@@@std@@_N@Z 0000000140036d00 f   VibraimageExFrame.obj
 0001:00036ae0       ?OnApplicationLook@CVibraimageExFrame@@IEAAXI@Z 0000000140037ae0 f   VibraimageExFrame.obj
 0001:00036c50       ?OnClose@CVibraimageExFrame@@IEAAXXZ 0000000140037c50 f   VibraimageExFrame.obj
 0001:00036e10       ?OnCommand@CVibraimageExFrame@@MEAAH_K_J@Z 0000000140037e10 f   VibraimageExFrame.obj
 0001:00036f60       ?OnCreate@CVibraimageExFrame@@IEAAHPEAUtagCREATESTRUCTW@@@Z 0000000140037f60 f   VibraimageExFrame.obj
 0001:00037880       ?OnCreateClient@CVibraimageExFrame@@UEAAHPEAUtagCREATESTRUCTW@@PEAUCCreateContext@@@Z 0000000140038880 f   VibraimageExFrame.obj
 0001:00037890       ?OnDestroy@CVibraimageExFrame@@IEAAXXZ 0000000140038890 f   VibraimageExFrame.obj
 0001:000378d0       ?OnEraseBkgnd@CVibraimageExFrame@@QEAAHPEAVCDC@@@Z 00000001400388d0 f   VibraimageExFrame.obj
 0001:000378e0       ?OnHelpAbout@CVibraimageExFrame@@QEAAXXZ 00000001400388e0 f   VibraimageExFrame.obj
 0001:00037950       ?OnHelpHelp@CVibraimageExFrame@@QEAAXXZ 0000000140038950 f   VibraimageExFrame.obj
 0001:00037a40       ?OnInit@CVibraimageExFrame@@QEAA_NXZ 0000000140038a40 f   VibraimageExFrame.obj
 0001:00037d60       ?OnInitMenuPopup@CVibraimageExFrame@@QEAAXPEAVCMenu@@IH@Z 0000000140038d60 f   VibraimageExFrame.obj
 0001:00037d70       ?OnMENUID@CVibraimageExFrame@@QEAAXI@Z 0000000140038d70 f   VibraimageExFrame.obj
 0001:00037dd0       ?OnMenuRef@CVibraimageExFrame@@UEAAXHH@Z 0000000140038dd0 f   VibraimageExFrame.obj
 0001:000382d0       ?OnMove@CVibraimageExFrame@@QEAAXHH@Z 00000001400392d0 f   VibraimageExFrame.obj
 0001:000382d0       ?OnShowWindow@CVibraimageExFrame@@QEAAXHI@Z 00000001400392d0 f   VibraimageExFrame.obj
 0001:000382f0       ?OnNewVar@CVibraimageExFrame@@UEAAXHH@Z 00000001400392f0 f   VibraimageExFrame.obj
 0001:00038540       ?OnPreMENUID@CVibraimageExFrame@@QEAA_NI@Z 0000000140039540 f   VibraimageExFrame.obj
 0001:000388a0       ?OnResetMenu@CVibraimageExFrame@@IEAA_J_K_J@Z 00000001400398a0 f   VibraimageExFrame.obj
 0001:000388c0       ?OnSettingsLoad@CVibraimageExFrame@@QEAAXPEBD@Z 00000001400398c0 f   VibraimageExFrame.obj
 0001:00038aa0       ?OnSettingsLock@CVibraimageExFrame@@QEAAXXZ 0000000140039aa0 f   VibraimageExFrame.obj
 0001:00038b40       ?OnShowCustomizePane@CFrameWndEx@@UEAAHPEAVCMFCPopupMenu@@I@Z 0000000140039b40 f i VibraimageExFrame.obj
 0001:00038b60       ?OnShowPopupMenu@CVibraimageExFrame@@UEAAHPEAVCMFCPopupMenu@@@Z 0000000140039b60 f   VibraimageExFrame.obj
 0001:00038bb0       ?OnSize@CVibraimageExFrame@@IEAAXIHH@Z 0000000140039bb0 f   VibraimageExFrame.obj
 0001:00038bd0       ?OnSysCommand@CVibraimageExFrame@@QEAAXI_J@Z 0000000140039bd0 f   VibraimageExFrame.obj
 0001:00038bf0       ?OnTimer@CVibraimageExFrame@@IEAAX_K@Z 0000000140039bf0 f   VibraimageExFrame.obj
 0001:000396a0       ?OnUpdateApplicationLook@CVibraimageExFrame@@IEAAXPEAVCCmdUI@@@Z 000000014003a6a0 f   VibraimageExFrame.obj
 0001:000396c0       ?OnUpdateFrameMenu@CVibraimageExFrame@@UEAAXPEAUHMENU__@@@Z 000000014003a6c0 f   VibraimageExFrame.obj
 0001:000396d0       ?OnUpdateHelpHelp@CVibraimageExFrame@@QEAAXPEAVCCmdUI@@@Z 000000014003a6d0 f   VibraimageExFrame.obj
 0001:00039810       ?OnUpdateMENUID@CVibraimageExFrame@@QEAAXPEAVCCmdUI@@@Z 000000014003a810 f   VibraimageExFrame.obj
 0001:00039a90       ?OnUpdateResetView@CVibraimageExFrame@@QEAAXPEAVCCmdUI@@@Z 000000014003aa90 f   VibraimageExFrame.obj
 0001:00039af0       ?OnUpdateSettingsLock@CVibraimageExFrame@@QEAAXPEAVCCmdUI@@@Z 000000014003aaf0 f   VibraimageExFrame.obj
 0001:00039b70       ?OnUpdateViewOverview@CVibraimageExFrame@@QEAAXPEAVCCmdUI@@@Z 000000014003ab70 f   VibraimageExFrame.obj
 0001:00039bb0       ?OnUpdateViewSimple@CVibraimageExFrame@@QEAAXPEAVCCmdUI@@@Z 000000014003abb0 f   VibraimageExFrame.obj
 0001:00039bf0       ?OnViewCustomize@CVibraimageExFrame@@IEAAXXZ 000000014003abf0 f   VibraimageExFrame.obj
 0001:00039c50       ?OnViewOverview@CVibraimageExFrame@@QEAAXXZ 000000014003ac50 f   VibraimageExFrame.obj
 0001:00039c70       ?OnViewResetView@CVibraimageExFrame@@QEAAXXZ 000000014003ac70 f   VibraimageExFrame.obj
 0001:00039c80       ?OnViewSimple@CVibraimageExFrame@@QEAAXXZ 000000014003ac80 f   VibraimageExFrame.obj
 0001:00039d60       ?PreCreateWindow@CVibraimageExFrame@@UEAAHAEAUtagCREATESTRUCTW@@@Z 000000014003ad60 f   VibraimageExFrame.obj
 0001:00039eb0       ?RegDelnode@@YAHPEAUHKEY__@@PEB_W@Z 000000014003aeb0 f i VibraimageExFrame.obj
 0001:00039f40       ?RegDelnodeRecurse@@YAHPEAUHKEY__@@PEA_W@Z 000000014003af40 f i VibraimageExFrame.obj
 0001:0003a140       ?ShowPane@CVibraimageExFrame@@UEAAXPEAVCBasePane@@HHH@Z 000000014003b140 f   VibraimageExFrame.obj
 0001:0003a1b0       ?TestLicense@CVibraimageExFrame@@IEAA_NXZ 000000014003b1b0 f   VibraimageExFrame.obj
 0001:0003a450       ?UpdatePopupMenu@CVibraimageExFrame@@UEAAXPEAVCMFCPopupMenu@@@Z 000000014003b450 f   VibraimageExFrame.obj
 0001:0003a6d0       ?UpdateSysMenu@CVibraimageExFrame@@QEAAXXZ 000000014003b6d0 f   VibraimageExFrame.obj
 0001:0003a810       ?UpdateTitle@CVibraimageExFrame@@QEAAXXZ 000000014003b810 f   VibraimageExFrame.obj
 0001:0003a870       ?WindowProc@CVibraimageExFrame@@UEAA_JI_K_J@Z 000000014003b870 f   VibraimageExFrame.obj
 0001:0003a9b0       ?_Change_array@?$vector@DV?$allocator@D@std@@@std@@AEAAXQEAD_K1@Z 000000014003b9b0 f i VibraimageExFrame.obj
 0001:0003aa40       ?_GetBaseClass@CVibraimageExOverview@@KAPEAUCRuntimeClass@@XZ 000000014003ba40 f   VibraimageExOverview.obj
 0001:0003aa40       ?_GetBaseClass@CVibraimageExFrame@@KAPEAUCRuntimeClass@@XZ 000000014003ba40 f   VibraimageExFrame.obj
 0001:0003aa50       ??0CVibraimageExGraph@@QEAA@PEAVCPropertiesPack@CDockablePaneVI@@H@Z 000000014003ba50 f   VibraimageExGraph.obj
 0001:0003aac0       ??_ECVibraimageExGraph@@UEAAPEAXI@Z 000000014003bac0 f i VibraimageExGraph.obj
 0001:0003aac0       ??_GCVibraimageExGraph@@UEAAPEAXI@Z 000000014003bac0 f i VibraimageExGraph.obj
 0001:0003ab40       ?AddItem@CVibraimageExGraph@@UEAA_NAEAVxml_node@pugi@@@Z 000000014003bb40 f   VibraimageExGraph.obj
 0001:0003b000       ?Align@CVibraimageExGraph@@QEAA_NXZ 000000014003c000 f   VibraimageExGraph.obj
 0001:0003b190       ?CheckTmpHide@CVibraimageExGraph@@UEAAXXZ 000000014003c190 f   VibraimageExGraph.obj
 0001:0003b260       ?GetMessageMap@CVibraimageExGraph@@MEBAPEBUAFX_MSGMAP@@XZ 000000014003c260 f   VibraimageExGraph.obj
 0001:0003b270       ?GetRuntimeClass@CVibraimageExGraph@@UEBAPEAUCRuntimeClass@@XZ 000000014003c270 f   VibraimageExGraph.obj
 0001:0003b280       ?Load@CVibraimageExGraph@@UEAA_NAEAVxml_node@pugi@@@Z 000000014003c280 f   VibraimageExGraph.obj
 0001:0003b450       ?LoadNode@CVibraimageExGraph@@UEAA_NAEAVxml_node@pugi@@@Z 000000014003c450 f   VibraimageExGraph.obj
 0001:0003c070       ?OnActivate@CVibraimageExHistStat@@QEAAXIPEAVCWnd@@H@Z 000000014003d070 f   VibraimageExHistStat.obj
 0001:0003c070       ?OnActivate@CVibraimageExLD@@QEAAXIPEAVCWnd@@H@Z 000000014003d070 f   VibraimageExLD.obj
 0001:0003c070       ?OnMouseWheel@CVibraimageExHistStat@@QEAAHIFVCPoint@@@Z 000000014003d070 f   VibraimageExHistStat.obj
 0001:0003c070       ?OnActivate@CVibraimageExGraph@@QEAAXIPEAVCWnd@@H@Z 000000014003d070 f   VibraimageExGraph.obj
 0001:0003c070       ?OnMouseWheel@CVibraimageExLD@@QEAAHIFVCPoint@@@Z 000000014003d070 f   VibraimageExLD.obj
 0001:0003c070       ?OnLButtonUp@CVibraimageExView@@IEAAXIVCPoint@@@Z 000000014003d070 f   VibraimageExView.obj
 0001:0003c080       ?OnAfterShowPaneMenu@CVibraimageExGraph@@UEAAHH@Z 000000014003d080 f   VibraimageExGraph.obj
 0001:0003c180       ?OnCreate@CVibraimageExGraph@@QEAAHPEAUtagCREATESTRUCTW@@@Z 000000014003d180 f   VibraimageExGraph.obj
 0001:0003c1c0       ?OnDestroy@CVibraimageExHistStat@@QEAAXXZ 000000014003d1c0 f   VibraimageExHistStat.obj
 0001:0003c1c0       ?OnDestroy@CVibraimageExLD@@QEAAXXZ 000000014003d1c0 f   VibraimageExLD.obj
 0001:0003c1c0       ?OnDestroy@CVibraimageExGraph@@QEAAXXZ 000000014003d1c0 f   VibraimageExGraph.obj
 0001:0003c1d0       ?OnMouseWheel@CVibraimageExGraph@@QEAAHIFVCPoint@@@Z 000000014003d1d0 f   VibraimageExGraph.obj
 0001:0003c240       ?OnMove@CVibraimageExGraph@@QEAAXHH@Z 000000014003d240 f   VibraimageExGraph.obj
 0001:0003c270       ?OnPaint@CVibraimageExGraph@@QEAAXXZ 000000014003d270 f   VibraimageExGraph.obj
 0001:0003c300       ?OnSize@CVibraimageExGraph@@QEAAXIHH@Z 000000014003d300 f   VibraimageExGraph.obj
 0001:0003c330       ?OnTimer@CVibraimageExGraph@@UEAAX_K@Z 000000014003d330 f   VibraimageExGraph.obj
 0001:0003c350       ?ShowPane@CVibraimageExGraph@@UEAAXHHH@Z 000000014003d350 f   VibraimageExGraph.obj
 0001:0003c370       ??0CVibraimageExHist@@QEAA@PEAVCPropertiesPack@CDockablePaneVI@@H@Z 000000014003d370 f   VibraimageExHist.obj
 0001:0003c3c0       ??_GCVibraimageExHist@@UEAAPEAXI@Z 000000014003d3c0 f i VibraimageExHist.obj
 0001:0003c3c0       ??_ECVibraimageExHist@@UEAAPEAXI@Z 000000014003d3c0 f i VibraimageExHist.obj
 0001:0003c440       ?AddItem@CVibraimageExHist@@UEAA_NAEAVxml_node@pugi@@@Z 000000014003d440 f   VibraimageExHist.obj
 0001:0003c670       ?Align@CVibraimageExHist@@QEAA_NXZ 000000014003d670 f   VibraimageExHist.obj
 0001:0003c7f0       ?GetMessageMap@CVibraimageExHist@@MEBAPEBUAFX_MSGMAP@@XZ 000000014003d7f0 f   VibraimageExHist.obj
 0001:0003c800       ?GetRuntimeClass@CVibraimageExHist@@UEBAPEAUCRuntimeClass@@XZ 000000014003d800 f   VibraimageExHist.obj
 0001:0003c810       ?Load@CVibraimageExHist@@UEAA_NAEAVxml_node@pugi@@@Z 000000014003d810 f   VibraimageExHist.obj
 0001:0003c9b0       ?LoadNode@CVibraimageExHist@@UEAA_NAEAVxml_node@pugi@@@Z 000000014003d9b0 f   VibraimageExHist.obj
 0001:0003d5d0       ?OnCreate@CVibraimageExHist@@QEAAHPEAUtagCREATESTRUCTW@@@Z 000000014003e5d0 f   VibraimageExHist.obj
 0001:0003d600       ?OnMove@CVibraimageExHist@@QEAAXHH@Z 000000014003e600 f   VibraimageExHist.obj
 0001:0003d630       ?OnSize@CVibraimageExHist@@QEAAXIHH@Z 000000014003e630 f   VibraimageExHist.obj
 0001:0003d660       ??0CVibraimageExHistStat@@QEAA@PEAVCPropertiesPack@CDockablePaneVI@@H@Z 000000014003e660 f   VibraimageExHistStat.obj
 0001:0003d690       ??_GCVibraimageExHistStat@@UEAAPEAXI@Z 000000014003e690 f i VibraimageExHistStat.obj
 0001:0003d690       ??_ECVibraimageExHistStat@@UEAAPEAXI@Z 000000014003e690 f i VibraimageExHistStat.obj
 0001:0003d700       ?Align@CVibraimageExHistStat@@QEAA_NXZ 000000014003e700 f   VibraimageExHistStat.obj
 0001:0003d870       ?GetMessageMap@CVibraimageExHistStat@@MEBAPEBUAFX_MSGMAP@@XZ 000000014003e870 f   VibraimageExHistStat.obj
 0001:0003d880       ?GetRuntimeClass@CVibraimageExHistStat@@UEBAPEAUCRuntimeClass@@XZ 000000014003e880 f   VibraimageExHistStat.obj
 0001:0003d890       ?Load@CVibraimageExHistStat@@UEAA_NAEAVxml_node@pugi@@@Z 000000014003e890 f   VibraimageExHistStat.obj
 0001:0003d900       ?LoadNode@CVibraimageExHistStat@@UEAA_NAEAVxml_node@pugi@@@Z 000000014003e900 f   VibraimageExHistStat.obj
 0001:0003d960       ?OnMove@CVibraimageExHistStat@@QEAAXHH@Z 000000014003e960 f   VibraimageExHistStat.obj
 0001:0003d990       ?OnPaint@CVibraimageExHistStat@@QEAAXXZ 000000014003e990 f   VibraimageExHistStat.obj
 0001:0003da60       ?OnSize@CVibraimageExHistStat@@QEAAXIHH@Z 000000014003ea60 f   VibraimageExHistStat.obj
 0001:0003da90       ??0CVibraimageExLD@@QEAA@PEAVCPropertiesPack@CDockablePaneVI@@H@Z 000000014003ea90 f   VibraimageExLD.obj
 0001:0003daf0       ??_ECVibraimageExLD@@UEAAPEAXI@Z 000000014003eaf0 f i VibraimageExLD.obj
 0001:0003daf0       ??_GCVibraimageExLD@@UEAAPEAXI@Z 000000014003eaf0 f i VibraimageExLD.obj
 0001:0003db70       ?Align@CVibraimageExLD@@QEAA_NXZ 000000014003eb70 f   VibraimageExLD.obj
 0001:0003dcf0       ?GetMessageMap@CVibraimageExLD@@MEBAPEBUAFX_MSGMAP@@XZ 000000014003ecf0 f   VibraimageExLD.obj
 0001:0003dd00       ?GetRuntimeClass@CVibraimageExLD@@UEBAPEAUCRuntimeClass@@XZ 000000014003ed00 f   VibraimageExLD.obj
 0001:0003dd10       ?Load@CVibraimageExLD@@UEAA_NAEAVxml_node@pugi@@@Z 000000014003ed10 f   VibraimageExLD.obj
 0001:0003dee0       ?LoadNode@CVibraimageExLD@@UEAA_NAEAVxml_node@pugi@@@Z 000000014003eee0 f   VibraimageExLD.obj
 0001:0003eb00       ?OnMove@CVibraimageExLD@@QEAAXHH@Z 000000014003fb00 f   VibraimageExLD.obj
 0001:0003eb30       ?OnPaint@CVibraimageExLD@@QEAAXXZ 000000014003fb30 f   VibraimageExLD.obj
 0001:0003ebc0       ?OnSize@CVibraimageExLD@@QEAAXIHH@Z 000000014003fbc0 f   VibraimageExLD.obj
 0001:0003ebf0       ?OnTimer@CVibraimageExLD@@UEAAX_K@Z 000000014003fbf0 f   VibraimageExLD.obj
 0001:0003ec30       ??0CVibraimageExLDR@@QEAA@PEAVCPropertiesPack@CDockablePaneVI@@H@Z 000000014003fc30 f   VibraimageExLDR.obj
 0001:0003ec9c       ??_ECVibraimageExLDR@@WFBA@EAAPEAXI@Z 000000014003fc9c f i VibraimageExLDR.obj
 0001:0003ecb0       ??_ECVibraimageExLDR@@UEAAPEAXI@Z 000000014003fcb0 f i VibraimageExLDR.obj
 0001:0003ecb0       ??_GCVibraimageExLDR@@UEAAPEAXI@Z 000000014003fcb0 f i VibraimageExLDR.obj
 0001:0003ed40       ?Align@CVibraimageExLDR@@QEAAXXZ 000000014003fd40 f   VibraimageExLDR.obj
 0001:0003edd0       ?GetMessageMap@CVibraimageExLDR@@MEBAPEBUAFX_MSGMAP@@XZ 000000014003fdd0 f   VibraimageExLDR.obj
 0001:0003ede0       ?GetRuntimeClass@CVibraimageExLDR@@UEBAPEAUCRuntimeClass@@XZ 000000014003fde0 f   VibraimageExLDR.obj
 0001:0003edf0       ?OnCreate@CVibraimageExLDR@@QEAAHPEAUtagCREATESTRUCTW@@@Z 000000014003fdf0 f   VibraimageExLDR.obj
 0001:0003edf0       ?OnCreate@CVibraimageExSV@@QEAAHPEAUtagCREATESTRUCTW@@@Z 000000014003fdf0 f   VibraimageExSV.obj
 0001:0003ef40       ?OnMove@CVibraimageExLDR@@QEAAXHH@Z 000000014003ff40 f   VibraimageExLDR.obj
 0001:0003ef70       ?OnNewVar@CVibraimageExLDR@@UEAAXHH@Z 000000014003ff70 f   VibraimageExLDR.obj
 0001:0003f1d0       ?OnSize@CVibraimageExLDR@@QEAAXIHH@Z 00000001400401d0 f   VibraimageExLDR.obj
 0001:0003f1f0       ??0CVibraimageExMenu@@QEAA@XZ 00000001400401f0 f   VibraimageExMenu.obj
 0001:0003f2c0       ??1?$CList@II@@UEAA@XZ     00000001400402c0 f i VibraimageExMenu.obj
 0001:0003f310       ??1CMenu@@UEAA@XZ          0000000140040310 f i VibraimageExMenu.obj
 0001:0003f340       ??1CVibraimageExMenu@@UEAA@XZ 0000000140040340 f   VibraimageExMenu.obj
 0001:0003f420       ??_E?$CList@II@@UEAAPEAXI@Z 0000000140040420 f i VibraimageExMenu.obj
 0001:0003f420       ??_G?$CList@II@@UEAAPEAXI@Z 0000000140040420 f i VibraimageExMenu.obj
 0001:0003f4b0       ??_GCMenu@@UEAAPEAXI@Z     00000001400404b0 f i VibraimageExMenu.obj
 0001:0003f4b0       ??_ECMenu@@UEAAPEAXI@Z     00000001400404b0 f i VibraimageExMenu.obj
 0001:0003f520       ??_ECVibraimageExMenu@@UEAAPEAXI@Z 0000000140040520 f i VibraimageExMenu.obj
 0001:0003f520       ??_GCVibraimageExMenu@@UEAAPEAXI@Z 0000000140040520 f i VibraimageExMenu.obj
 0001:0003f640       ?AddTail@?$CList@II@@QEAAPEAU__POSITION@@I@Z 0000000140040640 f i VibraimageExMenu.obj
 0001:0003f700       ?AppendMenuMulti@CVibraimageExMenu@@QEAA_NAEAVCMenu@@AEAVxml_node@pugi@@HAEAH@Z 0000000140040700 f   VibraimageExMenu.obj
 0001:0003fdd0       ?CalcMaxButtonHeight@CVibraimageExMenu@@UEAAHXZ 0000000140040dd0 f   VibraimageExMenu.obj
 0001:0003fde0       ?CalcSize@CVibraimageExMenu@@UEAA?AVCSize@@H@Z 0000000140040de0 f   VibraimageExMenu.obj
 0001:0003fe00       ?CanAutoHide@CBasePane@@UEBAHXZ 0000000140040e00 f i VibraimageExMenu.obj
 0001:0003fe10       ?Create@CVibraimageExMenu@@UEAAHPEAVCWnd@@KI@Z 0000000140040e10 f   VibraimageExMenu.obj
 0001:0003fe30       ?CreateFromMenu@CVibraimageExMenu@@UEAAXPEAUHMENU__@@HH@Z 0000000140040e30 f   VibraimageExMenu.obj
 0001:0003ffc0       ?CreateFromMenuStd@CVibraimageExMenu@@UEAAXPEAUHMENU__@@HH@Z 0000000140040fc0 f   VibraimageExMenu.obj
 0001:0003ffd0       ?DockPaneStandard@CPane@@UEAAPEAV1@AEAH@Z 0000000140040fd0 f i VibraimageExMenu.obj
 0001:0003ffe0       ?GetAvailableExpandSize@CMFCMenuBar@@UEBAHXZ 0000000140040fe0 f i VibraimageExMenu.obj
 0001:00040000       ?GetColumnWidth@CMFCMenuBar@@UEBAHXZ 0000000140041000 f i VibraimageExMenu.obj
 0001:00040130       ?GetCommandTarget@CMFCToolBar@@MEBAPEAVCWnd@@XZ 0000000140041130 f i VibraimageExMenu.obj
 0001:000401a0       ?GetFlag@CVibraimageExMenu@@UEAA_NPEBD@Z 00000001400411a0 f   VibraimageExMenu.obj
 0001:000402a0       ?GetMessageMap@CVibraimageExMenu@@MEBAPEBUAFX_MSGMAP@@XZ 00000001400412a0 f   VibraimageExMenu.obj
 0001:000402b0       ?GetMinSize@CMFCBaseToolBar@@UEBAXAEAVCSize@@@Z 00000001400412b0 f i VibraimageExMenu.obj
 0001:000402f0       ?GetRuntimeClass@CVibraimageExMenu@@UEBAPEAUCRuntimeClass@@XZ 00000001400412f0 f   VibraimageExMenu.obj
 0001:00040300       ?GetTextID@CVibraimageExMenu@@UEAAHH_N@Z 0000000140041300 f   VibraimageExMenu.obj
 0001:00040360       ?IsFloating@CMFCToolBar@@UEBAHXZ 0000000140041360 f i VibraimageExMenu.obj
 0001:00040370       ?IsResourceChanged@CMFCToolBar@@UEBAHXZ 0000000140041370 f i VibraimageExMenu.obj
 0001:00040380       ?Load@CVibraimageExMenu@@QEAA_NAEAVCMenu@@AEAVxml_node@pugi@@H@Z 0000000140041380 f   VibraimageExMenu.obj
 0001:00040cd0       ?Load@CVibraimageExMenu@@QEAA_NAEAVCMenu@@AEBV?$CStringT@_WV?$StrTraitMFC_DLL@_WV?$ChTraitsCRT@_W@ATL@@@@@ATL@@@Z 0000000140041cd0 f   VibraimageExMenu.obj
 0001:00040e70       ?MapID@CVibraimageExMenu@@UEAAHH@Z 0000000140041e70 f   VibraimageExMenu.obj
 0001:00040ec0       ?NewMenuBar@CVibraimageExMenu@@QEAAXXZ 0000000140041ec0 f   VibraimageExMenu.obj
 0001:00040ef0       ?OnShowWindow@CVibraimageExMenu@@QEAAXHI@Z 0000000140041ef0 f   VibraimageExMenu.obj
 0001:00040f20       ?OnTimer@CVibraimageExMenu@@QEAAX_K@Z 0000000140041f20 f   VibraimageExMenu.obj
 0001:00041040       ?Serialize@?$CList@II@@UEAAXAEAVCArchive@@@Z 0000000140042040 f i VibraimageExMenu.obj
 0001:00041200       ?Show@CVibraimageExMenu@@UEAAX_N@Z 0000000140042200 f   VibraimageExMenu.obj
 0001:00041240       ?_GetBaseClass@CVibraimageExMenu@@KAPEAUCRuntimeClass@@XZ 0000000140042240 f   VibraimageExMenu.obj
 0001:00041250       ??0CVibraimageExOverview@@QEAA@XZ 0000000140042250 f   VibraimageExOverview.obj
 0001:000412f0       ??1?$map@_KPEAUHBITMAP__@@U?$less@_K@std@@V?$allocator@U?$pair@$$CB_KPEAUHBITMAP__@@@std@@@3@@std@@QEAA@XZ 00000001400422f0 f i VibraimageExOverview.obj
 0001:00041350       ??BCDC@@QEBAPEAUHDC__@@XZ  0000000140042350 f i VibraimageExOverview.obj
 0001:00041360       ??_ECVibraimageExOverview@@WGPA@EAAPEAXI@Z 0000000140042360 f i VibraimageExOverview.obj
 0001:00041370       ??_GCVibraimageExOverview@@UEAAPEAXI@Z 0000000140042370 f i VibraimageExOverview.obj
 0001:00041370       ??_ECVibraimageExOverview@@UEAAPEAXI@Z 0000000140042370 f i VibraimageExOverview.obj
 0001:00041470       ??_GHistory@CVibraimageExOverview@@UEAAPEAXI@Z 0000000140042470 f i VibraimageExOverview.obj
 0001:00041470       ??_EHistory@CVibraimageExOverview@@UEAAPEAXI@Z 0000000140042470 f i VibraimageExOverview.obj
 0001:000414d0       ??_EView@CVibraimageExOverview@@UEAAPEAXI@Z 00000001400424d0 f i VibraimageExOverview.obj
 0001:000414d0       ??_GView@CVibraimageExOverview@@UEAAPEAXI@Z 00000001400424d0 f i VibraimageExOverview.obj
 0001:00041540       ?Align@CVibraimageExOverview@@QEAAXXZ 0000000140042540 f   VibraimageExOverview.obj
 0001:000418e0       ?Check@CVibraimageExOverview@@IEAAXXZ 00000001400428e0 f   VibraimageExOverview.obj
 0001:00041b10       ?Clear@CVibraimageExOverview@@IEAAXXZ 0000000140042b10 f   VibraimageExOverview.obj
 0001:00041bb0       ?Create@CVibraimageExOverview@@SAX_N@Z 0000000140042bb0 f   VibraimageExOverview.obj
 0001:00041cb0       ?CreateObject@CVibraimageExOverview@@SAPEAVCObject@@XZ 0000000140042cb0 f   VibraimageExOverview.obj
 0001:00041cf0       ?DestroyWindow@CVibraimageExOverview@@UEAAHXZ 0000000140042cf0 f   VibraimageExOverview.obj
 0001:00041d80       ?Draw@CImage@ATL@@QEBAHPEAUHDC__@@HHHHHHHH@Z 0000000140042d80 f i VibraimageExOverview.obj
 0001:00041fc0       ?Draw@History@CVibraimageExOverview@@QEAAXPEAVCDC@@AEAVCRect@@@Z 0000000140042fc0 f   VibraimageExOverview.obj
 0001:00042360       ?DrawImg@View@CVibraimageExOverview@@QEAAXPEAVCDC@@AEAVCRect@@@Z 0000000140043360 f   VibraimageExOverview.obj
 0001:000425e0       ?GetHash@History@CVibraimageExOverview@@QEAA_KPEAV?$map@_KPEAUHBITMAP__@@U?$less@_K@std@@V?$allocator@U?$pair@$$CB_KPEAUHBITMAP__@@@std@@@3@@std@@@Z 00000001400435e0 f   VibraimageExOverview.obj
 0001:00042860       ?GetMessageMap@CVibraimageExOverview@@MEBAPEBUAFX_MSGMAP@@XZ 0000000140043860 f   VibraimageExOverview.obj
 0001:00042870       ?GetMessageMap@History@CVibraimageExOverview@@MEBAPEBUAFX_MSGMAP@@XZ 0000000140043870 f   VibraimageExOverview.obj
 0001:00042880       ?GetMessageMap@View@CVibraimageExOverview@@MEBAPEBUAFX_MSGMAP@@XZ 0000000140043880 f   VibraimageExOverview.obj
 0001:00042890       ?GetRuntimeClass@CVibraimageExOverview@@UEBAPEAUCRuntimeClass@@XZ 0000000140043890 f   VibraimageExOverview.obj
 0001:000428a0       ?GetViewCount@CVibraimageExOverview@@IEAAH_NPEA_K@Z 00000001400438a0 f   VibraimageExOverview.obj
 0001:00042b10       ?OnClose@CVibraimageExOverview@@QEAAXXZ 0000000140043b10 f   VibraimageExOverview.obj
 0001:00042b50       ?OnCreate@CVibraimageExOverview@@QEAAHPEAUtagCREATESTRUCTW@@@Z 0000000140043b50 f   VibraimageExOverview.obj
 0001:00042c10       ?OnCreate@View@CVibraimageExOverview@@QEAAHPEAUtagCREATESTRUCTW@@@Z 0000000140043c10 f   VibraimageExOverview.obj
 0001:00042d60       ?OnDestroy@CVibraimageExOverview@@QEAAXXZ 0000000140043d60 f   VibraimageExOverview.obj
 0001:00042da0       ?OnNewVar@CVibraimageExOverview@@UEAAXHHH@Z 0000000140043da0 f   VibraimageExOverview.obj
 0001:00043040       ?OnPaint@History@CVibraimageExOverview@@QEAAXXZ 0000000140044040 f   VibraimageExOverview.obj
 0001:000430d0       ?OnPaint@View@CVibraimageExOverview@@QEAAXXZ 00000001400440d0 f   VibraimageExOverview.obj
 0001:000433a0       ?OnShowWindow@CVibraimageExOverview@@QEAAXHI@Z 00000001400443a0 f   VibraimageExOverview.obj
 0001:00043440       ?OnSize@CVibraimageExOverview@@QEAAXIHH@Z 0000000140044440 f   VibraimageExOverview.obj
 0001:00043470       ?OnTimer@CVibraimageExOverview@@QEAAX_K@Z 0000000140044470 f   VibraimageExOverview.obj
 0001:000434a0       ?PreCreateWindow@CVibraimageExOverview@@UEAAHAEAUtagCREATESTRUCTW@@@Z 00000001400444a0 f   VibraimageExOverview.obj
 0001:000434b0       ?UpdateLang@CVibraimageExOverview@@QEAAXXZ 00000001400444b0 f   VibraimageExOverview.obj
 0001:00043500       ??$_Erase_tree@V?$allocator@U?$_Tree_node@U?$pair@$$CBV?$CStringT@_WV?$StrTraitMFC_DLL@_WV?$ChTraitsCRT@_W@ATL@@@@@ATL@@V12@@std@@PEAX@std@@@std@@@?$_Tree_val@U?$_Tree_simple_types@U?$pair@$$CBV?$CStringT@_WV?$StrTraitMFC_DLL@_WV?$ChTraitsCRT@_W@ATL@@@@@ATL@@V12@@std@@@std@@@std@@QEAAXAEAV?$allocator@U?$_Tree_node@U?$pair@$$CBV?$CStringT@_WV?$StrTraitMFC_DLL@_WV?$ChTraitsCRT@_W@ATL@@@@@ATL@@V12@@std@@PEAX@std@@@1@PEAU?$_Tree_node@U?$pair@$$CBV?$CStringT@_WV?$StrTraitMFC_DLL@_WV?$ChTraitsCRT@_W@ATL@@@@@ATL@@V12@@std@@PEAX@1@@Z 0000000140044500 f i VibraimageExProp.obj
 0001:00043590       ??1?$map@V?$CStringT@_WV?$StrTraitMFC_DLL@_WV?$ChTraitsCRT@_W@ATL@@@@@ATL@@V12@U?$less@V?$CStringT@_WV?$StrTraitMFC_DLL@_WV?$ChTraitsCRT@_W@ATL@@@@@ATL@@@std@@V?$allocator@U?$pair@$$CBV?$CStringT@_WV?$StrTraitMFC_DLL@_WV?$ChTraitsCRT@_W@ATL@@@@@ATL@@V12@@std@@@4@@std@@QEAA@XZ 0000000140044590 f i VibraimageExProp.obj
 0001:000435bc       ??_ECVibraimageExProp@@WMJI@EAAPEAXI@Z 00000001400445bc f i VibraimageExProp.obj
 0001:000435d0       ??_GCVibraimageExProp@@UEAAPEAXI@Z 00000001400445d0 f i VibraimageExProp.obj
 0001:000435d0       ??_ECVibraimageExProp@@UEAAPEAXI@Z 00000001400445d0 f i VibraimageExProp.obj
 0001:00043650       ?AddItem@CVibraimageExProp@@UEAAPEAVITEM@CPropertiesWnd@CDockablePaneVI@@PEAV234@AEAVxml_node@pugi@@@Z 0000000140044650 f   VibraimageExProp.obj
 0001:000438c0       ?CanEdit@CVibraimageExProp@@UEAA_NPEAVCMFCPropertyGridProperty@@@Z 00000001400448c0 f   VibraimageExProp.obj
 0001:00043940       ?CanLoadState@CVibraimageExPropPack@@UEAA_NXZ 0000000140044940 f   VibraimageExProp.obj
 0001:00043980       ?CanSaveState@CVibraimageExPropPack@@UEAA_NXZ 0000000140044980 f   VibraimageExProp.obj
 0001:000439b0       ?CheckConfigVer@CVibraimageExPropPack@@SA_NPEB_W@Z 00000001400449b0 f   VibraimageExProp.obj
 0001:00044210       ?CreateWnd@CVibraimageExPropPack@@UEAAPEAVCPropertiesWndBase@CDockablePaneVI@@AEBV?$CStringT@DV?$StrTraitMFC_DLL@DV?$ChTraitsCRT@D@ATL@@@@@ATL@@H@Z 0000000140045210 f   VibraimageExProp.obj
 0001:000445b0       ?DockPane@CVibraimageExPropPack@@UEAA_NAEAUtagPANE@CPropertiesPack@CDockablePaneVI@@@Z 00000001400455b0 f   VibraimageExProp.obj
 0001:000447f0       ?GetConfigBase@CVibraimageExPropPack@@UEAA?AV?$CStringT@_WV?$StrTraitMFC_DLL@_WV?$ChTraitsCRT@_W@ATL@@@@@ATL@@XZ 00000001400457f0 f   VibraimageExProp.obj
 0001:00044820       ?GetLang@CVibraimageExPropPack@@UEAAPEB_WHPEB_W@Z 0000000140045820 f   VibraimageExProp.obj
 0001:00044860       ?GetLang@CVibraimageExPropPack@@UEAAPEB_WPEB_W0@Z 0000000140045860 f   VibraimageExProp.obj
 0001:000448a0       ?GetLangId@CVibraimageExPropPack@@UEAAHPEB_W@Z 00000001400458a0 f   VibraimageExProp.obj
 0001:000448d0       ?GetMessageMap@CVibraimageExProp@@MEBAPEBUAFX_MSGMAP@@XZ 00000001400458d0 f   VibraimageExProp.obj
 0001:000448e0       ?GetOwnerId@CVibraimageExPropPack@@UEAAHAEBV?$CStringT@DV?$StrTraitMFC_DLL@DV?$ChTraitsCRT@D@ATL@@@@@ATL@@@Z 00000001400458e0 f   VibraimageExProp.obj
 0001:00044950       ?GetProfileIntW@CVibraimageExPropPack@@UEAAHPEB_W0H@Z 0000000140045950 f   VibraimageExProp.obj
 0001:000449a0       ?GetProfileStringW@CVibraimageExPropPack@@UEAA?AV?$CStringT@_WV?$StrTraitMFC_DLL@_WV?$ChTraitsCRT@_W@ATL@@@@@ATL@@PEB_W0V23@@Z 00000001400459a0 f   VibraimageExProp.obj
 0001:00044a90       ?GetValue@CVibraimageExPropPack@@UEAA_NPEAUtagITEM_VALUE@CPropertiesWnd@CDockablePaneVI@@G@Z 0000000140045a90 f   VibraimageExProp.obj
 0001:00044d00       ?GetValue@CVibraimageExPropPack@@UEAA_NPEAVITEM@CPropertiesWnd@CDockablePaneVI@@G@Z 0000000140045d00 f   VibraimageExProp.obj
 0001:00044dc0       ?GetWndColor@CVibraimageExProp@@UEAAKH@Z 0000000140045dc0 f   VibraimageExProp.obj
 0001:00044df0       ?OnChangeSelection@CVibraimageExProp@@UEAAXPEAVITEM@CPropertiesWnd@CDockablePaneVI@@@Z 0000000140045df0 f   VibraimageExProp.obj
 0001:00044e60       ?OnClickValue@CVibraimageExProp@@UEAA_NPEAVITEM@CPropertiesWnd@CDockablePaneVI@@@Z 0000000140045e60 f   VibraimageExProp.obj
 0001:00044e60       ?OnDblClk@CVibraimageExProp@@UEAA_NPEAVITEM@CPropertiesWnd@CDockablePaneVI@@@Z 0000000140045e60 f   VibraimageExProp.obj
 0001:00044f40       ?OnNewVar@CVibraimageExProp@@UEAAXHH@Z 0000000140045f40 f   VibraimageExProp.obj
 0001:00044f60       ?OnTimer@CVibraimageExProp@@UEAAX_K@Z 0000000140045f60 f   VibraimageExProp.obj
 0001:00044f70       ?PurgeRegConfig@CVibraimageExPropPack@@SAXPEB_W@Z 0000000140045f70 f   VibraimageExProp.obj
 0001:000451e0       ?SetValue@CVibraimageExPropPack@@UEAA_NPEAUtagITEM_VALUE@CPropertiesWnd@CDockablePaneVI@@@Z 00000001400461e0 f   VibraimageExProp.obj
 0001:00045470       ?SetValue@CVibraimageExPropPack@@UEAA_NPEAVITEM@CPropertiesWnd@CDockablePaneVI@@@Z 0000000140046470 f   VibraimageExProp.obj
 0001:00045510       ?Tag2Id@CVibraimageExPropPack@@UEAAHAEBV?$CStringT@_WV?$StrTraitMFC_DLL@_WV?$ChTraitsCRT@_W@ATL@@@@@ATL@@@Z 0000000140046510 f   VibraimageExProp.obj
 0001:00045560       ?UpdateColor@CVibraimageExProp@@UEAAXPEAVITEM@CPropertiesWnd@CDockablePaneVI@@@Z 0000000140046560 f   VibraimageExProp.obj
 0001:000455c0       ?WriteProfileInt@CVibraimageExPropPack@@UEAAXPEB_W0H@Z 00000001400465c0 f   VibraimageExProp.obj
 0001:00045610       ?WriteProfileStringW@CVibraimageExPropPack@@UEAAXPEB_W0V?$CStringT@_WV?$StrTraitMFC_DLL@_WV?$ChTraitsCRT@_W@ATL@@@@@ATL@@@Z 0000000140046610 f   VibraimageExProp.obj
 0001:00045690       ??0CVibraimageExQT@@QEAA@PEAVCPropertiesPack@CDockablePaneVI@@H@Z 0000000140046690 f   VibraimageExQT.obj
 0001:00045730       ??A?$map@MKU?$less@M@std@@V?$allocator@U?$pair@$$CBMK@std@@@2@@std@@QEAAAEAK$$QEAM@Z 0000000140046730 f i VibraimageExQT.obj
 0001:0004582c       ??_ECVibraimageExQT@@WFBA@EAAPEAXI@Z 000000014004682c f i VibraimageExQT.obj
 0001:00045840       ??_ECVibraimageExQT@@UEAAPEAXI@Z 0000000140046840 f i VibraimageExQT.obj
 0001:00045840       ??_GCVibraimageExQT@@UEAAPEAXI@Z 0000000140046840 f i VibraimageExQT.obj
 0001:00045990       ?Align@CVibraimageExQT@@QEAAXXZ 0000000140046990 f   VibraimageExQT.obj
 0001:00045bc0       ?FormatMenu@CVibraimageExQT@@QEAA_NPEAVCCmdUI@@AEBV?$CStringT@_WV?$StrTraitMFC_DLL@_WV?$ChTraitsCRT@_W@ATL@@@@@ATL@@HH@Z 0000000140046bc0 f   VibraimageExQT.obj
 0001:00045c90       ?GetMessageMap@CVibraimageExQT@@MEBAPEBUAFX_MSGMAP@@XZ 0000000140046c90 f   VibraimageExQT.obj
 0001:00045ca0       ?GetRuntimeClass@CVibraimageExQT@@UEBAPEAUCRuntimeClass@@XZ 0000000140046ca0 f   VibraimageExQT.obj
 0001:00045cb0       ?Load@CVibraimageExQT@@UEAA_NAEAVxml_node@pugi@@@Z 0000000140046cb0 f   VibraimageExQT.obj
 0001:00045d70       ?LoadBtns@CVibraimageExQT@@UEAAHAEAVxml_node@pugi@@@Z 0000000140046d70 f   VibraimageExQT.obj
 0001:00045dd0       ?LoadBtns@CVibraimageExQT@@UEAAHAEAVxml_node@pugi@@H@Z 0000000140046dd0 f   VibraimageExQT.obj
 0001:00046320       ?OnCreate@CVibraimageExQT@@QEAAHPEAUtagCREATESTRUCTW@@@Z 0000000140047320 f   VibraimageExQT.obj
 0001:00046480       ?OnMove@CVibraimageExQT@@QEAAXHH@Z 0000000140047480 f   VibraimageExQT.obj
 0001:000464b0       ?OnNewVar@CVibraimageExQT@@UEAAXHH@Z 00000001400474b0 f   VibraimageExQT.obj
 0001:000467c0       ?OnSize@CVibraimageExQT@@QEAAXIHH@Z 00000001400477c0 f   VibraimageExQT.obj
 0001:000467e0       ?OnTimer@CVibraimageExQT@@UEAAX_K@Z 00000001400477e0 f   VibraimageExQT.obj
 0001:00046820       ?PutQT@CVibraimageExQT@@QEAAXMH@Z 0000000140047820 f   VibraimageExQT.obj
 0001:00046f00       ?PutQT@CVibraimageExQT@@QEAAXXZ 0000000140047f00 f   VibraimageExQT.obj
 0001:00046fd0       ?UpdateUI@CVibraimageExQT@@QEAAX_N@Z 0000000140047fd0 f   VibraimageExQT.obj
 0001:00047210       ?isQT@CVibraimageExQT@@QEAAHXZ 0000000140048210 f   VibraimageExQT.obj
 0001:00047280       ??0CVibraimageExSV@@QEAA@PEAVCPropertiesPack@CDockablePaneVI@@H@Z 0000000140048280 f   VibraimageExSV.obj
 0001:000472ec       ??_ECVibraimageExSV@@WFBA@EAAPEAXI@Z 00000001400482ec f i VibraimageExSV.obj
 0001:00047300       ??_ECVibraimageExSV@@UEAAPEAXI@Z 0000000140048300 f i VibraimageExSV.obj
 0001:00047300       ??_GCVibraimageExSV@@UEAAPEAXI@Z 0000000140048300 f i VibraimageExSV.obj
 0001:00047390       ?Align@CVibraimageExSV@@QEAAXXZ 0000000140048390 f   VibraimageExSV.obj
 0001:00047470       ?GetMessageMap@CVibraimageExSV@@MEBAPEBUAFX_MSGMAP@@XZ 0000000140048470 f   VibraimageExSV.obj
 0001:00047480       ?GetRuntimeClass@CVibraimageExSV@@UEBAPEAUCRuntimeClass@@XZ 0000000140048480 f   VibraimageExSV.obj
 0001:00047490       ?OnMove@CVibraimageExSV@@QEAAXHH@Z 0000000140048490 f   VibraimageExSV.obj
 0001:000474c0       ?OnNewVar@CVibraimageExSV@@UEAAXHH@Z 00000001400484c0 f   VibraimageExSV.obj
 0001:00047680       ?OnSize@CVibraimageExSV@@QEAAXIHH@Z 0000000140048680 f   VibraimageExSV.obj
 0001:000476a0       ??0CVibraimageExToolBar@@QEAA@XZ 00000001400486a0 f   VibraimageExToolBar.obj
 0001:000476d0       ??1CVibraimageExToolBar@@UEAA@XZ 00000001400486d0 f   VibraimageExToolBar.obj
 0001:00047710       ??_EBTN@CVibraimageExToolBar@@UEAAPEAXI@Z 0000000140048710 f i VibraimageExToolBar.obj
 0001:00047710       ??_GBTN@CVibraimageExToolBar@@UEAAPEAXI@Z 0000000140048710 f i VibraimageExToolBar.obj
 0001:00047770       ??_ECVibraimageExToolBar@@UEAAPEAXI@Z 0000000140048770 f i VibraimageExToolBar.obj
 0001:00047770       ??_GCVibraimageExToolBar@@UEAAPEAXI@Z 0000000140048770 f i VibraimageExToolBar.obj
 0001:000477f0       ?CanBeClosed@CMFCToolBar@@UEBAHXZ 00000001400487f0 f i VibraimageExToolBar.obj
 0001:00047800       ?EnableWindow@CMFCToolBarButton@@UEAAXH@Z 0000000140048800 f i VibraimageExToolBar.obj
 0001:00047840       ?GetColumnWidth@CMFCToolBar@@UEBAHXZ 0000000140048840 f i VibraimageExToolBar.obj
 0001:00047960       ?GetGlobalData@@YAPEAUAFX_GLOBAL_DATA@@XZ 0000000140048960 f i VibraimageExToolBar.obj
 0001:000479a0       ?GetInvalidateRect@CMFCToolBarButton@@UEBA?BVCRect@@XZ 00000001400489a0 f i VibraimageExToolBar.obj
 0001:000479b0       ?GetMessageMap@CVibraimageExToolBar@@MEBAPEBUAFX_MSGMAP@@XZ 00000001400489b0 f   VibraimageExToolBar.obj
 0001:000479c0       ?GetRuntimeClass@CVibraimageExToolBar@@UEBAPEAUCRuntimeClass@@XZ 00000001400489c0 f   VibraimageExToolBar.obj
 0001:000479d0       ?HasFocus@CMFCToolBarButton@@UEBAHXZ 00000001400489d0 f i VibraimageExToolBar.obj
 0001:00047a20       ?IsEditable@CMFCToolBarButton@@UEBAHXZ 0000000140048a20 f i VibraimageExToolBar.obj
 0001:00047ab0       ?IsExtraSize@CMFCToolBarButton@@UEBAHXZ 0000000140048ab0 f i VibraimageExToolBar.obj
 0001:00047ac0       ?IsOwnerOf@CMFCToolBarButton@@UEAAHPEAUHWND__@@@Z 0000000140048ac0 f i VibraimageExToolBar.obj
 0001:00047b30       ?IsPureMenuButton@CMFCToolBar@@MEBAHPEAVCMFCToolBarButton@@@Z 0000000140048b30 f i VibraimageExToolBar.obj
 0001:00047b40       ?IsWindowVisible@CMFCToolBarButton@@UEAAHXZ 0000000140048b40 f i VibraimageExToolBar.obj
 0001:00047ba0       ?Load@CVibraimageExToolBar@@QEAA_NAEBV?$CStringT@_WV?$StrTraitMFC_DLL@_WV?$ChTraitsCRT@_W@ATL@@@@@ATL@@@Z 0000000140048ba0 f   VibraimageExToolBar.obj
 0001:00048410       ?LoadButton@CVibraimageExToolBar@@QEAAPEAVCMFCToolBarButton@@AEAVxml_node@pugi@@HH@Z 0000000140049410 f   VibraimageExToolBar.obj
 0001:00048750       ?OnEraseBkgnd@CVibraimageExToolBar@@QEAAHPEAVCDC@@@Z 0000000140049750 f   VibraimageExToolBar.obj
 0001:00048760       ?OnGetCustomToolTipText@BTN@CVibraimageExToolBar@@UEAAHAEAV?$CStringT@_WV?$StrTraitMFC_DLL@_WV?$ChTraitsCRT@_W@ATL@@@@@ATL@@@Z 0000000140049760 f   VibraimageExToolBar.obj
 0001:000487c0       ?OnUpdateToolTip@BTN@CVibraimageExToolBar@@UEAAHPEAVCWnd@@HAEAVCToolTipCtrl@@AEAV?$CStringT@_WV?$StrTraitMFC_DLL@_WV?$ChTraitsCRT@_W@ATL@@@@@ATL@@@Z 00000001400497c0 f   VibraimageExToolBar.obj
 0001:00048880       ?SetStyle@CMFCToolBarButton@@UEAAXI@Z 0000000140049880 f i VibraimageExToolBar.obj
 0001:00048890       ?_GetBaseClass@CVibraimageExToolBar@@KAPEAUCRuntimeClass@@XZ 0000000140049890 f   VibraimageExToolBar.obj
 0001:00048898       ??_ECVibraimageExView@@WPI@EAAPEAXI@Z 0000000140049898 f i VibraimageExView.obj
 0001:000488b0       ??_ECVibraimageExView@@UEAAPEAXI@Z 00000001400498b0 f i VibraimageExView.obj
 0001:000488b0       ??_GCVibraimageExView@@UEAAPEAXI@Z 00000001400498b0 f i VibraimageExView.obj
 0001:00048960       ??_ETAB@CVibraimageExView@@UEAAPEAXI@Z 0000000140049960 f i VibraimageExView.obj
 0001:00048960       ??_GTAB@CVibraimageExView@@UEAAPEAXI@Z 0000000140049960 f i VibraimageExView.obj
 0001:000489c0       ?ActivateOnBtnUp@CMFCBaseTabCtrl@@MEBAHXZ 00000001400499c0 f i VibraimageExView.obj
 0001:000489d0       ?AddTab@CVibraimageExView@@QEAAXPEAVCWnd@@PEB_WIH@Z 00000001400499d0 f   VibraimageExView.obj
 0001:00048ce0       ?Align@CVibraimageExView@@QEAAXXZ 0000000140049ce0 f   VibraimageExView.obj
 0001:00048ed0       ?CalcRectEdit@CMFCTabCtrl@@UEAAXAEAVCRect@@@Z 0000000140049ed0 f i VibraimageExView.obj
 0001:00048f00       ?CreateObject@CVibraimageExView@@SAPEAVCObject@@XZ 0000000140049f00 f   VibraimageExView.obj
 0001:00048fa0       ?GetActiveTab@CMFCBaseTabCtrl@@UEBAHXZ 0000000140049fa0 f i VibraimageExView.obj
 0001:00048fb0       ?GetActiveTabColor@CMFCBaseTabCtrl@@UEBAKXZ 0000000140049fb0 f i VibraimageExView.obj
 0001:00048ff0       ?GetActiveTabTextColor@CMFCBaseTabCtrl@@UEBAKXZ 0000000140049ff0 f i VibraimageExView.obj
 0001:00049030       ?GetFirstVisibleTabNum@CMFCTabCtrl@@UEBAHXZ 000000014004a030 f i VibraimageExView.obj
 0001:00049070       ?GetImageList@CMFCBaseTabCtrl@@UEBAPEBVCImageList@@XZ 000000014004a070 f i VibraimageExView.obj
 0001:000490a0       ?GetImageSize@CMFCBaseTabCtrl@@UEBA?AVCSize@@XZ 000000014004a0a0 f i VibraimageExView.obj
 0001:000490b0       ?GetMessageMap@CVibraimageExView@@MEBAPEBUAFX_MSGMAP@@XZ 000000014004a0b0 f   VibraimageExView.obj
 0001:000492a0       ?GetRuntimeClass@CVibraimageExView@@UEBAPEAUCRuntimeClass@@XZ 000000014004a2a0 f   VibraimageExView.obj
 0001:000492a0       ?GetThisClass@CVibraimageExView@@SAPEAUCRuntimeClass@@XZ 000000014004a2a0 f   VibraimageExView.obj
 0001:000492b0       ?GetTabArea@CMFCTabCtrl@@UEBAXAEAVCRect@@0@Z 000000014004a2b0 f i VibraimageExView.obj
 0001:00049310       ?GetTabBorderSize@CMFCBaseTabCtrl@@UEBAHXZ 000000014004a310 f i VibraimageExView.obj
 0001:00049340       ?GetTabName@CVibraimageExView@@QEAA?AV?$CStringT@_WV?$StrTraitMFC_DLL@_WV?$ChTraitsCRT@_W@ATL@@@@@ATL@@H@Z 000000014004a340 f   VibraimageExView.obj
 0001:00049400       ?GetTabsHeight@CMFCTabCtrl@@UEBAHXZ 000000014004a400 f i VibraimageExView.obj
 0001:00049450       ?GetTabsNum@CMFCBaseTabCtrl@@UEBAHXZ 000000014004a450 f i VibraimageExView.obj
 0001:00049460       ?GetTabsRect@CMFCTabCtrl@@UEBAXAEAVCRect@@@Z 000000014004a460 f i VibraimageExView.obj
 0001:00049470       ?IsActiveTabCloseButton@CMFCTabCtrl@@UEBAHXZ 000000014004a470 f i VibraimageExView.obj
 0001:00049480       ?IsFlatFrame@CMFCTabCtrl@@UEBAHXZ 000000014004a480 f i VibraimageExView.obj
 0001:00049490       ?IsFlatTab@CMFCTabCtrl@@UEBAHXZ 000000014004a490 f i VibraimageExView.obj
 0001:000494a0       ?IsHideSingleTab@CMFCBaseTabCtrl@@UEBAHXZ 000000014004a4a0 f i VibraimageExView.obj
 0001:000494b0       ?IsInPlaceEdit@CMFCBaseTabCtrl@@UEBAHXZ 000000014004a4b0 f i VibraimageExView.obj
 0001:000494c0       ?IsLeftRightRounded@CMFCTabCtrl@@UEBAHXZ 000000014004a4c0 f i VibraimageExView.obj
 0001:000494d0       ?IsOneNoteStyle@CMFCTabCtrl@@UEBAHXZ 000000014004a4d0 f i VibraimageExView.obj
 0001:000494e0       ?IsVS2005Style@CMFCTabCtrl@@UEBAHXZ 000000014004a4e0 f i VibraimageExView.obj
 0001:000494f0       ?OnAfxWmChangingActiveTab@CVibraimageExView@@IEAA_J_K_J@Z 000000014004a4f0 f   VibraimageExView.obj
 0001:00049540       ?OnAfxWmRenameTab@CVibraimageExView@@IEAA_J_K_J@Z 000000014004a540 f   VibraimageExView.obj
 0001:00049600       ?OnCloseFrame@CVibraimageExView@@QEAAXXZ 000000014004a600 f   VibraimageExView.obj
 0001:00049660       ?OnCommand@TAB@CVibraimageExView@@UEAAH_K_J@Z 000000014004a660 f   VibraimageExView.obj
 0001:00049790       ?OnContextMenu@CVibraimageExView@@IEAAXPEAVCWnd@@VCPoint@@@Z 000000014004a790 f   VibraimageExView.obj
 0001:00049db0       ?OnCreate@CVibraimageExView@@IEAAHPEAUtagCREATESTRUCTW@@@Z 000000014004adb0 f   VibraimageExView.obj
 0001:00049dd0       ?OnInit@CVibraimageExView@@QEAAXXZ 000000014004add0 f   VibraimageExView.obj
 0001:00049e10       ?OnInitialUpdate@CVibraimageExView@@UEAAXXZ 000000014004ae10 f   VibraimageExView.obj
 0001:00049e70       ?OnLButtonDblClk@CVibraimageExView@@IEAAXIVCPoint@@@Z 000000014004ae70 f   VibraimageExView.obj
 0001:00049fd0       ?OnLButtonDown@CVibraimageExView@@IEAAXIVCPoint@@@Z 000000014004afd0 f   VibraimageExView.obj
 0001:0004a010       ?OnPreparePrinting@CVibraimageExView@@MEAAHPEAUCPrintInfo@@@Z 000000014004b010 f   VibraimageExView.obj
 0001:0004a020       ?OnRButtonUp@CVibraimageExView@@IEAAXIVCPoint@@@Z 000000014004b020 f   VibraimageExView.obj
 0001:0004a040       ?OnSize@CVibraimageExView@@IEAAXIHH@Z 000000014004b040 f   VibraimageExView.obj
 0001:0004a060       ?PreCreateWindow@CVibraimageExView@@UEAAHAEAUtagCREATESTRUCTW@@@Z 000000014004b060 f   VibraimageExView.obj
 0001:0004a070       ?RemoveTab@CVibraimageExView@@QEAAXPEAVCWnd@@@Z 000000014004b070 f   VibraimageExView.obj
 0001:0004a0d0       ?ShowTab@CVibraimageExView@@QEAA_NPEAVCBasePane@@H@Z 000000014004b0d0 f   VibraimageExView.obj
 0001:0004a170       ?_GetBaseClass@CVibraimageExView@@KAPEAUCRuntimeClass@@XZ 000000014004b170 f   VibraimageExView.obj
 0001:0004a180       ??0CVibraimageExVPos@@QEAA@PEAVCPropertiesPack@CDockablePaneVI@@H@Z 000000014004b180 f   VibraimageExVPos.obj
 0001:0004a224       ??_ECVibraimageExVPos@@WFBA@EAAPEAXI@Z 000000014004b224 f i VibraimageExVPos.obj
 0001:0004a230       ??_ECSliderCtrl@@UEAAPEAXI@Z 000000014004b230 f i VibraimageExVPos.obj
 0001:0004a230       ??_GCSliderCtrl@@UEAAPEAXI@Z 000000014004b230 f i VibraimageExVPos.obj
 0001:0004a280       ??_ECVibraimageExVPos@@UEAAPEAXI@Z 000000014004b280 f i VibraimageExVPos.obj
 0001:0004a280       ??_GCVibraimageExVPos@@UEAAPEAXI@Z 000000014004b280 f i VibraimageExVPos.obj
 0001:0004a320       ?Align@CVibraimageExVPos@@QEAAXXZ 000000014004b320 f   VibraimageExVPos.obj
 0001:0004a4e0       ?GetMessageMap@CVibraimageExVPos@@MEBAPEBUAFX_MSGMAP@@XZ 000000014004b4e0 f   VibraimageExVPos.obj
 0001:0004a4f0       ?GetRuntimeClass@CVibraimageExVPos@@UEBAPEAUCRuntimeClass@@XZ 000000014004b4f0 f   VibraimageExVPos.obj
 0001:0004a500       ?OnActionPause@CVibraimageExVPos@@QEAAXXZ 000000014004b500 f   VibraimageExVPos.obj
 0001:0004a5b0       ?OnCreate@CVibraimageExVPos@@QEAAHPEAUtagCREATESTRUCTW@@@Z 000000014004b5b0 f   VibraimageExVPos.obj
 0001:0004a6d0       ?OnEraseBkgnd@CVibraimageExVPos@@QEAAHPEAVCDC@@@Z 000000014004b6d0 f   VibraimageExVPos.obj
 0001:0004a740       ?OnHScroll@CVibraimageExVPos@@QEAAXIIPEAVCScrollBar@@@Z 000000014004b740 f   VibraimageExVPos.obj
 0001:0004a790       ?OnMove@CVibraimageExVPos@@QEAAXHH@Z 000000014004b790 f   VibraimageExVPos.obj
 0001:0004a7b0       ?OnScroll@CVibraimageExVPos@@QEAAXIIPEAVCScrollBar@@@Z 000000014004b7b0 f   VibraimageExVPos.obj
 0001:0004a890       ?OnSize@CVibraimageExVPos@@QEAAXIHH@Z 000000014004b890 f   VibraimageExVPos.obj
 0001:0004a8b0       ?OnTimer@CVibraimageExVPos@@UEAAX_K@Z 000000014004b8b0 f   VibraimageExVPos.obj
 0001:0004aac0       ?OnUpdateActionPause@CVibraimageExVPos@@QEAAXPEAVCCmdUI@@@Z 000000014004bac0 f   VibraimageExVPos.obj
 0001:0004ac50       ?OnVScroll@CVibraimageExVPos@@QEAAXIIPEAVCScrollBar@@@Z 000000014004bc50 f   VibraimageExVPos.obj
 0001:0004aca0       ??0CViEngineExProc@@QEAA@XZ 000000014004bca0 f   ViEngineExProc.obj
 0001:0004ad30       ??1CViEngineExProc@@UEAA@XZ 000000014004bd30 f   ViEngineExProc.obj
 0001:0004ae00       ??_ECViEngineExProc@@UEAAPEAXI@Z 000000014004be00 f i ViEngineExProc.obj
 0001:0004ae00       ??_GCViEngineExProc@@UEAAPEAXI@Z 000000014004be00 f i ViEngineExProc.obj
 0001:0004aef0       ?Connect@CViEngineExProc@@QEAAXHPEAVCViEngineExProSDK_v01@CViEngineExNS@@@Z 000000014004bef0 f   ViEngineExProc.obj
 0001:0004afb0       ?FindResult@CViEngineExProc@@QEAAHVCPoint@@PEAVCRect@@@Z 000000014004bfb0 f   ViEngineExProc.obj
 0001:0004b080       ?GetMainWnd@CViEngineExProc@@UEAAPEAUHWND__@@XZ 000000014004c080 f   ViEngineExProc.obj
 0001:0004b090       ?GetOption@CViEngineExProc@@UEAA_NPEB_WHPEA_WH@Z 000000014004c090 f   ViEngineExProc.obj
 0001:0004b1c0       ?GetWndColor@CViEngineExProc@@UEAAKH@Z 000000014004c1c0 f   ViEngineExProc.obj
 0001:0004b1d0       ?IsOptionSet@CViEngineExProc@@UEAA_NPEB_WH@Z 000000014004c1d0 f   ViEngineExProc.obj
 0001:0004b1e0       ?Log@CViEngineExProc@@UEAAXPEB_W@Z 000000014004c1e0 f   ViEngineExProc.obj
 0001:0004b2c0       ?OnAudioFrame@CViEngineExProc@@UEAAHNPEAEJPEAX@Z 000000014004c2c0 f   ViEngineExProc.obj
 0001:0004b2f0       ?OnCloseRequest@CViEngineExProc@@UEAAXXZ 000000014004c2f0 f   ViEngineExProc.obj
 0001:0004b350       ?OnError@CViEngineExProc@@UEAAXHGPEB_W@Z 000000014004c350 f   ViEngineExProc.obj
 0001:0004b360       ?OnFaceDetected@CViEngineExProc@@UEAAXPEAUtagVI_FACE_INFO_DATA@@@Z 000000014004c360 f   ViEngineExProc.obj
 0001:0004b3f0       ?OnLoginWindow@CViEngineExProc@@UEAAX_N@Z 000000014004c3f0 f   ViEngineExProc.obj
 0001:0004b410       ?OnNewVar@CViEngineExProc@@UEAAXHH@Z 000000014004c410 f   ViEngineExProc.obj
 0001:0004b470       ?OnPlaySound@CViEngineExProc@@UEAAXHMMPEB_W_K@Z 000000014004c470 f   ViEngineExProc.obj
 0001:0004b4e0       ?OnResultAlign@CViEngineExProc@@UEAA_NHPEAUHWND__@@PEAKHH@Z 000000014004c4e0 f   ViEngineExProc.obj
 0001:0004b650       ?OnVideoFrame@CViEngineExProc@@UEAAHNPEAEJPEAX@Z 000000014004c650 f   ViEngineExProc.obj
 0001:0004b700       ?_Destroy@?$_Ref_count_obj@VCViEngineExSupport@@@std@@EEAAXXZ 000000014004c700 f i ViEngineExProc.obj
 0001:0004b710       ?erase@?$_Tree@V?$_Tmap_traits@HVCRect@@U?$less@H@std@@V?$allocator@U?$pair@$$CBHVCRect@@@std@@@3@$0A@@std@@@std@@QEAA_KAEBH@Z 000000014004c710 f i ViEngineExProc.obj
 0001:0004b950       ?molMakePreFileData@CViEngineExProc@@UEAAPEBDPEBD00@Z 000000014004c950 f   ViEngineExProc.obj
 0001:0004b950       ?molMakeUrl@CViEngineExProc@@UEAAPEB_WPEB_W@Z 000000014004c950 f   ViEngineExProc.obj
 0001:0004b960       ??$_Erase_tree@V?$allocator@U?$_Tree_node@U?$pair@$$CBV?$CStringT@_WV?$StrTraitMFC_DLL@_WV?$ChTraitsCRT@_W@ATL@@@@@ATL@@VSESSIONREF@CViEngineExProcDb@@@std@@PEAX@std@@@std@@@?$_Tree_val@U?$_Tree_simple_types@U?$pair@$$CBV?$CStringT@_WV?$StrTraitMFC_DLL@_WV?$ChTraitsCRT@_W@ATL@@@@@ATL@@VSESSIONREF@CViEngineExProcDb@@@std@@@std@@@std@@QEAAXAEAV?$allocator@U?$_Tree_node@U?$pair@$$CBV?$CStringT@_WV?$StrTraitMFC_DLL@_WV?$ChTraitsCRT@_W@ATL@@@@@ATL@@VSESSIONREF@CViEngineExProcDb@@@std@@PEAX@std@@@1@PEAU?$_Tree_node@U?$pair@$$CBV?$CStringT@_WV?$StrTraitMFC_DLL@_WV?$ChTraitsCRT@_W@ATL@@@@@ATL@@VSESSIONREF@CViEngineExProcDb@@@std@@PEAX@1@@Z 000000014004c960 f i ViEngineExProcDb.obj
 0001:0004ba60       ??$_Try_emplace@V?$CStringT@_WV?$StrTraitMFC_DLL@_WV?$ChTraitsCRT@_W@ATL@@@@@ATL@@$$V@?$map@V?$CStringT@_WV?$StrTraitMFC_DLL@_WV?$ChTraitsCRT@_W@ATL@@@@@ATL@@VSESSIONREF@CViEngineExProcDb@@U?$less@V?$CStringT@_WV?$StrTraitMFC_DLL@_WV?$ChTraitsCRT@_W@ATL@@@@@ATL@@@std@@V?$allocator@U?$pair@$$CBV?$CStringT@_WV?$StrTraitMFC_DLL@_WV?$ChTraitsCRT@_W@ATL@@@@@ATL@@VSESSIONREF@CViEngineExProcDb@@@std@@@6@@std@@AEAA?AU?$pair@PEAU?$_Tree_node@U?$pair@$$CBV?$CStringT@_WV?$StrTraitMFC_DLL@_WV?$ChTraitsCRT@_W@ATL@@@@@ATL@@VSESSIONREF@CViEngineExProcDb@@@std@@PEAX@std@@_N@1@$$QEAV?$CStringT@_WV?$StrTraitMFC_DLL@_WV?$ChTraitsCRT@_W@ATL@@@@@ATL@@@Z 000000014004ca60 f i ViEngineExProcDb.obj
 0001:0004bbf0       ??0CViEngineExProcDb@@QEAA@XZ 000000014004cbf0 f   ViEngineExProcDb.obj
 0001:0004bcb0       ??1?$_Tree_temp_node_alloc@V?$allocator@U?$_Tree_node@U?$pair@$$CBV?$CStringT@_WV?$StrTraitMFC_DLL@_WV?$ChTraitsCRT@_W@ATL@@@@@ATL@@VSESSIONREF@CViEngineExProcDb@@@std@@PEAX@std@@@std@@@std@@QEAA@XZ 000000014004ccb0 f i ViEngineExProcDb.obj
 0001:0004bcb0       ??1?$_Alloc_construct_ptr@V?$allocator@U?$_Tree_node@U?$pair@$$CBV?$CStringT@_WV?$StrTraitMFC_DLL@_WV?$ChTraitsCRT@_W@ATL@@@@@ATL@@VSESSIONREF@CViEngineExProcDb@@@std@@PEAX@std@@@std@@@std@@QEAA@XZ 000000014004ccb0 f i ViEngineExProcDb.obj
 0001:0004bcd0       ??1?$map@V?$CStringT@_WV?$StrTraitMFC_DLL@_WV?$ChTraitsCRT@_W@ATL@@@@@ATL@@VSESSIONREF@CViEngineExProcDb@@U?$less@V?$CStringT@_WV?$StrTraitMFC_DLL@_WV?$ChTraitsCRT@_W@ATL@@@@@ATL@@@std@@V?$allocator@U?$pair@$$CBV?$CStringT@_WV?$StrTraitMFC_DLL@_WV?$ChTraitsCRT@_W@ATL@@@@@ATL@@VSESSIONREF@CViEngineExProcDb@@@std@@@6@@std@@QEAA@XZ 000000014004ccd0 f i ViEngineExProcDb.obj
 0001:0004bd00       ??1CViEngineExProcDb@@QEAA@XZ 000000014004cd00 f   ViEngineExProcDb.obj
 0001:0004bd90       ??1SESSIONREF@CViEngineExProcDb@@QEAA@XZ 000000014004cd90 f   ViEngineExProcDb.obj
 0001:0004be10       ?CheckItemID@CViEngineExProcDb@@UEAA_NPEB_W_N@Z 000000014004ce10 f   ViEngineExProcDb.obj
 0001:0004be70       ?Connect@CViEngineExProcDb@@QEAAXHPEAVCViEngineExProSDK_v01@CViEngineExNS@@@Z 000000014004ce70 f   ViEngineExProcDb.obj
 0001:0004be80       ?GetFiles@CViEngineExProcDb@@UEAA?AV?$list@V?$CStringT@_WV?$StrTraitMFC_DLL@_WV?$ChTraitsCRT@_W@ATL@@@@@ATL@@V?$allocator@V?$CStringT@_WV?$StrTraitMFC_DLL@_WV?$ChTraitsCRT@_W@ATL@@@@@ATL@@@std@@@std@@PEB_W@Z 000000014004ce80 f   ViEngineExProcDb.obj
 0001:0004c0f0       ?OnSessionStopped@CViEngineExProcDb@@UEAA_NPEB_W@Z 000000014004d0f0 f   ViEngineExProcDb.obj
 0001:0004c250       ?PurgeSessions@CViEngineExProcDb@@QEAAX_K@Z 000000014004d250 f   ViEngineExProcDb.obj
 0001:0004c330       ?StartSession@CViEngineExProcDb@@UEAA_NPEB_W0@Z 000000014004d330 f   ViEngineExProcDb.obj
 0001:0004c5a0       ?StopSession@CViEngineExProcDb@@UEAA_N_N@Z 000000014004d5a0 f   ViEngineExProcDb.obj
 0001:0004c7a0       ?WriteFile@CViEngineExProcDb@@UEAA_NPEB_WPEBXI_N@Z 000000014004d7a0 f   ViEngineExProcDb.obj
 0001:0004c7b0       ?_Erase_unchecked@?$_Tree@V?$_Tmap_traits@V?$CStringT@_WV?$StrTraitMFC_DLL@_WV?$ChTraitsCRT@_W@ATL@@@@@ATL@@VSESSIONREF@CViEngineExProcDb@@U?$less@V?$CStringT@_WV?$StrTraitMFC_DLL@_WV?$ChTraitsCRT@_W@ATL@@@@@ATL@@@std@@V?$allocator@U?$pair@$$CBV?$CStringT@_WV?$StrTraitMFC_DLL@_WV?$ChTraitsCRT@_W@ATL@@@@@ATL@@VSESSIONREF@CViEngineExProcDb@@@std@@@6@$0A@@std@@@std@@AEAAPEAU?$_Tree_node@U?$pair@$$CBV?$CStringT@_WV?$StrTraitMFC_DLL@_WV?$ChTraitsCRT@_W@ATL@@@@@ATL@@VSESSIONREF@CViEngineExProcDb@@@std@@PEAX@2@V?$_Tree_unchecked_const_iterator@V?$_Tree_val@U?$_Tree_simple_types@U?$pair@$$CBV?$CStringT@_WV?$StrTraitMFC_DLL@_WV?$ChTraitsCRT@_W@ATL@@@@@ATL@@VSESSIONREF@CViEngineExProcDb@@@std@@@std@@@std@@U_Iterator_base0@2@@2@0@Z 000000014004d7b0 f i ViEngineExProcDb.obj
 0001:0004c970       ?_Erase_unchecked@?$_Tree@V?$_Tmap_traits@V?$CStringT@_WV?$StrTraitMFC_DLL@_WV?$ChTraitsCRT@_W@ATL@@@@@ATL@@VSESSIONREF@CViEngineExProcDb@@U?$less@V?$CStringT@_WV?$StrTraitMFC_DLL@_WV?$ChTraitsCRT@_W@ATL@@@@@ATL@@@std@@V?$allocator@U?$pair@$$CBV?$CStringT@_WV?$StrTraitMFC_DLL@_WV?$ChTraitsCRT@_W@ATL@@@@@ATL@@VSESSIONREF@CViEngineExProcDb@@@std@@@6@$0A@@std@@@std@@AEAAPEAU?$_Tree_node@U?$pair@$$CBV?$CStringT@_WV?$StrTraitMFC_DLL@_WV?$ChTraitsCRT@_W@ATL@@@@@ATL@@VSESSIONREF@CViEngineExProcDb@@@std@@PEAX@2@V?$_Tree_unchecked_const_iterator@V?$_Tree_val@U?$_Tree_simple_types@U?$pair@$$CBV?$CStringT@_WV?$StrTraitMFC_DLL@_WV?$ChTraitsCRT@_W@ATL@@@@@ATL@@VSESSIONREF@CViEngineExProcDb@@@std@@@std@@@std@@U_Iterator_base0@2@@2@@Z 000000014004d970 f i ViEngineExProcDb.obj
 0001:0004ca10       ?erase@?$_Tree@V?$_Tmap_traits@V?$CStringT@_WV?$StrTraitMFC_DLL@_WV?$ChTraitsCRT@_W@ATL@@@@@ATL@@VSESSIONREF@CViEngineExProcDb@@U?$less@V?$CStringT@_WV?$StrTraitMFC_DLL@_WV?$ChTraitsCRT@_W@ATL@@@@@ATL@@@std@@V?$allocator@U?$pair@$$CBV?$CStringT@_WV?$StrTraitMFC_DLL@_WV?$ChTraitsCRT@_W@ATL@@@@@ATL@@VSESSIONREF@CViEngineExProcDb@@@std@@@6@$0A@@std@@@std@@QEAA_KAEBV?$CStringT@_WV?$StrTraitMFC_DLL@_WV?$ChTraitsCRT@_W@ATL@@@@@ATL@@@Z 000000014004da10 f i ViEngineExProcDb.obj
 0001:0004cb80       ?onHttpResult@CViEngineExProcDb@@UEAAXV?$CStringT@_WV?$StrTraitMFC_DLL@_WV?$ChTraitsCRT@_W@ATL@@@@@ATL@@V?$CStringT@DV?$StrTraitMFC_DLL@DV?$ChTraitsCRT@D@ATL@@@@@3@@Z 000000014004db80 f   ViEngineExProcDb.obj
 0001:0004ceb0       ??0CViEngineExProcReg@@QEAA@XZ 000000014004deb0 f   ViEngineExProcReg.obj
 0001:0004cef0       ??1CViEngineExProcReg@@UEAA@XZ 000000014004def0 f   ViEngineExProcReg.obj
 0001:0004cf30       ??_GCViEngineExProcReg@@UEAAPEAXI@Z 000000014004df30 f i ViEngineExProcReg.obj
 0001:0004cf30       ??_ECViEngineExProcReg@@UEAAPEAXI@Z 000000014004df30 f i ViEngineExProcReg.obj
 0001:0004cf90       ?Flush@CViEngineExProcReg@@UEAAXXZ 000000014004df90 f   ViEngineExProcReg.obj
 0001:0004cfa0       ?GetProfileBinEx@CViEngineExProcReg@@UEAAHPEB_W0PEAXH@Z 000000014004dfa0 f   ViEngineExProcReg.obj
 0001:0004d060       ?GetProfileIntEx@CViEngineExProcReg@@UEAAHPEB_W0H@Z 000000014004e060 f   ViEngineExProcReg.obj
 0001:0004d070       ?GetProfileStringEx@CViEngineExProcReg@@UEAAHPEB_W0PEA_WH0@Z 000000014004e070 f   ViEngineExProcReg.obj
 0001:0004d0e0       ?GetRegBase@CViEngineExProcReg@@UEAAPEB_W_N@Z 000000014004e0e0 f   ViEngineExProcReg.obj
 0001:0004d1b0       ?IsLocked@CViEngineExProcReg@@UEAA_NXZ 000000014004e1b0 f   ViEngineExProcReg.obj
 0001:0004d1c0       ?MakeLoad@CViEngineExProcReg@@UEAAXXZ 000000014004e1c0 f   ViEngineExProcReg.obj
 0001:0004d1f0       ?MakeSave@CViEngineExProcReg@@UEAAXXZ 000000014004e1f0 f   ViEngineExProcReg.obj
 0001:0004d220       ?OnSettingsLoad@CViEngineExProcReg@@UEAAXPEBD@Z 000000014004e220 f   ViEngineExProcReg.obj
 0001:0004d380       ?RegGroup@CViEngineExProcReg@@UEAA?AV?$CStringT@_WV?$StrTraitMFC_DLL@_WV?$ChTraitsCRT@_W@ATL@@@@@ATL@@PEB_W@Z 000000014004e380 f   ViEngineExProcReg.obj
 0001:0004d3f0       ?WriteProfileBinEx@CViEngineExProcReg@@UEAAXPEB_W0PEAXH@Z 000000014004e3f0 f   ViEngineExProcReg.obj
 0001:0004d460       ?WriteProfileIntEx@CViEngineExProcReg@@UEAAXPEB_W0H@Z 000000014004e460 f   ViEngineExProcReg.obj
 0001:0004d4c0       ?WriteProfileStringEx@CViEngineExProcReg@@UEAAXPEB_W00@Z 000000014004e4c0 f   ViEngineExProcReg.obj
 0001:0004d580       ??0CViEngineExSupport@@QEAA@H@Z 000000014004e580 f   ViEngineExSupport.obj
 0001:0004d590       ?OnFrameProcessed@CViEngineExSupport@@QEAAXXZ 000000014004e590 f   ViEngineExSupport.obj
 0001:0004d7c0       ?OnNewVar@CViEngineExSupport@@QEAAXHH@Z 000000014004e7c0 f   ViEngineExSupport.obj
 0001:0004d7d0       ??0CViFTPStorage@@QEAA@PEAVCViEngineExProSDK_v01@CViEngineExNS@@@Z 000000014004e7d0 f   ViFTPStorage.obj
 0001:0004d910       ??0tagSEND_DATA@CViFTPStorage@@QEAA@AEBU01@@Z 000000014004e910 f i ViFTPStorage.obj
 0001:0004d9f0       ??1?$_List_node_emplace_op@V?$allocator@U?$_List_node@UtagSEND_DATA@CViFTPStorage@@PEAX@std@@@std@@@std@@QEAA@XZ 000000014004e9f0 f i ViFTPStorage.obj
 0001:0004da30       ??1?$list@UtagSEND_DATA@CViFTPStorage@@V?$allocator@UtagSEND_DATA@CViFTPStorage@@@std@@@std@@QEAA@XZ 000000014004ea30 f i ViFTPStorage.obj
 0001:0004daa0       ??1tagSEND_DATA@CViFTPStorage@@QEAA@XZ 000000014004eaa0 f i ViFTPStorage.obj
 0001:0004db10       ??_ECViFTPStorage@@UEAAPEAXI@Z 000000014004eb10 f i ViFTPStorage.obj
 0001:0004db10       ??_GCViFTPStorage@@UEAAPEAXI@Z 000000014004eb10 f i ViFTPStorage.obj
 0001:0004db90       ?DoSend@CViFTPStorage@@IEAA_NPEAVCFtpConnection@@AEAUtagSEND_DATA@1@@Z 000000014004eb90 f   ViFTPStorage.obj
 0001:0004dc60       ?LoadConfig@CViFTPStorage@@IEAA_NXZ 000000014004ec60 f   ViFTPStorage.obj
 0001:0004dfa0       ?OnNewVar@CViFTPStorage@@UEAAXHH@Z 000000014004efa0 f   ViFTPStorage.obj
 0001:0004e0d0       ?OnSessionStopped@CViFTPStorage@@QEAAXAEBV?$list@V?$CStringT@_WV?$StrTraitMFC_DLL@_WV?$ChTraitsCRT@_W@ATL@@@@@ATL@@V?$allocator@V?$CStringT@_WV?$StrTraitMFC_DLL@_WV?$ChTraitsCRT@_W@ATL@@@@@ATL@@@std@@@std@@@Z 000000014004f0d0 f   ViFTPStorage.obj
 0001:0004e480       ?RegLoad@CViFTPStorage@@QEAAXXZ 000000014004f480 f   ViFTPStorage.obj
 0001:0004e690       ?RegSave@CViFTPStorage@@QEAAXXZ 000000014004f690 f   ViFTPStorage.obj
 0001:0004e830       ?Start@CViFTPStorage@@QEAA_NXZ 000000014004f830 f   ViFTPStorage.obj
 0001:0004e8b0       ?ThreadLocal@CViFTPStorage@@IEAAXXZ 000000014004f8b0 f   ViFTPStorage.obj
 0001:0004f1f0       ?ThreadProc@CViFTPStorage@@KAKPEAX@Z 00000001400501f0 f   ViFTPStorage.obj
 0001:0004f200       ??0CViHTTPLicenseDlg@@QEAA@PEAVCWnd@@@Z 0000000140050200 f   ViHTTPLicenseDlg.obj
 0001:0004f380       ??1CViHTTPLicenseDlg@@UEAA@XZ 0000000140050380 f   ViHTTPLicenseDlg.obj
 0001:0004f3f0       ??_ECViHTTPLicenseDlg@@UEAAPEAXI@Z 00000001400503f0 f i ViHTTPLicenseDlg.obj
 0001:0004f3f0       ??_GCViHTTPLicenseDlg@@UEAAPEAXI@Z 00000001400503f0 f i ViHTTPLicenseDlg.obj
 0001:0004f4a0       ?CheckHTTP@CViHTTPLicenseDlg@@IEAAX_N@Z 00000001400504a0 f   ViHTTPLicenseDlg.obj
 0001:0004f7f0       ?CheckRequest@CViHTTPLicenseDlg@@IEAAXXZ 00000001400507f0 f   ViHTTPLicenseDlg.obj
 0001:0004f970       ?DoDataExchange@CViHTTPLicenseDlg@@MEAAXPEAVCDataExchange@@@Z 0000000140050970 f   ViHTTPLicenseDlg.obj
 0001:0004f9d0       ?GetMessageMap@CViHTTPLicenseDlg@@MEBAPEBUAFX_MSGMAP@@XZ 00000001400509d0 f   ViHTTPLicenseDlg.obj
 0001:0004f9e0       ?GetRuntimeClass@CViHTTPLicenseDlg@@UEBAPEAUCRuntimeClass@@XZ 00000001400509e0 f   ViHTTPLicenseDlg.obj
 0001:0004f9f0       ?OnBnClickedBtnGetAuthcodeHttp@CViHTTPLicenseDlg@@QEAAXXZ 00000001400509f0 f   ViHTTPLicenseDlg.obj
 0001:0004fa30       ?OnBnClickedButtonWeb@CViHTTPLicenseDlg@@QEAAXXZ 0000000140050a30 f   ViHTTPLicenseDlg.obj
 0001:0004fb10       ?OnBnClickedCancel@CViHTTPLicenseDlg@@QEAAXXZ 0000000140050b10 f   ViHTTPLicenseDlg.obj
 0001:0004fb30       ?OnBnClickedOk@CViHTTPLicenseDlg@@QEAAXXZ 0000000140050b30 f   ViHTTPLicenseDlg.obj
 0001:0004fd60       ?OnEnChangeEditRequest@CViHTTPLicenseDlg@@QEAAXXZ 0000000140050d60 f   ViHTTPLicenseDlg.obj
 0001:0004fd80       ?OnInitDialog@CViHTTPLicenseDlg@@UEAAHXZ 0000000140050d80 f   ViHTTPLicenseDlg.obj
 0001:0004fe40       ?OnTimer@CViHTTPLicenseDlg@@QEAAX_K@Z 0000000140050e40 f   ViHTTPLicenseDlg.obj
 0001:0004fe80       ??$_Erase_tree@V?$allocator@U?$_Tree_node@U?$pair@$$CBV?$CStringT@_WV?$StrTraitMFC_DLL@_WV?$ChTraitsCRT@_W@ATL@@@@@ATL@@UtagITEM@CVIImages@@@std@@PEAX@std@@@std@@@?$_Tree_val@U?$_Tree_simple_types@U?$pair@$$CBV?$CStringT@_WV?$StrTraitMFC_DLL@_WV?$ChTraitsCRT@_W@ATL@@@@@ATL@@UtagITEM@CVIImages@@@std@@@std@@@std@@QEAAXAEAV?$allocator@U?$_Tree_node@U?$pair@$$CBV?$CStringT@_WV?$StrTraitMFC_DLL@_WV?$ChTraitsCRT@_W@ATL@@@@@ATL@@UtagITEM@CVIImages@@@std@@PEAX@std@@@1@PEAU?$_Tree_node@U?$pair@$$CBV?$CStringT@_WV?$StrTraitMFC_DLL@_WV?$ChTraitsCRT@_W@ATL@@@@@ATL@@UtagITEM@CVIImages@@@std@@PEAX@1@@Z 0000000140050e80 f i VIImages.obj
 0001:0004ff20       ??0CVIImages@@QEAA@PEAVCMFCToolBarImages@@@Z 0000000140050f20 f   VIImages.obj
 0001:0004ffe0       ??1?$_Tree_temp_node_alloc@V?$allocator@U?$_Tree_node@U?$pair@$$CBV?$CStringT@_WV?$StrTraitMFC_DLL@_WV?$ChTraitsCRT@_W@ATL@@@@@ATL@@UtagITEM@CVIImages@@@std@@PEAX@std@@@std@@@std@@QEAA@XZ 0000000140050fe0 f i VIImages.obj
 0001:0004ffe0       ??1?$_Alloc_construct_ptr@V?$allocator@U?$_Tree_node@U?$pair@$$CBV?$CStringT@_WV?$StrTraitMFC_DLL@_WV?$ChTraitsCRT@_W@ATL@@@@@ATL@@UtagITEM@CVIImages@@@std@@PEAX@std@@@std@@@std@@QEAA@XZ 0000000140050fe0 f i VIImages.obj
 0001:00050000       ??1tagITEM@CVIImages@@QEAA@XZ 0000000140051000 f i VIImages.obj
 0001:00050030       ??_GCVIImages@@UEAAPEAXI@Z 0000000140051030 f i VIImages.obj
 0001:00050030       ??_ECVIImages@@UEAAPEAXI@Z 0000000140051030 f i VIImages.obj
 0001:000500d0       ?Clear@CVIImages@@QEAAX_N@Z 00000001400510d0 f   VIImages.obj
 0001:000501e0       ?Get@CVIImages@@QEAAHAEBV?$CStringT@_WV?$StrTraitMFC_DLL@_WV?$ChTraitsCRT@_W@ATL@@@@@ATL@@@Z 00000001400511e0 f   VIImages.obj
 0001:00050320       ?Load@CVIImages@@QEAAH_NHH@Z 0000000140051320 f   VIImages.obj
 0001:000507ce       GetFileVersionInfoSizeW    00000001400517ce f   Version:VERSION.dll
 0001:000507d4       GetFileVersionInfoW        00000001400517d4 f   Version:VERSION.dll
 0001:000507da       VerQueryValueW             00000001400517da f   Version:VERSION.dll
 0001:000507e0       __imp_load_?SeqIsUnreg@CViEngineExSeqInterface@CViEngineExNS@@QEAA_NXZ 00000001400517e0 f   ViEngineEx:ViEngineEx.dll
 0001:000507ec       __tailMerge_viengineex_dll 00000001400517ec     ViEngineEx:ViEngineEx.dll
 0001:00050865       __imp_load_?SeqIsDemo@CViEngineExSeqInterface@CViEngineExNS@@QEAA_NXZ 0000000140051865 f   ViEngineEx:ViEngineEx.dll
 0001:00050871       __imp_load_?SeqIsLimit@CViEngineExSeqInterface@CViEngineExNS@@QEAA_NXZ 0000000140051871 f   ViEngineEx:ViEngineEx.dll
 0001:0005087d       __imp_load_?SeqSerial@CViEngineExSeqInterface@CViEngineExNS@@QEAAPEB_WXZ 000000014005187d f   ViEngineEx:ViEngineEx.dll
 0001:00050889       __imp_load_?SeqOwner@CViEngineExSeqInterface@CViEngineExNS@@QEAAPEB_WXZ 0000000140051889 f   ViEngineEx:ViEngineEx.dll
 0001:00050895       __imp_load_?SeqLimit@CViEngineExSeqInterface@CViEngineExNS@@QEAAPEB_WXZ 0000000140051895 f   ViEngineEx:ViEngineEx.dll
 0001:000508a1       __imp_load_?StopAndUnregister@CViEngineExProSDK_v01@CViEngineExNS@@QEAA_NXZ 00000001400518a1 f   ViEngineEx:ViEngineEx.dll
 0001:000508ad       __imp_load_?GetVar@CViEngineExProSDK_v01@CViEngineExNS@@QEAA?AVCOleVariant@@HHGH@Z 00000001400518ad f   ViEngineEx:ViEngineEx.dll
 0001:000508b9       __imp_load_?GetLang@CViEngineExProSDK_v01@CViEngineExNS@@QEAAPEAVCViEngineExLangInterface@2@XZ 00000001400518b9 f   ViEngineEx:ViEngineEx.dll
 0001:000508c5       __imp_load_?GetSeq@CViEngineExProSDK_v01@CViEngineExNS@@QEAAPEAVCViEngineExSeqInterface@2@XZ 00000001400518c5 f   ViEngineEx:ViEngineEx.dll
 0001:000508d1       __imp_load_?PutVar@CViEngineExProSDK_v01@CViEngineExNS@@QEAA_NHHAEBVCOleVariant@@H@Z 00000001400518d1 f   ViEngineEx:ViEngineEx.dll
 0001:000508dd       __imp_load_?SeqIsInit@CViEngineExSeqInterface@CViEngineExNS@@QEAA_NXZ 00000001400518dd f   ViEngineEx:ViEngineEx.dll
 0001:000508e9       __imp_load_?GetDB@CViEngineExProSDK_v01@CViEngineExNS@@QEAAPEAVCViEngineExDatabaseInterface@2@XZ 00000001400518e9 f   ViEngineEx:ViEngineEx.dll
 0001:000508f5       __imp_load_?GetCurrentDocument@CViEngineExProSDK_v01@CViEngineExNS@@QEAA_NPEA_WH@Z 00000001400518f5 f   ViEngineEx:ViEngineEx.dll
 0001:00050901       __imp_load_?GetVideo@CViEngineExProSDK_v01@CViEngineExNS@@QEAAPEAVCAMCapWnd@@XZ 0000000140051901 f   ViEngineEx:ViEngineEx.dll
 0001:0005090d       __imp_load_?Tag2Id@CViEngineExProSDK_v01@CViEngineExNS@@QEAAHPEB_W_N@Z 000000014005190d f   ViEngineEx:ViEngineEx.dll
 0001:00050919       __imp_load_?AddId@CViEngineExProSDK_v01@CViEngineExNS@@QEAAHHPEB_W@Z 0000000140051919 f   ViEngineEx:ViEngineEx.dll
 0001:00050925       __imp_load_?Connect@CViEngineExRegInterface@CViEngineExNS@@QEAAXPEAVCViEngineExProSDK_v01@2@@Z 0000000140051925 f   ViEngineEx:ViEngineEx.dll
 0001:00050931       __imp_load_?SeqIsOk@CViEngineExSeqInterface@CViEngineExNS@@QEAA_NXZ 0000000140051931 f   ViEngineEx:ViEngineEx.dll
 0001:0005093d       __imp_load_?IsStarted@CViEngineExMeasureInterface@CViEngineExNS@@QEAA_NXZ 000000014005193d f   ViEngineEx:ViEngineEx.dll
 0001:00050949       __imp_load_??0CViEngineExProSDK_v01@CViEngineExNS@@QEAA@XZ 0000000140051949 f   ViEngineEx:ViEngineEx.dll
 0001:00050955       __imp_load_??1CViEngineExProSDK_v01@CViEngineExNS@@QEAA@XZ 0000000140051955 f   ViEngineEx:ViEngineEx.dll
 0001:00050961       __imp_load_?OpenDocument@CViEngineExProSDK_v01@CViEngineExNS@@QEAAHPEB_W@Z 0000000140051961 f   ViEngineEx:ViEngineEx.dll
 0001:0005096d       __imp_load_?Stop@CViEngineExProSDK_v01@CViEngineExNS@@QEAAXXZ 000000014005196d f   ViEngineEx:ViEngineEx.dll
 0001:00050979       __imp_load_?GetWindow@CViEngineExProSDK_v01@CViEngineExNS@@QEAAPEAUHWND__@@XZ 0000000140051979 f   ViEngineEx:ViEngineEx.dll
 0001:00050985       __imp_load_?PreTranslateMessage@CViEngineExProSDK_v01@CViEngineExNS@@QEAAHPEAUtagMSG@@@Z 0000000140051985 f   ViEngineEx:ViEngineEx.dll
 0001:00050991       __imp_load_?GetMeasure@CViEngineExProSDK_v01@CViEngineExNS@@QEAAPEAVCViEngineExMeasureInterface@2@XZ 0000000140051991 f   ViEngineEx:ViEngineEx.dll
 0001:0005099d       __imp_load_?GetReg@CViEngineExProSDK_v01@CViEngineExNS@@QEAAPEAVCViEngineExRegInterface@2@XZ 000000014005199d f   ViEngineEx:ViEngineEx.dll
 0001:000509a9       __imp_load_?GetCapture@CViEngineExProSDK_v01@CViEngineExNS@@QEAAPEAVCViEngineExAutoCaptureInterface@2@XZ 00000001400519a9 f   ViEngineEx:ViEngineEx.dll
 0001:000509b5       __imp_load_?OnMenu@CViEngineExProSDK_v01@CViEngineExNS@@QEAA_NH@Z 00000001400519b5 f   ViEngineEx:ViEngineEx.dll
 0001:000509c1       __imp_load_?SeqIsHttp@CViEngineExSeqInterface@CViEngineExNS@@QEAA_NXZ 00000001400519c1 f   ViEngineEx:ViEngineEx.dll
 0001:000509cd       __imp_load_?SeqIsOnline@CViEngineExSeqInterface@CViEngineExNS@@QEAA_NXZ 00000001400519cd f   ViEngineEx:ViEngineEx.dll
 0001:000509d9       __imp_load_?Start@CViEngineExProSDK_v01@CViEngineExNS@@QEAAPEAUHWND__@@PEAU3@@Z 00000001400519d9 f   ViEngineEx:ViEngineEx.dll
 0001:000509e5       __imp_load_?IsStarted@CViEngineExProSDK_v01@CViEngineExNS@@QEAA_NXZ 00000001400519e5 f   ViEngineEx:ViEngineEx.dll
 0001:000509f1       __imp_load_?GetMenuState@CViEngineExProSDK_v01@CViEngineExNS@@QEAA_NHAEAH0PEA_W@Z 00000001400519f1 f   ViEngineEx:ViEngineEx.dll
 0001:000509fd       __imp_load_?GetWindow@CViEngineExGraphInterface@CViEngineExNS@@QEAAPEAUHWND__@@XZ 00000001400519fd f   ViEngineEx:ViEngineEx.dll
 0001:00050a09       __imp_load_?GetCount@CViEngineExGraphInterface@CViEngineExNS@@QEAAHXZ 0000000140051a09 f   ViEngineEx:ViEngineEx.dll
 0001:00050a15       __imp_load_?AddGraph@CViEngineExGraphInterface@CViEngineExNS@@QEAAXHH@Z 0000000140051a15 f   ViEngineEx:ViEngineEx.dll
 0001:00050a21       __imp_load_?SetName@CViEngineExGraphInterface@CViEngineExNS@@QEAAXHPEB_W@Z 0000000140051a21 f   ViEngineEx:ViEngineEx.dll
 0001:00050a2d       __imp_load_?SetTag@CViEngineExGraphInterface@CViEngineExNS@@QEAAXHPEB_W@Z 0000000140051a2d f   ViEngineEx:ViEngineEx.dll
 0001:00050a39       __imp_load_?SetMinMax@CViEngineExGraphInterface@CViEngineExNS@@QEAA_NHMM_N@Z 0000000140051a39 f   ViEngineEx:ViEngineEx.dll
 0001:00050a45       __imp_load_?Enable@CViEngineExGraphInterface@CViEngineExNS@@QEAA_NH_N@Z 0000000140051a45 f   ViEngineEx:ViEngineEx.dll
 0001:00050a51       __imp_load_?RegLoad@CViEngineExGraphInterface@CViEngineExNS@@QEAAXH@Z 0000000140051a51 f   ViEngineEx:ViEngineEx.dll
 0001:00050a5d       __imp_load_?OnMouseWheel@CViEngineExGraphInterface@CViEngineExNS@@QEAAHIFVCPoint@@@Z 0000000140051a5d f   ViEngineEx:ViEngineEx.dll
 0001:00050a69       __imp_load_?GetGraph@CViEngineExProSDK_v01@CViEngineExNS@@QEAAPEAVCViEngineExGraphInterface@2@XZ 0000000140051a69 f   ViEngineEx:ViEngineEx.dll
 0001:00050a75       __imp_load_?GetWindow@CViEngineExHistInterface@CViEngineExNS@@QEAAPEAUHWND__@@XZ 0000000140051a75 f   ViEngineEx:ViEngineEx.dll
 0001:00050a81       __imp_load_?AddHist@CViEngineExHistInterface@CViEngineExNS@@QEAA_NHHHH@Z 0000000140051a81 f   ViEngineEx:ViEngineEx.dll
 0001:00050a8d       __imp_load_?GetHist@CViEngineExProSDK_v01@CViEngineExNS@@QEAAPEAVCViEngineExHistInterface@2@XZ 0000000140051a8d f   ViEngineEx:ViEngineEx.dll
 0001:00050a99       __imp_load_?GetWindow@CViEngineExStatInterface@CViEngineExNS@@QEAAPEAUHWND__@@PEB_W@Z 0000000140051a99 f   ViEngineEx:ViEngineEx.dll
 0001:00050aa5       __imp_load_?GetStat@CViEngineExProSDK_v01@CViEngineExNS@@QEAAPEAVCViEngineExStatInterface@2@H@Z 0000000140051aa5 f   ViEngineEx:ViEngineEx.dll
 0001:00050ab1       __imp_load_?GetLDW@CViEngineExProSDK_v01@CViEngineExNS@@QEAAPEAVCViEngineExLDWInterface@2@XZ 0000000140051ab1 f   ViEngineEx:ViEngineEx.dll
 0001:00050abd       __imp_load_?GetEngine@CViEngineExProSDK_v01@CViEngineExNS@@QEAAPEAVCViEngineProSDK_v01@@XZ 0000000140051abd f   ViEngineEx:ViEngineEx.dll
 0001:00050ac9       __imp_load_?UpdateColor@CViEngineExProSDK_v01@CViEngineExNS@@QEAA_NHHHPEAK@Z 0000000140051ac9 f   ViEngineEx:ViEngineEx.dll
 0001:00050ad5       __imp_load_?CanEdit@CViEngineExProSDK_v01@CViEngineExNS@@QEAA_NH@Z 0000000140051ad5 f   ViEngineEx:ViEngineEx.dll
 0001:00050ae1       __imp_load_??0CViEngineExBaseInterface@CViEngineExNS@@QEAA@XZ 0000000140051ae1 f   ViEngineEx:ViEngineEx.dll
 0001:00050aed       __imp_load_??1CViEngineExBaseInterface@CViEngineExNS@@QEAA@XZ 0000000140051aed f   ViEngineEx:ViEngineEx.dll
 0001:00050af9       __imp_load_?Connect@CViEngineExBaseInterface@CViEngineExNS@@QEAAXPEAVCViEngineExProSDK_v01@2@@Z 0000000140051af9 f   ViEngineEx:ViEngineEx.dll
 0001:00050b05       __imp_load_?OnResultAlign@CViEngineExBaseInterface@CViEngineExNS@@UEAA_NHPEAUHWND__@@PEAKHH@Z 0000000140051b05 f   ViEngineEx:ViEngineEx.dll
 0001:00050b11       __imp_load_?OnCloseRequest@CViEngineExBaseInterface@CViEngineExNS@@UEAAXXZ 0000000140051b11 f   ViEngineEx:ViEngineEx.dll
 0001:00050b1d       __imp_load_?OnVideoFrame@CViEngineExBaseInterface@CViEngineExNS@@UEAAHNPEAEJPEAX@Z 0000000140051b1d f   ViEngineEx:ViEngineEx.dll
 0001:00050b29       __imp_load_?OnAudioFrame@CViEngineExBaseInterface@CViEngineExNS@@UEAAHNPEAEJPEAX@Z 0000000140051b29 f   ViEngineEx:ViEngineEx.dll
 0001:00050b35       __imp_load_?GetWndColor@CViEngineExBaseInterface@CViEngineExNS@@UEAAKH@Z 0000000140051b35 f   ViEngineEx:ViEngineEx.dll
 0001:00050b41       __imp_load_?CanStartFile@CViEngineExBaseInterface@CViEngineExNS@@UEAA_NPEB_W@Z 0000000140051b41 f   ViEngineEx:ViEngineEx.dll
 0001:00050b4d       ?CanStartFile@CViEngineExBaseInterface@CViEngineExNS@@UEAA_NPEB_W@Z 0000000140051b4d f   ViEngineEx:ViEngineEx.dll
 0001:00050b53       __imp_load_?IsExcelRequired@CViEngineExBaseInterface@CViEngineExNS@@UEAA_NXZ 0000000140051b53 f   ViEngineEx:ViEngineEx.dll
 0001:00050b5f       ?IsExcelRequired@CViEngineExBaseInterface@CViEngineExNS@@UEAA_NXZ 0000000140051b5f f   ViEngineEx:ViEngineEx.dll
 0001:00050b65       __imp_load_?IsMarker@CViEngineExBaseInterface@CViEngineExNS@@UEAA_NH@Z 0000000140051b65 f   ViEngineEx:ViEngineEx.dll
 0001:00050b71       ?IsMarker@CViEngineExBaseInterface@CViEngineExNS@@UEAA_NH@Z 0000000140051b71 f   ViEngineEx:ViEngineEx.dll
 0001:00050b77       __imp_load_?OnMarker@CViEngineExBaseInterface@CViEngineExNS@@UEAAXH@Z 0000000140051b77 f   ViEngineEx:ViEngineEx.dll
 0001:00050b83       ?OnMarker@CViEngineExBaseInterface@CViEngineExNS@@UEAAXH@Z 0000000140051b83 f   ViEngineEx:ViEngineEx.dll
 0001:00050b89       __imp_load_?OnVideoInput@CViEngineExBaseInterface@CViEngineExNS@@UEAAXNPEAEHHH@Z 0000000140051b89 f   ViEngineEx:ViEngineEx.dll
 0001:00050b95       ?OnVideoInput@CViEngineExBaseInterface@CViEngineExNS@@UEAAXNPEAEHHH@Z 0000000140051b95 f   ViEngineEx:ViEngineEx.dll
 0001:00050b9b       __imp_load_?ProcessMessages@CViEngineExBaseInterface@CViEngineExNS@@UEAAXXZ 0000000140051b9b f   ViEngineEx:ViEngineEx.dll
 0001:00050ba7       ?ProcessMessages@CViEngineExBaseInterface@CViEngineExNS@@UEAAXXZ 0000000140051ba7 f   ViEngineEx:ViEngineEx.dll
 0001:00050bad       __imp_load_?PutImg0@CViEngineExBaseInterface@CViEngineExNS@@UEAAXXZ 0000000140051bad f   ViEngineEx:ViEngineEx.dll
 0001:00050bb9       ?PutImg0@CViEngineExBaseInterface@CViEngineExNS@@UEAAXXZ 0000000140051bb9 f   ViEngineEx:ViEngineEx.dll
 0001:00050bbf       __imp_load_?Sync@CViEngineExBaseInterface@CViEngineExNS@@UEAAXXZ 0000000140051bbf f   ViEngineEx:ViEngineEx.dll
 0001:00050bcb       ?Sync@CViEngineExBaseInterface@CViEngineExNS@@UEAAXXZ 0000000140051bcb f   ViEngineEx:ViEngineEx.dll
 0001:00050bd1       __imp_load_??0CViEngineExDatabaseInterface@CViEngineExNS@@QEAA@XZ 0000000140051bd1 f   ViEngineEx:ViEngineEx.dll
 0001:00050bdd       __imp_load_??1CViEngineExDatabaseInterface@CViEngineExNS@@QEAA@XZ 0000000140051bdd f   ViEngineEx:ViEngineEx.dll
 0001:00050be9       __imp_load_?Connect@CViEngineExDatabaseInterface@CViEngineExNS@@UEAAXPEAVCViEngineExProSDK_v01@2@@Z 0000000140051be9 f   ViEngineEx:ViEngineEx.dll
 0001:00050bf5       ?Connect@CViEngineExDatabaseInterface@CViEngineExNS@@UEAAXPEAVCViEngineExProSDK_v01@2@@Z 0000000140051bf5 f   ViEngineEx:ViEngineEx.dll
 0001:00050bfb       __imp_load_?StartSession@CViEngineExDatabaseInterface@CViEngineExNS@@UEAA_NPEB_W0@Z 0000000140051bfb f   ViEngineEx:ViEngineEx.dll
 0001:00050c07       __imp_load_?StopSession@CViEngineExDatabaseInterface@CViEngineExNS@@UEAA_N_N@Z 0000000140051c07 f   ViEngineEx:ViEngineEx.dll
 0001:00050c13       __imp_load_?OnSessionStopped@CViEngineExDatabaseInterface@CViEngineExNS@@UEAA_NPEB_W@Z 0000000140051c13 f   ViEngineEx:ViEngineEx.dll
 0001:00050c1f       __imp_load_?WriteFile@CViEngineExDatabaseInterface@CViEngineExNS@@UEAA_NPEB_WPEBXI_N@Z 0000000140051c1f f   ViEngineEx:ViEngineEx.dll
 0001:00050c2b       __imp_load_?AbortSession@CViEngineExDatabaseInterface@CViEngineExNS@@UEAA_N_N@Z 0000000140051c2b f   ViEngineEx:ViEngineEx.dll
 0001:00050c37       ?AbortSession@CViEngineExDatabaseInterface@CViEngineExNS@@UEAA_N_N@Z 0000000140051c37 f   ViEngineEx:ViEngineEx.dll
 0001:00050c3d       __imp_load_?AddReference@CViEngineExDatabaseInterface@CViEngineExNS@@UEAA_NPEB_W@Z 0000000140051c3d f   ViEngineEx:ViEngineEx.dll
 0001:00050c49       ?AddReference@CViEngineExDatabaseInterface@CViEngineExNS@@UEAA_NPEB_W@Z 0000000140051c49 f   ViEngineEx:ViEngineEx.dll
 0001:00050c4f       __imp_load_?CloseFile@CViEngineExDatabaseInterface@CViEngineExNS@@UEAA_NPEB_W_N1@Z 0000000140051c4f f   ViEngineEx:ViEngineEx.dll
 0001:00050c5b       ?CloseFile@CViEngineExDatabaseInterface@CViEngineExNS@@UEAA_NPEB_W_N1@Z 0000000140051c5b f   ViEngineEx:ViEngineEx.dll
 0001:00050c61       __imp_load_?GetBackupCount@CViEngineExDatabaseInterface@CViEngineExNS@@UEAAHXZ 0000000140051c61 f   ViEngineEx:ViEngineEx.dll
 0001:00050c6d       ?GetBackupCount@CViEngineExDatabaseInterface@CViEngineExNS@@UEAAHXZ 0000000140051c6d f   ViEngineEx:ViEngineEx.dll
 0001:00050c73       __imp_load_?GetBasePath@CViEngineExDatabaseInterface@CViEngineExNS@@UEAA_NPEA_WH@Z 0000000140051c73 f   ViEngineEx:ViEngineEx.dll
 0001:00050c7f       ?GetBasePath@CViEngineExDatabaseInterface@CViEngineExNS@@UEAA_NPEA_WH@Z 0000000140051c7f f   ViEngineEx:ViEngineEx.dll
 0001:00050c85       __imp_load_?GetCapturedImage@CViEngineExDatabaseInterface@CViEngineExNS@@UEAAPEAUHBITMAP__@@HH@Z 0000000140051c85 f   ViEngineEx:ViEngineEx.dll
 0001:00050c91       ?GetCapturedImage@CViEngineExDatabaseInterface@CViEngineExNS@@UEAAPEAUHBITMAP__@@HH@Z 0000000140051c91 f   ViEngineEx:ViEngineEx.dll
 0001:00050c97       __imp_load_?GetCurrentItem@CViEngineExDatabaseInterface@CViEngineExNS@@UEAAHXZ 0000000140051c97 f   ViEngineEx:ViEngineEx.dll
 0001:00050ca3       ?GetCurrentItem@CViEngineExDatabaseInterface@CViEngineExNS@@UEAAHXZ 0000000140051ca3 f   ViEngineEx:ViEngineEx.dll
 0001:00050ca9       __imp_load_?GetDBMode@CViEngineExDatabaseInterface@CViEngineExNS@@UEAAHXZ 0000000140051ca9 f   ViEngineEx:ViEngineEx.dll
 0001:00050cb5       ?GetDBMode@CViEngineExDatabaseInterface@CViEngineExNS@@UEAAHXZ 0000000140051cb5 f   ViEngineEx:ViEngineEx.dll
 0001:00050cbb       __imp_load_?GetItemBasePath@CViEngineExDatabaseInterface@CViEngineExNS@@UEAA_NHPEA_WH@Z 0000000140051cbb f   ViEngineEx:ViEngineEx.dll
 0001:00050cc7       ?GetItemBasePath@CViEngineExDatabaseInterface@CViEngineExNS@@UEAA_NHPEA_WH@Z 0000000140051cc7 f   ViEngineEx:ViEngineEx.dll
 0001:00050ccd       __imp_load_?GetItemCount@CViEngineExDatabaseInterface@CViEngineExNS@@UEAAHXZ 0000000140051ccd f   ViEngineEx:ViEngineEx.dll
 0001:00050cd9       ?GetItemCount@CViEngineExDatabaseInterface@CViEngineExNS@@UEAAHXZ 0000000140051cd9 f   ViEngineEx:ViEngineEx.dll
 0001:00050cdf       __imp_load_?GetItemData@CViEngineExDatabaseInterface@CViEngineExNS@@UEAA_NPEB_WPEA_WH@Z 0000000140051cdf f   ViEngineEx:ViEngineEx.dll
 0001:00050ceb       ?GetItemData@CViEngineExDatabaseInterface@CViEngineExNS@@UEAA_NPEB_WPEA_WH@Z 0000000140051ceb f   ViEngineEx:ViEngineEx.dll
 0001:00050cf1       __imp_load_?GetLastFile@CViEngineExDatabaseInterface@CViEngineExNS@@UEAAPEB_WPEB_W@Z 0000000140051cf1 f   ViEngineEx:ViEngineEx.dll
 0001:00050cfd       ?GetLastFile@CViEngineExDatabaseInterface@CViEngineExNS@@UEAAPEB_WPEB_W@Z 0000000140051cfd f   ViEngineEx:ViEngineEx.dll
 0001:00050d03       __imp_load_?GetLastSessionFiles@CViEngineExDatabaseInterface@CViEngineExNS@@UEAAIHPEA_WH@Z 0000000140051d03 f   ViEngineEx:ViEngineEx.dll
 0001:00050d0f       ?GetLastSessionFiles@CViEngineExDatabaseInterface@CViEngineExNS@@UEAAIHPEA_WH@Z 0000000140051d0f f   ViEngineEx:ViEngineEx.dll
 0001:00050d15       __imp_load_?GetSavePhoto@CViEngineExDatabaseInterface@CViEngineExNS@@UEAA_NXZ 0000000140051d15 f   ViEngineEx:ViEngineEx.dll
 0001:00050d21       ?GetSavePhoto@CViEngineExDatabaseInterface@CViEngineExNS@@UEAA_NXZ 0000000140051d21 f   ViEngineEx:ViEngineEx.dll
 0001:00050d27       __imp_load_?GetSessionFilePath@CViEngineExDatabaseInterface@CViEngineExNS@@UEAA_NPEB_WPEA_WH@Z 0000000140051d27 f   ViEngineEx:ViEngineEx.dll
 0001:00050d33       ?GetSessionFilePath@CViEngineExDatabaseInterface@CViEngineExNS@@UEAA_NPEB_WPEA_WH@Z 0000000140051d33 f   ViEngineEx:ViEngineEx.dll
 0001:00050d39       __imp_load_?GetSessionName@CViEngineExDatabaseInterface@CViEngineExNS@@UEAA_NPEA_WH@Z 0000000140051d39 f   ViEngineEx:ViEngineEx.dll
 0001:00050d45       ?GetSessionName@CViEngineExDatabaseInterface@CViEngineExNS@@UEAA_NPEA_WH@Z 0000000140051d45 f   ViEngineEx:ViEngineEx.dll
 0001:00050d4b       __imp_load_?IsAborted@CViEngineExDatabaseInterface@CViEngineExNS@@UEAA_NXZ 0000000140051d4b f   ViEngineEx:ViEngineEx.dll
 0001:00050d57       ?IsAborted@CViEngineExDatabaseInterface@CViEngineExNS@@UEAA_NXZ 0000000140051d57 f   ViEngineEx:ViEngineEx.dll
 0001:00050d5d       __imp_load_?IsBusy@CViEngineExDatabaseInterface@CViEngineExNS@@UEAA_NXZ 0000000140051d5d f   ViEngineEx:ViEngineEx.dll
 0001:00050d69       ?IsBusy@CViEngineExDatabaseInterface@CViEngineExNS@@UEAA_NXZ 0000000140051d69 f   ViEngineEx:ViEngineEx.dll
 0001:00050d6f       __imp_load_?IsStarted@CViEngineExDatabaseInterface@CViEngineExNS@@UEAA_NXZ 0000000140051d6f f   ViEngineEx:ViEngineEx.dll
 0001:00050d7b       ?IsStarted@CViEngineExDatabaseInterface@CViEngineExNS@@UEAA_NXZ 0000000140051d7b f   ViEngineEx:ViEngineEx.dll
 0001:00050d81       __imp_load_?MakeBackup@CViEngineExDatabaseInterface@CViEngineExNS@@UEAAXPEB_W@Z 0000000140051d81 f   ViEngineEx:ViEngineEx.dll
 0001:00050d8d       ?MakeBackup@CViEngineExDatabaseInterface@CViEngineExNS@@UEAAXPEB_W@Z 0000000140051d8d f   ViEngineEx:ViEngineEx.dll
 0001:00050d93       __imp_load_?NewID@CViEngineExDatabaseInterface@CViEngineExNS@@UEAA_NPEA_WH@Z 0000000140051d93 f   ViEngineEx:ViEngineEx.dll
 0001:00050d9f       ?NewID@CViEngineExDatabaseInterface@CViEngineExNS@@UEAA_NPEA_WH@Z 0000000140051d9f f   ViEngineEx:ViEngineEx.dll
 0001:00050da5       __imp_load_?NewItem@CViEngineExDatabaseInterface@CViEngineExNS@@UEAAHPEB_W@Z 0000000140051da5 f   ViEngineEx:ViEngineEx.dll
 0001:00050db1       ?NewItem@CViEngineExDatabaseInterface@CViEngineExNS@@UEAAHPEB_W@Z 0000000140051db1 f   ViEngineEx:ViEngineEx.dll
 0001:00050db7       __imp_load_?OnSessionClosed@CViEngineExDatabaseInterface@CViEngineExNS@@UEAA_NPEB_W@Z 0000000140051db7 f   ViEngineEx:ViEngineEx.dll
 0001:00050dc3       ?OnSessionClosed@CViEngineExDatabaseInterface@CViEngineExNS@@UEAA_NPEB_W@Z 0000000140051dc3 f   ViEngineEx:ViEngineEx.dll
 0001:00050dc9       __imp_load_?ProcessMeasureJSON@CViEngineExDatabaseInterface@CViEngineExNS@@UEAA_NPEB_W00@Z 0000000140051dc9 f   ViEngineEx:ViEngineEx.dll
 0001:00050dd5       ?ProcessMeasureJSON@CViEngineExDatabaseInterface@CViEngineExNS@@UEAA_NPEB_W00@Z 0000000140051dd5 f   ViEngineEx:ViEngineEx.dll
 0001:00050ddb       __imp_load_?ReadFile@CViEngineExDatabaseInterface@CViEngineExNS@@UEAAIPEB_WPEAXI_N@Z 0000000140051ddb f   ViEngineEx:ViEngineEx.dll
 0001:00050de7       ?ReadFile@CViEngineExDatabaseInterface@CViEngineExNS@@UEAAIPEB_WPEAXI_N@Z 0000000140051de7 f   ViEngineEx:ViEngineEx.dll
 0001:00050ded       __imp_load_?Reload@CViEngineExDatabaseInterface@CViEngineExNS@@UEAAHXZ 0000000140051ded f   ViEngineEx:ViEngineEx.dll
 0001:00050df9       ?Reload@CViEngineExDatabaseInterface@CViEngineExNS@@UEAAHXZ 0000000140051df9 f   ViEngineEx:ViEngineEx.dll
 0001:00050dff       __imp_load_?SelectItem@CViEngineExDatabaseInterface@CViEngineExNS@@UEAA_NHH@Z 0000000140051dff f   ViEngineEx:ViEngineEx.dll
 0001:00050e0b       ?SelectItem@CViEngineExDatabaseInterface@CViEngineExNS@@UEAA_NHH@Z 0000000140051e0b f   ViEngineEx:ViEngineEx.dll
 0001:00050e11       __imp_load_?SetBasePath@CViEngineExDatabaseInterface@CViEngineExNS@@UEAA_NPEA_W@Z 0000000140051e11 f   ViEngineEx:ViEngineEx.dll
 0001:00050e1d       ?SetBasePath@CViEngineExDatabaseInterface@CViEngineExNS@@UEAA_NPEA_W@Z 0000000140051e1d f   ViEngineEx:ViEngineEx.dll
 0001:00050e23       __imp_load_?SetDBMode@CViEngineExDatabaseInterface@CViEngineExNS@@UEAAXH@Z 0000000140051e23 f   ViEngineEx:ViEngineEx.dll
 0001:00050e2f       ?SetDBMode@CViEngineExDatabaseInterface@CViEngineExNS@@UEAAXH@Z 0000000140051e2f f   ViEngineEx:ViEngineEx.dll
 0001:00050e35       __imp_load_?SetItemData@CViEngineExDatabaseInterface@CViEngineExNS@@UEAA_NPEB_W0@Z 0000000140051e35 f   ViEngineEx:ViEngineEx.dll
 0001:00050e41       ?SetItemData@CViEngineExDatabaseInterface@CViEngineExNS@@UEAA_NPEB_W0@Z 0000000140051e41 f   ViEngineEx:ViEngineEx.dll
 0001:00050e47       __imp_load_?SetSavePhoto@CViEngineExDatabaseInterface@CViEngineExNS@@UEAA_N_N@Z 0000000140051e47 f   ViEngineEx:ViEngineEx.dll
 0001:00050e53       ?SetSavePhoto@CViEngineExDatabaseInterface@CViEngineExNS@@UEAA_N_N@Z 0000000140051e53 f   ViEngineEx:ViEngineEx.dll
 0001:00050e59       __imp_load_?SetStatus@CViEngineExDatabaseInterface@CViEngineExNS@@UEAAXPEB_WPEBD@Z 0000000140051e59 f   ViEngineEx:ViEngineEx.dll
 0001:00050e65       ?SetStatus@CViEngineExDatabaseInterface@CViEngineExNS@@UEAAXPEB_WPEBD@Z 0000000140051e65 f   ViEngineEx:ViEngineEx.dll
 0001:00050e6b       __imp_load_?ValidateSessionFace@CViEngineExDatabaseInterface@CViEngineExNS@@UEAA_NXZ 0000000140051e6b f   ViEngineEx:ViEngineEx.dll
 0001:00050e77       ?ValidateSessionFace@CViEngineExDatabaseInterface@CViEngineExNS@@UEAA_NXZ 0000000140051e77 f   ViEngineEx:ViEngineEx.dll
 0001:00050e7d       __imp_load_?onResultJSON@CViEngineExDatabaseInterface@CViEngineExNS@@UEAA_NPEBDPEB_W@Z 0000000140051e7d f   ViEngineEx:ViEngineEx.dll
 0001:00050e89       ?onResultJSON@CViEngineExDatabaseInterface@CViEngineExNS@@UEAA_NPEBDPEB_W@Z 0000000140051e89 f   ViEngineEx:ViEngineEx.dll
 0001:00050e8f       __imp_load_??0CViEngineExRegInterface@CViEngineExNS@@QEAA@XZ 0000000140051e8f f   ViEngineEx:ViEngineEx.dll
 0001:00050e9b       __imp_load_??1CViEngineExRegInterface@CViEngineExNS@@QEAA@XZ 0000000140051e9b f   ViEngineEx:ViEngineEx.dll
 0001:00050ea7       __imp_load_?MakeSave@CViEngineExRegInterface@CViEngineExNS@@UEAAXXZ 0000000140051ea7 f   ViEngineEx:ViEngineEx.dll
 0001:00050eb3       __imp_load_?MakeLoad@CViEngineExRegInterface@CViEngineExNS@@UEAAXXZ 0000000140051eb3 f   ViEngineEx:ViEngineEx.dll
 0001:00050ebf       __imp_load_?GetRegBase0@CViEngineExRegInterface@CViEngineExNS@@UEAAPEB_WXZ 0000000140051ebf f   ViEngineEx:ViEngineEx.dll
 0001:00050ecb       ?GetRegBase0@CViEngineExRegInterface@CViEngineExNS@@UEAAPEB_WXZ 0000000140051ecb f   ViEngineEx:ViEngineEx.dll
 0001:00050ed1       __imp_load_?LoadSettings@CViEngineExRegInterface@CViEngineExNS@@UEAAHPEBDPEB_W1@Z 0000000140051ed1 f   ViEngineEx:ViEngineEx.dll
 0001:00050edd       ?LoadSettings@CViEngineExRegInterface@CViEngineExNS@@UEAAHPEBDPEB_W1@Z 0000000140051edd f   ViEngineEx:ViEngineEx.dll
 0001:00050ee3       __imp_load_?LoadSettings@CViEngineExRegInterface@CViEngineExNS@@UEAAHPEB_W0@Z 0000000140051ee3 f   ViEngineEx:ViEngineEx.dll
 0001:00050eef       ?LoadSettings@CViEngineExRegInterface@CViEngineExNS@@UEAAHPEB_W0@Z 0000000140051eef f   ViEngineEx:ViEngineEx.dll
 0001:00050ef5       __imp_load_?RegCoreGroup@CViEngineExRegInterface@CViEngineExNS@@UEAAXPEB_WPEA_W_K@Z 0000000140051ef5 f   ViEngineEx:ViEngineEx.dll
 0001:00050f01       ?RegCoreGroup@CViEngineExRegInterface@CViEngineExNS@@UEAAXPEB_WPEA_W_K@Z 0000000140051f01 f   ViEngineEx:ViEngineEx.dll
 0001:00050f07       __imp_load_?RegLoad@CViEngineExRegInterface@CViEngineExNS@@UEAAXPEB_W0AEAH@Z 0000000140051f07 f   ViEngineEx:ViEngineEx.dll
 0001:00050f13       ?RegLoad@CViEngineExRegInterface@CViEngineExNS@@UEAAXPEB_W0AEAH@Z 0000000140051f13 f   ViEngineEx:ViEngineEx.dll
 0001:00050f19       __imp_load_?RegLoad@CViEngineExRegInterface@CViEngineExNS@@UEAAXPEB_W0AEAM@Z 0000000140051f19 f   ViEngineEx:ViEngineEx.dll
 0001:00050f25       ?RegLoad@CViEngineExRegInterface@CViEngineExNS@@UEAAXPEB_W0AEAM@Z 0000000140051f25 f   ViEngineEx:ViEngineEx.dll
 0001:00050f2b       __imp_load_?RegLoad@CViEngineExRegInterface@CViEngineExNS@@UEAAXPEB_W0AEAN@Z 0000000140051f2b f   ViEngineEx:ViEngineEx.dll
 0001:00050f37       ?RegLoad@CViEngineExRegInterface@CViEngineExNS@@UEAAXPEB_W0AEAN@Z 0000000140051f37 f   ViEngineEx:ViEngineEx.dll
 0001:00050f3d       __imp_load_?RegLoad@CViEngineExRegInterface@CViEngineExNS@@UEAAXPEB_W0AEAUtagPOINT@@@Z 0000000140051f3d f   ViEngineEx:ViEngineEx.dll
 0001:00050f49       ?RegLoad@CViEngineExRegInterface@CViEngineExNS@@UEAAXPEB_W0AEAUtagPOINT@@@Z 0000000140051f49 f   ViEngineEx:ViEngineEx.dll
 0001:00050f4f       __imp_load_?RegLoad@CViEngineExRegInterface@CViEngineExNS@@UEAAXPEB_W0AEAUtagRECT@@@Z 0000000140051f4f f   ViEngineEx:ViEngineEx.dll
 0001:00050f5b       ?RegLoad@CViEngineExRegInterface@CViEngineExNS@@UEAAXPEB_W0AEAUtagRECT@@@Z 0000000140051f5b f   ViEngineEx:ViEngineEx.dll
 0001:00050f61       __imp_load_?RegLoad@CViEngineExRegInterface@CViEngineExNS@@UEAAXPEB_W0AEA_J@Z 0000000140051f61 f   ViEngineEx:ViEngineEx.dll
 0001:00050f6d       ?RegLoad@CViEngineExRegInterface@CViEngineExNS@@UEAAXPEB_W0AEA_J@Z 0000000140051f6d f   ViEngineEx:ViEngineEx.dll
 0001:00050f73       __imp_load_?RegLoad@CViEngineExRegInterface@CViEngineExNS@@UEAAXPEB_W0AEA_N@Z 0000000140051f73 f   ViEngineEx:ViEngineEx.dll
 0001:00050f7f       ?RegLoad@CViEngineExRegInterface@CViEngineExNS@@UEAAXPEB_W0AEA_N@Z 0000000140051f7f f   ViEngineEx:ViEngineEx.dll
 0001:00050f85       __imp_load_?RegLoad@CViEngineExRegInterface@CViEngineExNS@@UEAAXPEB_W0PEA_WH@Z 0000000140051f85 f   ViEngineEx:ViEngineEx.dll
 0001:00050f91       ?RegLoad@CViEngineExRegInterface@CViEngineExNS@@UEAAXPEB_W0PEA_WH@Z 0000000140051f91 f   ViEngineEx:ViEngineEx.dll
 0001:00050f97       __imp_load_?RegSave@CViEngineExRegInterface@CViEngineExNS@@UEAAXPEB_W00@Z 0000000140051f97 f   ViEngineEx:ViEngineEx.dll
 0001:00050fa3       ?RegSave@CViEngineExRegInterface@CViEngineExNS@@UEAAXPEB_W00@Z 0000000140051fa3 f   ViEngineEx:ViEngineEx.dll
 0001:00050fa9       __imp_load_?RegSave@CViEngineExRegInterface@CViEngineExNS@@UEAAXPEB_W0AEBUtagPOINT@@@Z 0000000140051fa9 f   ViEngineEx:ViEngineEx.dll
 0001:00050fb5       ?RegSave@CViEngineExRegInterface@CViEngineExNS@@UEAAXPEB_W0AEBUtagPOINT@@@Z 0000000140051fb5 f   ViEngineEx:ViEngineEx.dll
 0001:00050fbb       __imp_load_?RegSave@CViEngineExRegInterface@CViEngineExNS@@UEAAXPEB_W0AEBUtagRECT@@@Z 0000000140051fbb f   ViEngineEx:ViEngineEx.dll
 0001:00050fc7       ?RegSave@CViEngineExRegInterface@CViEngineExNS@@UEAAXPEB_W0AEBUtagRECT@@@Z 0000000140051fc7 f   ViEngineEx:ViEngineEx.dll
 0001:00050fcd       __imp_load_?RegSave@CViEngineExRegInterface@CViEngineExNS@@UEAAXPEB_W0H@Z 0000000140051fcd f   ViEngineEx:ViEngineEx.dll
 0001:00050fd9       ?RegSave@CViEngineExRegInterface@CViEngineExNS@@UEAAXPEB_W0H@Z 0000000140051fd9 f   ViEngineEx:ViEngineEx.dll
 0001:00050fdf       __imp_load_?RegSave@CViEngineExRegInterface@CViEngineExNS@@UEAAXPEB_W0M@Z 0000000140051fdf f   ViEngineEx:ViEngineEx.dll
 0001:00050feb       ?RegSave@CViEngineExRegInterface@CViEngineExNS@@UEAAXPEB_W0M@Z 0000000140051feb f   ViEngineEx:ViEngineEx.dll
 0001:00050ff1       __imp_load_?RegSave@CViEngineExRegInterface@CViEngineExNS@@UEAAXPEB_W0N@Z 0000000140051ff1 f   ViEngineEx:ViEngineEx.dll
 0001:00050ffd       ?RegSave@CViEngineExRegInterface@CViEngineExNS@@UEAAXPEB_W0N@Z 0000000140051ffd f   ViEngineEx:ViEngineEx.dll
 0001:00051003       __imp_load_?RegSave@CViEngineExRegInterface@CViEngineExNS@@UEAAXPEB_W0_J@Z 0000000140052003 f   ViEngineEx:ViEngineEx.dll
 0001:0005100f       ?RegSave@CViEngineExRegInterface@CViEngineExNS@@UEAAXPEB_W0_J@Z 000000014005200f f   ViEngineEx:ViEngineEx.dll
 0001:00051015       __imp_load_?RegSave@CViEngineExRegInterface@CViEngineExNS@@UEAAXPEB_W0_N@Z 0000000140052015 f   ViEngineEx:ViEngineEx.dll
 0001:00051021       ?RegSave@CViEngineExRegInterface@CViEngineExNS@@UEAAXPEB_W0_N@Z 0000000140052021 f   ViEngineEx:ViEngineEx.dll
 0001:00051027       __imp_load_?SaveSettings@CViEngineExRegInterface@CViEngineExNS@@UEAAHPEADPEB_W_N@Z 0000000140052027 f   ViEngineEx:ViEngineEx.dll
 0001:00051033       ?SaveSettings@CViEngineExRegInterface@CViEngineExNS@@UEAAHPEADPEB_W_N@Z 0000000140052033 f   ViEngineEx:ViEngineEx.dll
 0001:00051039       __imp_load_?SeqIsValidCode@CViEngineExSeqInterface@CViEngineExNS@@QEAA_NPEB_W@Z 0000000140052039 f   ViEngineEx:ViEngineEx.dll
 0001:00051045       __imp_load_?GetF1@CViEngineProSDK_v01@@QEAAMH@Z 0000000140052045 f   viengine:ViEngine.dll
 0001:00051051       __tailMerge_viengine_dll   0000000140052051     viengine:ViEngine.dll
 0001:000510ca       __imp_load_?GetStr@CViEngineProSDK_v01@@QEAAPEB_WH@Z 00000001400520ca f   viengine:ViEngine.dll
 0001:000510d6       __imp_load_?GetResultPtr@CViEngineProSDK_v01@@QEAA_NHPEAPEAXPEAH1@Z 00000001400520d6 f   viengine:ViEngine.dll
 0001:000510e2       __imp_load_?LockResult@CViEngineProSDK_v01@@QEAAPEAX_NPEAX@Z 00000001400520e2 f   viengine:ViEngine.dll
 0001:000510ee       __imp_load_?GetI1@CViEngineProSDK_v01@@QEAAHH@Z 00000001400520ee f   viengine:ViEngine.dll
 0001:000510fc       ?DloadAcquireSectionWriteAccess@@YAXXZ 00000001400520fc f i Delayimp:delayhlp.obj
 0001:000511a8       ?DloadGetSRWLockFunctionPointers@@YAEXZ 00000001400521a8 f i Delayimp:delayhlp.obj
 0001:00051244       ?DloadMakePermanentImageCommit@@YAXPEAX_K@Z 0000000140052244 f i Delayimp:delayhlp.obj
 0001:000512dc       ?DloadObtainSection@@YAPEAXPEAK0@Z 00000001400522dc f i Delayimp:delayhlp.obj
 0001:00051378       ?DloadProtectSection@@YAXKPEAK@Z 0000000140052378 f i Delayimp:delayhlp.obj
 0001:00051408       ?DloadReleaseSectionWriteAccess@@YAXXZ 0000000140052408 f i Delayimp:delayhlp.obj
 0001:0005149c       __delayLoadHelper2         000000014005249c f   Delayimp:delayhlp.obj
 0001:00051771       ??2@YAPEAX_K@Z             0000000140052771 f   mfc140u:mfc140u.dll
 0001:00051777       ??3@YAXPEAX@Z              0000000140052777 f   mfc140u:mfc140u.dll
 0001:0005177d       ?GetRuntimeClass@CObject@@UEBAPEAUCRuntimeClass@@XZ 000000014005277d f   mfc140u:mfc140u.dll
 0001:00051783       ??0CCommandLineInfo@@QEAA@XZ 0000000140052783 f   mfc140u:mfc140u.dll
 0001:00051789       ?ParseParam@CCommandLineInfo@@UEAAXPEBDHH@Z 0000000140052789 f   mfc140u:mfc140u.dll
 0001:0005178f       ??1CCommandLineInfo@@UEAA@XZ 000000014005278f f   mfc140u:mfc140u.dll
 0001:00051795       ?AfxThrowMemoryException@@YAXXZ 0000000140052795 f   mfc140u:mfc140u.dll
 0001:0005179b       ?AfxThrowInvalidArgException@@YAXXZ 000000014005279b f   mfc140u:mfc140u.dll
 0001:000517a1       ?AfxThrowOleException@@YAXJ@Z 00000001400527a1 f   mfc140u:mfc140u.dll
 0001:000517a7       ?GetRuntimeClass@CGdiObject@@UEBAPEAUCRuntimeClass@@XZ 00000001400527a7 f   mfc140u:mfc140u.dll
 0001:000517ad       ?Attach@CGdiObject@@QEAAHPEAX@Z 00000001400527ad f   mfc140u:mfc140u.dll
 0001:000517b3       ?DeleteObject@CGdiObject@@QEAAHXZ 00000001400527b3 f   mfc140u:mfc140u.dll
 0001:000517b9       ?GetRuntimeClass@CPen@@UEBAPEAUCRuntimeClass@@XZ 00000001400527b9 f   mfc140u:mfc140u.dll
 0001:000517bf       ?GetRuntimeClass@CBrush@@UEBAPEAUCRuntimeClass@@XZ 00000001400527bf f   mfc140u:mfc140u.dll
 0001:000517c5       ?FromHandle@CDC@@SAPEAV1@PEAUHDC__@@@Z 00000001400527c5 f   mfc140u:mfc140u.dll
 0001:000517cb       ?SelectObject@CDC@@QEAAPEAVCPen@@PEAV2@@Z 00000001400527cb f   mfc140u:mfc140u.dll
 0001:000517d1       ?SelectObject@CDC@@QEAAPEAVCBrush@@PEAV2@@Z 00000001400527d1 f   mfc140u:mfc140u.dll
 0001:000517d7       ?SetBkMode@CDC@@QEAAHH@Z   00000001400527d7 f   mfc140u:mfc140u.dll
 0001:000517dd       ?FillSolidRect@CDC@@QEAAXPEBUtagRECT@@K@Z 00000001400527dd f   mfc140u:mfc140u.dll
 0001:000517e3       ??0CPaintDC@@QEAA@PEAVCWnd@@@Z 00000001400527e3 f   mfc140u:mfc140u.dll
 0001:000517e9       ??1CPaintDC@@UEAA@XZ       00000001400527e9 f   mfc140u:mfc140u.dll
 0001:000517ef       ?OnCmdMsg@CCmdTarget@@UEAAHIHPEAXPEAUAFX_CMDHANDLERINFO@@@Z 00000001400527ef f   mfc140u:mfc140u.dll
 0001:000517f5       ?IsInvokeAllowed@CCmdTarget@@UEAAHJ@Z 00000001400527f5 f   mfc140u:mfc140u.dll
 0001:000517fb       ?GetDispatchIID@CCmdTarget@@UEAAHPEAU_GUID@@@Z 00000001400527fb f   mfc140u:mfc140u.dll
 0001:00051801       ?GetTypeInfoCount@CCmdTarget@@UEAAIXZ 0000000140052801 f   mfc140u:mfc140u.dll
 0001:00051807       ?GetTypeLibCache@CCmdTarget@@UEAAPEAVCTypeLibCache@@XZ 0000000140052807 f   mfc140u:mfc140u.dll
 0001:0005180d       ?GetTypeLib@CCmdTarget@@UEAAJKPEAPEAUITypeLib@@@Z 000000014005280d f   mfc140u:mfc140u.dll
 0001:00051813       ?GetCommandMap@CCmdTarget@@MEBAPEBUAFX_OLECMDMAP@@XZ 0000000140052813 f   mfc140u:mfc140u.dll
 0001:00051819       ?GetDispatchMap@CCmdTarget@@MEBAPEBUAFX_DISPMAP@@XZ 0000000140052819 f   mfc140u:mfc140u.dll
 0001:0005181f       ?GetConnectionMap@CCmdTarget@@MEBAPEBUAFX_CONNECTIONMAP@@XZ 000000014005281f f   mfc140u:mfc140u.dll
 0001:00051825       ?GetEventSinkMap@CCmdTarget@@MEBAPEBUAFX_EVENTSINKMAP@@XZ 0000000140052825 f   mfc140u:mfc140u.dll
 0001:0005182b       ?OnCreateAggregates@CCmdTarget@@UEAAHXZ 000000014005282b f   mfc140u:mfc140u.dll
 0001:00051831       ?GetInterfaceHook@CCmdTarget@@UEAAPEAUIUnknown@@PEBX@Z 0000000140052831 f   mfc140u:mfc140u.dll
 0001:00051837       ?GetExtraConnectionPoints@CCmdTarget@@MEAAHPEAVCPtrArray@@@Z 0000000140052837 f   mfc140u:mfc140u.dll
 0001:0005183d       ?GetConnectionHook@CCmdTarget@@MEAAPEAUIConnectionPoint@@AEBU_GUID@@@Z 000000014005283d f   mfc140u:mfc140u.dll
 0001:00051843       ??0CWnd@@QEAA@XZ           0000000140052843 f   mfc140u:mfc140u.dll
 0001:00051849       ?FromHandle@CWnd@@SAPEAV1@PEAUHWND__@@@Z 0000000140052849 f   mfc140u:mfc140u.dll
 0001:0005184f       ?PreSubclassWindow@CWnd@@UEAAXXZ 000000014005284f f   mfc140u:mfc140u.dll
 0001:00051855       ?Create@CWnd@@UEAAHPEB_W0KAEBUtagRECT@@PEAV1@IPEAUCCreateContext@@@Z 0000000140052855 f   mfc140u:mfc140u.dll
 0001:0005185b       ?CreateEx@CWnd@@UEAAHKPEB_W0KHHHHPEAUHWND__@@PEAUHMENU__@@PEAX@Z 000000014005285b f   mfc140u:mfc140u.dll
 0001:00051861       ?CreateEx@CWnd@@UEAAHKPEB_W0KAEBUtagRECT@@PEAV1@IPEAX@Z 0000000140052861 f   mfc140u:mfc140u.dll
 0001:00051867       ?DestroyWindow@CWnd@@UEAAHXZ 0000000140052867 f   mfc140u:mfc140u.dll
 0001:0005186d       ?PreCreateWindow@CWnd@@UEAAHAEAUtagCREATESTRUCTW@@@Z 000000014005286d f   mfc140u:mfc140u.dll
 0001:00051873       ?CalcWindowRect@CWnd@@UEAAXPEAUtagRECT@@I@Z 0000000140052873 f   mfc140u:mfc140u.dll
 0001:00051879       ?GetMenu@CWnd@@UEBAPEAVCMenu@@XZ 0000000140052879 f   mfc140u:mfc140u.dll
 0001:0005187f       ?SetMenu@CWnd@@UEAAHPEAVCMenu@@@Z 000000014005287f f   mfc140u:mfc140u.dll
 0001:00051885       ?OnToolHitTest@CWnd@@UEBA_JVCPoint@@PEAUtagTOOLINFOW@@@Z 0000000140052885 f   mfc140u:mfc140u.dll
 0001:0005188b       ?GetScrollBarCtrl@CWnd@@UEBAPEAVCScrollBar@@H@Z 000000014005288b f   mfc140u:mfc140u.dll
 0001:00051891       ?WinHelpW@CWnd@@UEAAX_KI@Z 0000000140052891 f   mfc140u:mfc140u.dll
 0001:00051897       ?HtmlHelpW@CWnd@@UEAAX_KI@Z 0000000140052897 f   mfc140u:mfc140u.dll
 0001:0005189d       ?WinHelpInternal@CWnd@@UEAAX_KI@Z 000000014005289d f   mfc140u:mfc140u.dll
 0001:000518a3       ?ContinueModal@CWnd@@UEAAHXZ 00000001400528a3 f   mfc140u:mfc140u.dll
 0001:000518a9       ?EndModalLoop@CWnd@@UEAAXH@Z 00000001400528a9 f   mfc140u:mfc140u.dll
 0001:000518af       ?OnDrawIconicThumbnailOrLivePreview@CWnd@@UEAAXAEAVCDC@@VCRect@@VCSize@@HAEAH@Z 00000001400528af f   mfc140u:mfc140u.dll
 0001:000518b5       ?GetInterfaceMap@CWnd@@MEBAPEBUAFX_INTERFACEMAP@@XZ 00000001400528b5 f   mfc140u:mfc140u.dll
 0001:000518bb       ?EnsureStdObj@CWnd@@UEAAJXZ 00000001400528bb f   mfc140u:mfc140u.dll
 0001:000518c1       ?get_accParent@CWnd@@UEAAJPEAPEAUIDispatch@@@Z 00000001400528c1 f   mfc140u:mfc140u.dll
 0001:000518c7       ?get_accChildCount@CWnd@@UEAAJPEAJ@Z 00000001400528c7 f   mfc140u:mfc140u.dll
 0001:000518cd       ?get_accChild@CWnd@@UEAAJUtagVARIANT@@PEAPEAUIDispatch@@@Z 00000001400528cd f   mfc140u:mfc140u.dll
 0001:000518d3       ?get_accName@CWnd@@UEAAJUtagVARIANT@@PEAPEA_W@Z 00000001400528d3 f   mfc140u:mfc140u.dll
 0001:000518d9       ?get_accValue@CWnd@@UEAAJUtagVARIANT@@PEAPEA_W@Z 00000001400528d9 f   mfc140u:mfc140u.dll
 0001:000518df       ?get_accDescription@CWnd@@UEAAJUtagVARIANT@@PEAPEA_W@Z 00000001400528df f   mfc140u:mfc140u.dll
 0001:000518e5       ?get_accRole@CWnd@@UEAAJUtagVARIANT@@PEAU2@@Z 00000001400528e5 f   mfc140u:mfc140u.dll
 0001:000518eb       ?get_accState@CWnd@@UEAAJUtagVARIANT@@PEAU2@@Z 00000001400528eb f   mfc140u:mfc140u.dll
 0001:000518f1       ?get_accHelp@CWnd@@UEAAJUtagVARIANT@@PEAPEA_W@Z 00000001400528f1 f   mfc140u:mfc140u.dll
 0001:000518f7       ?get_accHelpTopic@CWnd@@UEAAJPEAPEA_WUtagVARIANT@@PEAJ@Z 00000001400528f7 f   mfc140u:mfc140u.dll
 0001:000518fd       ?get_accKeyboardShortcut@CWnd@@UEAAJUtagVARIANT@@PEAPEA_W@Z 00000001400528fd f   mfc140u:mfc140u.dll
 0001:00051903       ?get_accFocus@CWnd@@UEAAJPEAUtagVARIANT@@@Z 0000000140052903 f   mfc140u:mfc140u.dll
 0001:00051909       ?get_accSelection@CWnd@@UEAAJPEAUtagVARIANT@@@Z 0000000140052909 f   mfc140u:mfc140u.dll
 0001:0005190f       ?get_accDefaultAction@CWnd@@UEAAJUtagVARIANT@@PEAPEA_W@Z 000000014005290f f   mfc140u:mfc140u.dll
 0001:00051915       ?accSelect@CWnd@@UEAAJJUtagVARIANT@@@Z 0000000140052915 f   mfc140u:mfc140u.dll
 0001:0005191b       ?accLocation@CWnd@@UEAAJPEAJ000UtagVARIANT@@@Z 000000014005291b f   mfc140u:mfc140u.dll
 0001:00051921       ?accNavigate@CWnd@@UEAAJJUtagVARIANT@@PEAU2@@Z 0000000140052921 f   mfc140u:mfc140u.dll
 0001:00051927       ?accHitTest@CWnd@@UEAAJJJPEAUtagVARIANT@@@Z 0000000140052927 f   mfc140u:mfc140u.dll
 0001:0005192d       ?accDoDefaultAction@CWnd@@UEAAJUtagVARIANT@@@Z 000000014005292d f   mfc140u:mfc140u.dll
 0001:00051933       ?put_accName@CWnd@@UEAAJUtagVARIANT@@PEA_W@Z 0000000140052933 f   mfc140u:mfc140u.dll
 0001:00051939       ?put_accValue@CWnd@@UEAAJUtagVARIANT@@PEA_W@Z 0000000140052939 f   mfc140u:mfc140u.dll
 0001:0005193f       ?SetProxy@CWnd@@UEAAJPEAUIAccessibleProxy@@@Z 000000014005293f f   mfc140u:mfc140u.dll
 0001:00051945       ?CreateAccessibleProxy@CWnd@@UEAAJ_K_JPEA_J@Z 0000000140052945 f   mfc140u:mfc140u.dll
 0001:0005194b       ?OnCommand@CWnd@@MEAAH_K_J@Z 000000014005294b f   mfc140u:mfc140u.dll
 0001:00051951       ?OnNotify@CWnd@@MEAAH_K_JPEA_J@Z 0000000140052951 f   mfc140u:mfc140u.dll
 0001:00051957       ?GetSuperWndProcAddr@CWnd@@MEAAPEAP6A_JPEAUHWND__@@I_K_J@ZXZ 0000000140052957 f   mfc140u:mfc140u.dll
 0001:0005195d       ?PreTranslateMessage@CWnd@@UEAAHPEAUtagMSG@@@Z 000000014005295d f   mfc140u:mfc140u.dll
 0001:00051963       ?OnAmbientProperty@CWnd@@UEAAHPEAVCOleControlSite@@JPEAUtagVARIANT@@@Z 0000000140052963 f   mfc140u:mfc140u.dll
 0001:00051969       ?WindowProc@CWnd@@MEAA_JI_K_J@Z 0000000140052969 f   mfc140u:mfc140u.dll
 0001:0005196f       ?OnWndMsg@CWnd@@MEAAHI_K_JPEA_J@Z 000000014005296f f   mfc140u:mfc140u.dll
 0001:00051975       ?Default@CWnd@@IEAA_JXZ    0000000140052975 f   mfc140u:mfc140u.dll
 0001:0005197b       ?DefWindowProcW@CWnd@@MEAA_JI_K_J@Z 000000014005297b f   mfc140u:mfc140u.dll
 0001:00051981       ?PostNcDestroy@CWnd@@MEAAXXZ 0000000140052981 f   mfc140u:mfc140u.dll
 0001:00051987       ?OnTouchInputs@CWnd@@MEAAHIPEAUtagTOUCHINPUT@@@Z 0000000140052987 f   mfc140u:mfc140u.dll
 0001:0005198d       ?OnTouchInput@CWnd@@MEAAHVCPoint@@HHPEAUtagTOUCHINPUT@@@Z 000000014005298d f   mfc140u:mfc140u.dll
 0001:00051993       ?GetGestureStatus@CWnd@@MEAAKVCPoint@@@Z 0000000140052993 f   mfc140u:mfc140u.dll
 0001:00051999       ?OnGestureZoom@CWnd@@MEAAHVCPoint@@J@Z 0000000140052999 f   mfc140u:mfc140u.dll
 0001:0005199f       ?OnGesturePan@CWnd@@MEAAHVCPoint@@0@Z 000000014005299f f   mfc140u:mfc140u.dll
 0001:000519a5       ?OnGestureRotate@CWnd@@MEAAHVCPoint@@N@Z 00000001400529a5 f   mfc140u:mfc140u.dll
 0001:000519ab       ?OnGestureTwoFingerTap@CWnd@@MEAAHVCPoint@@@Z 00000001400529ab f   mfc140u:mfc140u.dll
 0001:000519b1       ?OnGesturePressAndTap@CWnd@@MEAAHVCPoint@@J@Z 00000001400529b1 f   mfc140u:mfc140u.dll
 0001:000519b7       ?ResizeDynamicLayout@CWnd@@MEAAXXZ 00000001400529b7 f   mfc140u:mfc140u.dll
 0001:000519bd       ?CheckAutoCenter@CWnd@@UEAAHXZ 00000001400529bd f   mfc140u:mfc140u.dll
 0001:000519c3       ?IsFrameWnd@CWnd@@UEBAHXZ  00000001400529c3 f   mfc140u:mfc140u.dll
 0001:000519c9       ?OnFinalRelease@CWnd@@UEAAXXZ 00000001400529c9 f   mfc140u:mfc140u.dll
 0001:000519cf       ?CreateControlContainer@CWnd@@MEAAHPEAPEAVCOleControlContainer@@@Z 00000001400529cf f   mfc140u:mfc140u.dll
 0001:000519d5       ?CreateControlSite@CWnd@@MEAAHPEAVCOleControlContainer@@PEAPEAVCOleControlSite@@IAEBU_GUID@@@Z 00000001400529d5 f   mfc140u:mfc140u.dll
 0001:000519db       ?SetOccDialogInfo@CWnd@@MEAAHPEAU_AFX_OCC_DIALOG_INFO@@@Z 00000001400529db f   mfc140u:mfc140u.dll
 0001:000519e1       ?GetOccDialogInfo@CWnd@@MEAAPEAU_AFX_OCC_DIALOG_INFO@@XZ 00000001400529e1 f   mfc140u:mfc140u.dll
 0001:000519e7       ?GetThisMessageMap@CWnd@@KAPEBUAFX_MSGMAP@@XZ 00000001400529e7 f   mfc140u:mfc140u.dll
 0001:000519ed       ?GetMessageMap@CWnd@@MEBAPEBUAFX_MSGMAP@@XZ 00000001400529ed f   mfc140u:mfc140u.dll
 0001:000519f3       ?GetThisClass@CStatic@@SAPEAUCRuntimeClass@@XZ 00000001400529f3 f   mfc140u:mfc140u.dll
 0001:000519f9       ?Create@CStatic@@UEAAHPEB_WKAEBUtagRECT@@PEAVCWnd@@I@Z 00000001400529f9 f   mfc140u:mfc140u.dll
 0001:000519ff       ?DrawItem@CStatic@@UEAAXPEAUtagDRAWITEMSTRUCT@@@Z 00000001400529ff f   mfc140u:mfc140u.dll
 0001:00051a05       ??1CStatic@@UEAA@XZ        0000000140052a05 f   mfc140u:mfc140u.dll
 0001:00051a0b       ?OnChildNotify@CStatic@@MEAAHI_K_JPEA_J@Z 0000000140052a0b f   mfc140u:mfc140u.dll
 0001:00051a11       ?AfxMessageBox@@YAHPEB_WII@Z 0000000140052a11 f   mfc140u:mfc140u.dll
 0001:00051a17       ??0CSyncObject@@QEAA@PEB_W@Z 0000000140052a17 f   mfc140u:mfc140u.dll
 0001:00051a1d       ??1CSyncObject@@UEAA@XZ    0000000140052a1d f   mfc140u:mfc140u.dll
 0001:00051a23       ?GetRuntimeClass@CCriticalSection@@UEBAPEAUCRuntimeClass@@XZ 0000000140052a23 f   mfc140u:mfc140u.dll
 0001:00051a29       ??0CSingleLock@@QEAA@PEAVCSyncObject@@H@Z 0000000140052a29 f   mfc140u:mfc140u.dll
 0001:00051a2f       ?Unlock@CSingleLock@@QEAAHXZ 0000000140052a2f f   mfc140u:mfc140u.dll
 0001:00051a35       ??_U@YAPEAX_K@Z            0000000140052a35 f   mfc140u:mfc140u.dll
 0001:00051a3b       ??_V@YAXPEAX@Z             0000000140052a3b f   mfc140u:mfc140u.dll
 0001:00051a41       ?GetRuntimeClass@CFont@@UEBAPEAUCRuntimeClass@@XZ 0000000140052a41 f   mfc140u:mfc140u.dll
 0001:00051a47       ?GetDlgItem@CWnd@@QEBAPEAV1@H@Z 0000000140052a47 f   mfc140u:mfc140u.dll
 0001:00051a4d       ?SetWindowTextW@CWnd@@QEAAXPEB_W@Z 0000000140052a4d f   mfc140u:mfc140u.dll
 0001:00051a53       ?GetWindowTextW@CWnd@@QEBAXAEAV?$CStringT@_WV?$StrTraitMFC_DLL@_WV?$ChTraitsCRT@_W@ATL@@@@@ATL@@@Z 0000000140052a53 f   mfc140u:mfc140u.dll
 0001:00051a59       ?ShowWindow@CWnd@@QEAAHH@Z 0000000140052a59 f   mfc140u:mfc140u.dll
 0001:00051a5f       ?OnChildNotify@CWnd@@MEAAHI_K_JPEA_J@Z 0000000140052a5f f   mfc140u:mfc140u.dll
 0001:00051a65       ?Create@CDialog@@UEAAHPEB_WPEAVCWnd@@@Z 0000000140052a65 f   mfc140u:mfc140u.dll
 0001:00051a6b       ?CreateIndirect@CDialog@@UEAAHPEBUDLGTEMPLATE@@PEAVCWnd@@PEAX@Z 0000000140052a6b f   mfc140u:mfc140u.dll
 0001:00051a71       ?CreateIndirect@CDialog@@UEAAHPEAXPEAVCWnd@@@Z 0000000140052a71 f   mfc140u:mfc140u.dll
 0001:00051a77       ?DoModal@CDialog@@UEAA_JXZ 0000000140052a77 f   mfc140u:mfc140u.dll
 0001:00051a7d       ?OnInitDialog@CDialog@@UEAAHXZ 0000000140052a7d f   mfc140u:mfc140u.dll
 0001:00051a83       ?OnSetFont@CDialog@@UEAAXPEAVCFont@@@Z 0000000140052a83 f   mfc140u:mfc140u.dll
 0001:00051a89       ?OnOK@CDialog@@MEAAXXZ     0000000140052a89 f   mfc140u:mfc140u.dll
 0001:00051a8f       ?OnCancel@CDialog@@MEAAXXZ 0000000140052a8f f   mfc140u:mfc140u.dll
 0001:00051a95       ??1CDialog@@UEAA@XZ        0000000140052a95 f   mfc140u:mfc140u.dll
 0001:00051a9b       ?OnCmdMsg@CDialog@@UEAAHIHPEAXPEAUAFX_CMDHANDLERINFO@@@Z 0000000140052a9b f   mfc140u:mfc140u.dll
 0001:00051aa1       ?CheckAutoCenter@CDialog@@UEAAHXZ 0000000140052aa1 f   mfc140u:mfc140u.dll
 0001:00051aa7       ?SetOccDialogInfo@CDialog@@MEAAHPEAU_AFX_OCC_DIALOG_INFO@@@Z 0000000140052aa7 f   mfc140u:mfc140u.dll
 0001:00051aad       ?GetOccDialogInfo@CDialog@@MEAAPEAU_AFX_OCC_DIALOG_INFO@@XZ 0000000140052aad f   mfc140u:mfc140u.dll
 0001:00051ab3       ?PreInitDialog@CDialog@@MEAAXXZ 0000000140052ab3 f   mfc140u:mfc140u.dll
 0001:00051ab9       ??1CDialogImpl@@MEAA@XZ    0000000140052ab9 f   mfc140u:mfc140u.dll
 0001:00051abf       ?GetRuntimeClass@CDialogEx@@UEBAPEAUCRuntimeClass@@XZ 0000000140052abf f   mfc140u:mfc140u.dll
 0001:00051ac5       ??0CDialogEx@@QEAA@IPEAVCWnd@@@Z 0000000140052ac5 f   mfc140u:mfc140u.dll
 0001:00051acb       ?PreTranslateMessage@CDialogEx@@UEAAHPEAUtagMSG@@@Z 0000000140052acb f   mfc140u:mfc140u.dll
 0001:00051ad1       ?OnCommand@CDialogEx@@MEAAH_K_J@Z 0000000140052ad1 f   mfc140u:mfc140u.dll
 0001:00051ad7       ?GetThisMessageMap@CDialogEx@@KAPEBUAFX_MSGMAP@@XZ 0000000140052ad7 f   mfc140u:mfc140u.dll
 0001:00051add       ?DDX_Text@@YAXPEAVCDataExchange@@HAEAV?$CStringT@_WV?$StrTraitMFC_DLL@_WV?$ChTraitsCRT@_W@ATL@@@@@ATL@@@Z 0000000140052add f   mfc140u:mfc140u.dll
 0001:00051ae3       ?ModifyStyleEx@CWnd@@QEAAHKKI@Z 0000000140052ae3 f   mfc140u:mfc140u.dll
 0001:00051ae9       ?SetFocus@CWnd@@QEAAPEAV1@XZ 0000000140052ae9 f   mfc140u:mfc140u.dll
 0001:00051aef       ?UpdateData@CWnd@@QEAAHH@Z 0000000140052aef f   mfc140u:mfc140u.dll
 0001:00051af5       ??4COleVariant@@QEAAAEBV0@AEBV?$CStringT@_WV?$StrTraitMFC_DLL@_WV?$ChTraitsCRT@_W@ATL@@@@@ATL@@@Z 0000000140052af5 f   mfc140u:mfc140u.dll
 0001:00051afb       ?GetThisClass@CDialogEx@@SAPEAUCRuntimeClass@@XZ 0000000140052afb f   mfc140u:mfc140u.dll
 0001:00051b01       ?MoveWindow@CWnd@@QEAAXHHHHH@Z 0000000140052b01 f   mfc140u:mfc140u.dll
 0001:00051b07       ?PreTranslateMessage@CDialog@@UEAAHPEAUtagMSG@@@Z 0000000140052b07 f   mfc140u:mfc140u.dll
 0001:00051b0d       ?CDHtmlSinkHandlerQueryInterface@CDHtmlEventSink@@UEAAJAEBU_GUID@@PEAPEAX@Z 0000000140052b0d f   mfc140u:mfc140u.dll
 0001:00051b13       ?AddRef@CDHtmlEventSink@@UEAAKXZ 0000000140052b13 f   mfc140u:mfc140u.dll
 0001:00051b19       ?Release@CDHtmlEventSink@@UEAAKXZ 0000000140052b19 f   mfc140u:mfc140u.dll
 0001:00051b1f       ?GetTypeInfoCount@CDHtmlEventSink@@UEAAJPEAI@Z 0000000140052b1f f   mfc140u:mfc140u.dll
 0001:00051b25       ?GetTypeInfo@CDHtmlEventSink@@UEAAJIKPEAPEAUITypeInfo@@@Z 0000000140052b25 f   mfc140u:mfc140u.dll
 0001:00051b2b       ?GetIDsOfNames@CDHtmlEventSink@@UEAAJAEBU_GUID@@PEAPEA_WIKPEAJ@Z 0000000140052b2b f   mfc140u:mfc140u.dll
 0001:00051b31       ?Invoke@CDHtmlEventSink@@UEAAJJAEBU_GUID@@KGPEAUtagDISPPARAMS@@PEAUtagVARIANT@@PEAUtagEXCEPINFO@@PEAI@Z 0000000140052b31 f   mfc140u:mfc140u.dll
 0001:00051b37       ?DHtmlEventHook@CDHtmlEventSink@@UEAAHPEAJJPEAUtagDISPPARAMS@@PEAUtagVARIANT@@PEAUtagEXCEPINFO@@PEAI@Z 0000000140052b37 f   mfc140u:mfc140u.dll
 0001:00051b3d       ??0CDHtmlDialog@@QEAA@IIPEAVCWnd@@@Z 0000000140052b3d f   mfc140u:mfc140u.dll
 0001:00051b43       ??1CDHtmlDialog@@UEAA@XZ   0000000140052b43 f   mfc140u:mfc140u.dll
 0001:00051b49       ?CreateControlSite@CDHtmlDialog@@UEAAHPEAVCOleControlContainer@@PEAPEAVCOleControlSite@@IAEBU_GUID@@@Z 0000000140052b49 f   mfc140u:mfc140u.dll
 0001:00051b4f       ?GetDHtmlDocument@CDHtmlDialog@@UEAAJPEAPEAUIHTMLDocument2@@@Z 0000000140052b4f f   mfc140u:mfc140u.dll
 0001:00051b55       ?CanAccessExternal@CDHtmlDialog@@UEAAHXZ 0000000140052b55 f   mfc140u:mfc140u.dll
 0001:00051b5b       ?OnBeforeNavigate@CDHtmlDialog@@UEAAXPEAUIDispatch@@PEB_W@Z 0000000140052b5b f   mfc140u:mfc140u.dll
 0001:00051b61       ?OnNavigateComplete@CDHtmlDialog@@UEAAXPEAUIDispatch@@PEB_W@Z 0000000140052b61 f   mfc140u:mfc140u.dll
 0001:00051b67       ?OnDocumentComplete@CDHtmlDialog@@UEAAXPEAUIDispatch@@PEB_W@Z 0000000140052b67 f   mfc140u:mfc140u.dll
 0001:00051b6d       ?OnInitDialog@CDHtmlDialog@@UEAAHXZ 0000000140052b6d f   mfc140u:mfc140u.dll
 0001:00051b73       ?Navigate@CDHtmlDialog@@QEAAXPEB_WK00PEAXK@Z 0000000140052b73 f   mfc140u:mfc140u.dll
 0001:00051b79       ?IsExternalDispatchSafe@CDHtmlDialog@@UEAAHXZ 0000000140052b79 f   mfc140u:mfc140u.dll
 0001:00051b7f       ?ShowContextMenu@CDHtmlDialog@@UEAAJKPEAUtagPOINT@@PEAUIUnknown@@PEAUIDispatch@@@Z 0000000140052b7f f   mfc140u:mfc140u.dll
 0001:00051b85       ?GetHostInfo@CDHtmlDialog@@UEAAJPEAU_DOCHOSTUIINFO@@@Z 0000000140052b85 f   mfc140u:mfc140u.dll
 0001:00051b8b       ?ShowUI@CDHtmlDialog@@UEAAJKPEAUIOleInPlaceActiveObject@@PEAUIOleCommandTarget@@PEAUIOleInPlaceFrame@@PEAUIOleInPlaceUIWindow@@@Z 0000000140052b8b f   mfc140u:mfc140u.dll
 0001:00051b91       ?HideUI@CDHtmlDialog@@UEAAJXZ 0000000140052b91 f   mfc140u:mfc140u.dll
 0001:00051b97       ?UpdateUI@CDHtmlDialog@@UEAAJXZ 0000000140052b97 f   mfc140u:mfc140u.dll
 0001:00051b9d       ?EnableModeless@CDHtmlDialog@@UEAAJH@Z 0000000140052b9d f   mfc140u:mfc140u.dll
 0001:00051ba3       ?OnDocWindowActivate@CDHtmlDialog@@UEAAJH@Z 0000000140052ba3 f   mfc140u:mfc140u.dll
 0001:00051ba9       ?OnFrameWindowActivate@CDHtmlDialog@@UEAAJH@Z 0000000140052ba9 f   mfc140u:mfc140u.dll
 0001:00051baf       ?ResizeBorder@CDHtmlDialog@@UEAAJPEBUtagRECT@@PEAUIOleInPlaceUIWindow@@H@Z 0000000140052baf f   mfc140u:mfc140u.dll
 0001:00051bb5       ?TranslateAcceleratorW@CDHtmlDialog@@UEAAJPEAUtagMSG@@PEBU_GUID@@K@Z 0000000140052bb5 f   mfc140u:mfc140u.dll
 0001:00051bbb       ?GetOptionKeyPath@CDHtmlDialog@@UEAAJPEAPEA_WK@Z 0000000140052bbb f   mfc140u:mfc140u.dll
 0001:00051bc1       ?GetDropTarget@CDHtmlDialog@@UEAAJPEAUIDropTarget@@PEAPEAU2@@Z 0000000140052bc1 f   mfc140u:mfc140u.dll
 0001:00051bc7       ?GetExternal@CDHtmlDialog@@UEAAJPEAPEAUIDispatch@@@Z 0000000140052bc7 f   mfc140u:mfc140u.dll
 0001:00051bcd       ?TranslateUrl@CDHtmlDialog@@UEAAJKPEA_WPEAPEA_W@Z 0000000140052bcd f   mfc140u:mfc140u.dll
 0001:00051bd3       ?FilterDataObject@CDHtmlDialog@@UEAAJPEAUIDataObject@@PEAPEAU2@@Z 0000000140052bd3 f   mfc140u:mfc140u.dll
 0001:00051bd9       ?GetRuntimeClass@CDHtmlDialog@@UEBAPEAUCRuntimeClass@@XZ 0000000140052bd9 f   mfc140u:mfc140u.dll
 0001:00051bdf       ?GetThisMessageMap@CDHtmlDialog@@KAPEBUAFX_MSGMAP@@XZ 0000000140052bdf f   mfc140u:mfc140u.dll
 0001:00051be5       ?GetEventSinkMap@CDHtmlDialog@@MEBAPEBUAFX_EVENTSINKMAP@@XZ 0000000140052be5 f   mfc140u:mfc140u.dll
 0001:00051beb       ?Remove@CFile@@SAXPEB_WPEAVCAtlTransactionManager@ATL@@@Z 0000000140052beb f   mfc140u:mfc140u.dll
 0001:00051bf1       ??0CException@@QEAA@XZ     0000000140052bf1 f   mfc140u:mfc140u.dll
 0001:00051bf7       ?GetErrorMessage@CException@@UEAAHPEA_WIPEAI@Z 0000000140052bf7 f   mfc140u:mfc140u.dll
 0001:00051bfd       ?ReportError@CException@@UEAAHII@Z 0000000140052bfd f   mfc140u:mfc140u.dll
 0001:00051c03       ?GetRuntimeClass@CFileException@@UEBAPEAUCRuntimeClass@@XZ 0000000140052c03 f   mfc140u:mfc140u.dll
 0001:00051c09       ?GetErrorMessage@CFileException@@UEBAHPEA_WIPEAI@Z 0000000140052c09 f   mfc140u:mfc140u.dll
 0001:00051c0f       ??0CFile@@QEAA@XZ          0000000140052c0f f   mfc140u:mfc140u.dll
 0001:00051c15       ?Open@CFile@@UEAAHPEB_WIPEAVCFileException@@@Z 0000000140052c15 f   mfc140u:mfc140u.dll
 0001:00051c1b       ?GetLength@CFile@@UEBA_KXZ 0000000140052c1b f   mfc140u:mfc140u.dll
 0001:00051c21       ?Read@CFile@@UEAAIPEAXI@Z  0000000140052c21 f   mfc140u:mfc140u.dll
 0001:00051c27       ?Close@CFile@@UEAAXXZ      0000000140052c27 f   mfc140u:mfc140u.dll
 0001:00051c2d       ??1CFile@@UEAA@XZ          0000000140052c2d f   mfc140u:mfc140u.dll
 0001:00051c33       ??4COleVariant@@QEAAAEBV0@QEB_W@Z 0000000140052c33 f   mfc140u:mfc140u.dll
 0001:00051c39       ?AfxParseURL@@YAHPEB_WAEAKAEAV?$CStringT@_WV?$StrTraitMFC_DLL@_WV?$ChTraitsCRT@_W@ATL@@@@@ATL@@2AEAG@Z 0000000140052c39 f   mfc140u:mfc140u.dll
 0001:00051c3f       ??0CInternetSession@@QEAA@PEB_W_KK00K@Z 0000000140052c3f f   mfc140u:mfc140u.dll
 0001:00051c45       ?GetHttpConnection@CInternetSession@@QEAAPEAVCHttpConnection@@PEB_WG00@Z 0000000140052c45 f   mfc140u:mfc140u.dll
 0001:00051c4b       ?Close@CInternetSession@@UEAAXXZ 0000000140052c4b f   mfc140u:mfc140u.dll
 0001:00051c51       ??1CInternetSession@@UEAA@XZ 0000000140052c51 f   mfc140u:mfc140u.dll
 0001:00051c57       ?AddRequestHeaders@CHttpFile@@QEAAHPEB_WKH@Z 0000000140052c57 f   mfc140u:mfc140u.dll
 0001:00051c5d       ?AddRequestHeaders@CHttpFile@@QEAAHAEAV?$CStringT@_WV?$StrTraitMFC_DLL@_WV?$ChTraitsCRT@_W@ATL@@@@@ATL@@K@Z 0000000140052c5d f   mfc140u:mfc140u.dll
 0001:00051c63       ?SendRequest@CHttpFile@@QEAAHAEAV?$CStringT@_WV?$StrTraitMFC_DLL@_WV?$ChTraitsCRT@_W@ATL@@@@@ATL@@PEAXK@Z 0000000140052c63 f   mfc140u:mfc140u.dll
 0001:00051c69       ?SendRequestEx@CHttpFile@@QEAAHKK_K@Z 0000000140052c69 f   mfc140u:mfc140u.dll
 0001:00051c6f       ?EndRequest@CHttpFile@@QEAAHKPEAU_INTERNET_BUFFERSW@@_K@Z 0000000140052c6f f   mfc140u:mfc140u.dll
 0001:00051c75       ?QueryInfoStatusCode@CHttpFile@@QEBAHAEAK@Z 0000000140052c75 f   mfc140u:mfc140u.dll
 0001:00051c7b       ?OpenRequest@CHttpConnection@@QEAAPEAVCHttpFile@@HPEB_W0_KPEAPEB_W0K@Z 0000000140052c7b f   mfc140u:mfc140u.dll
 0001:00051c81       ?OnFinalRelease@CCmdTarget@@UEAAXXZ 0000000140052c81 f   mfc140u:mfc140u.dll
 0001:00051c87       ?GetInterfaceMap@CCmdTarget@@MEBAPEBUAFX_INTERFACEMAP@@XZ 0000000140052c87 f   mfc140u:mfc140u.dll
 0001:00051c8d       ?PreTranslateMessage@CWinThread@@UEAAHPEAUtagMSG@@@Z 0000000140052c8d f   mfc140u:mfc140u.dll
 0001:00051c93       ?PumpMessage@CWinThread@@UEAAHXZ 0000000140052c93 f   mfc140u:mfc140u.dll
 0001:00051c99       ?IsIdleMessage@CWinThread@@UEAAHPEAUtagMSG@@@Z 0000000140052c99 f   mfc140u:mfc140u.dll
 0001:00051c9f       ?ProcessMessageFilter@CWinThread@@UEAAHHPEAUtagMSG@@@Z 0000000140052c9f f   mfc140u:mfc140u.dll
 0001:00051ca5       ?GetMainWnd@CWinThread@@UEAAPEAVCWnd@@XZ 0000000140052ca5 f   mfc140u:mfc140u.dll
 0001:00051cab       ?Delete@CWinThread@@UEAAXXZ 0000000140052cab f   mfc140u:mfc140u.dll
 0001:00051cb1       ?InitLibId@CWinApp@@UEAAXXZ 0000000140052cb1 f   mfc140u:mfc140u.dll
 0001:00051cb7       ?Register@CWinApp@@UEAAHXZ 0000000140052cb7 f   mfc140u:mfc140u.dll
 0001:00051cbd       ?Unregister@CWinApp@@UEAAHXZ 0000000140052cbd f   mfc140u:mfc140u.dll
 0001:00051cc3       ?OpenDocumentFile@CWinApp@@UEAAPEAVCDocument@@PEB_W@Z 0000000140052cc3 f   mfc140u:mfc140u.dll
 0001:00051cc9       ?OpenDocumentFile@CWinApp@@UEAAPEAVCDocument@@PEB_WH@Z 0000000140052cc9 f   mfc140u:mfc140u.dll
 0001:00051ccf       ?AddToRecentFileList@CWinApp@@UEAAXPEB_W@Z 0000000140052ccf f   mfc140u:mfc140u.dll
 0001:00051cd5       ?InitApplication@CWinApp@@UEAAHXZ 0000000140052cd5 f   mfc140u:mfc140u.dll
 0001:00051cdb       ?SaveAllModified@CWinApp@@UEAAHXZ 0000000140052cdb f   mfc140u:mfc140u.dll
 0001:00051ce1       ?DoMessageBox@CWinApp@@UEAAHPEB_WII@Z 0000000140052ce1 f   mfc140u:mfc140u.dll
 0001:00051ce7       ?DoWaitCursor@CWinApp@@UEAAXH@Z 0000000140052ce7 f   mfc140u:mfc140u.dll
 0001:00051ced       ?OnDDECommand@CWinApp@@UEAAHPEA_W@Z 0000000140052ced f   mfc140u:mfc140u.dll
 0001:00051cf3       ?WinHelpW@CWinApp@@UEAAX_KI@Z 0000000140052cf3 f   mfc140u:mfc140u.dll
 0001:00051cf9       ?HtmlHelpW@CWinApp@@UEAAX_KI@Z 0000000140052cf9 f   mfc140u:mfc140u.dll
 0001:00051cff       ?WinHelpInternal@CWinApp@@UEAAX_KI@Z 0000000140052cff f   mfc140u:mfc140u.dll
 0001:00051d05       ?RegisterWithRestartManager@CWinApp@@UEAAJHAEBV?$CStringT@_WV?$StrTraitMFC_DLL@_WV?$ChTraitsCRT@_W@ATL@@@@@ATL@@@Z 0000000140052d05 f   mfc140u:mfc140u.dll
 0001:00051d0b       ?RegisterWithRestartManager@CWinApp@@UEAAJPEB_WKP6AKPEAX@Z1KK@Z 0000000140052d0b f   mfc140u:mfc140u.dll
 0001:00051d11       ?ApplicationRecoveryCallback@CWinApp@@UEAAKPEAX@Z 0000000140052d11 f   mfc140u:mfc140u.dll
 0001:00051d17       ?GetDataRecoveryHandler@CWinApp@@UEAAPEAVCDataRecoveryHandler@@XZ 0000000140052d17 f   mfc140u:mfc140u.dll
 0001:00051d1d       ?IsTaskbarInteractionEnabled@CWinApp@@UEAAHXZ 0000000140052d1d f   mfc140u:mfc140u.dll
 0001:00051d23       ?InitInstance@CWinApp@@UEAAHXZ 0000000140052d23 f   mfc140u:mfc140u.dll
 0001:00051d29       ?RestartInstance@CWinApp@@UEAAHXZ 0000000140052d29 f   mfc140u:mfc140u.dll
 0001:00051d2f       ?Run@CWinApp@@UEAAHXZ      0000000140052d2f f   mfc140u:mfc140u.dll
 0001:00051d35       ?OnIdle@CWinApp@@UEAAHJ@Z  0000000140052d35 f   mfc140u:mfc140u.dll
 0001:00051d3b       ?ProcessWndProcException@CWinApp@@UEAA_JPEAVCException@@PEBUtagMSG@@@Z 0000000140052d3b f   mfc140u:mfc140u.dll
 0001:00051d41       ?LoadAppLangResourceDLL@CWinApp@@UEAAPEAUHINSTANCE__@@XZ 0000000140052d41 f   mfc140u:mfc140u.dll
 0001:00051d47       ?GetAppRegistryKey@CWinApp@@QEAAPEAUHKEY__@@PEAVCAtlTransactionManager@ATL@@@Z 0000000140052d47 f   mfc140u:mfc140u.dll
 0001:00051d4d       ?GetMessageMap@CWinApp@@MEBAPEBUAFX_MSGMAP@@XZ 0000000140052d4d f   mfc140u:mfc140u.dll
 0001:00051d53       ?LoadSysPolicies@CWinApp@@UEAAHXZ 0000000140052d53 f   mfc140u:mfc140u.dll
 0001:00051d59       ?GetRuntimeClass@CWinAppEx@@UEBAPEAUCRuntimeClass@@XZ 0000000140052d59 f   mfc140u:mfc140u.dll
 0001:00051d5f       ??1CWinAppEx@@UEAA@XZ      0000000140052d5f f   mfc140u:mfc140u.dll
 0001:00051d65       ?ExitInstance@CWinAppEx@@UEAAHXZ 0000000140052d65 f   mfc140u:mfc140u.dll
 0001:00051d6b       ?LoadState@CWinAppEx@@UEAAHPEB_WPEAVCFrameImpl@@@Z 0000000140052d6b f   mfc140u:mfc140u.dll
 0001:00051d71       ?CleanState@CWinAppEx@@UEAAHPEB_W@Z 0000000140052d71 f   mfc140u:mfc140u.dll
 0001:00051d77       ?SaveState@CWinAppEx@@UEAAHPEB_WPEAVCFrameImpl@@@Z 0000000140052d77 f   mfc140u:mfc140u.dll
 0001:00051d7d       ?OnViewDoubleClick@CWinAppEx@@UEAAHPEAVCWnd@@H@Z 0000000140052d7d f   mfc140u:mfc140u.dll
 0001:00051d83       ?ShowPopupMenu@CWinAppEx@@UEAAHIAEBVCPoint@@PEAVCWnd@@@Z 0000000140052d83 f   mfc140u:mfc140u.dll
 0001:00051d89       ?OnAppContextHelp@CWinAppEx@@UEAAXPEAVCWnd@@QEBK@Z 0000000140052d89 f   mfc140u:mfc140u.dll
 0001:00051d8f       ?OnClosingMainFrame@CWinAppEx@@MEAAXPEAVCFrameImpl@@@Z 0000000140052d8f f   mfc140u:mfc140u.dll
 0001:00051d95       ?LoadWindowPlacement@CWinAppEx@@MEAAHAEAVCRect@@AEAH1@Z 0000000140052d95 f   mfc140u:mfc140u.dll
 0001:00051d9b       ?StoreWindowPlacement@CWinAppEx@@MEAAHAEBVCRect@@HH@Z 0000000140052d9b f   mfc140u:mfc140u.dll
 0001:00051da1       ?ReloadWindowPlacement@CWinAppEx@@MEAAHPEAVCFrameWnd@@@Z 0000000140052da1 f   mfc140u:mfc140u.dll
 0001:00051da7       ??0COleVariant@@QEAA@AEBV0@@Z 0000000140052da7 f   mfc140u:mfc140u.dll
 0001:00051dad       ?DockPane@CFrameWndEx@@QEAAXPEAVCBasePane@@IPEBUtagRECT@@@Z 0000000140052dad f   mfc140u:mfc140u.dll
 0001:00051db3       ?CreateObject@CRuntimeClass@@QEAAPEAVCObject@@XZ 0000000140052db3 f   mfc140u:mfc140u.dll
 0001:00051db9       ?IsKindOf@CObject@@QEBAHPEBUCRuntimeClass@@@Z 0000000140052db9 f   mfc140u:mfc140u.dll
 0001:00051dbf       ?Detach@CGdiObject@@QEAAPEAXXZ 0000000140052dbf f   mfc140u:mfc140u.dll
 0001:00051dc5       ?GetStyle@CWnd@@QEBAKXZ    0000000140052dc5 f   mfc140u:mfc140u.dll
 0001:00051dcb       ?ScreenToClient@CWnd@@QEBAXPEAUtagRECT@@@Z 0000000140052dcb f   mfc140u:mfc140u.dll
 0001:00051dd1       ?AfxVariantInit@@YAXPEAUtagVARIANT@@@Z 0000000140052dd1 f   mfc140u:mfc140u.dll
 0001:00051dd7       ?GetNonClientMetrics@AFX_GLOBAL_DATA@@QEAAHAEAUtagNONCLIENTMETRICSW@@@Z 0000000140052dd7 f   mfc140u:mfc140u.dll
 0001:00051ddd       ?IsMDITabbed@CBasePane@@UEBAHXZ 0000000140052ddd f   mfc140u:mfc140u.dll
 0001:00051de3       ?GetCurrentAlignment@CBasePane@@UEBAKXZ 0000000140052de3 f   mfc140u:mfc140u.dll
 0001:00051de9       ?GetDockSiteFrameWnd@CBasePane@@UEBAPEAVCWnd@@XZ 0000000140052de9 f   mfc140u:mfc140u.dll
 0001:00051def       ?GetDockingMode@CBasePane@@UEBA?AW4AFX_DOCK_TYPE@@XZ 0000000140052def f   mfc140u:mfc140u.dll
 0001:00051df5       ?GetParentMiniFrame@CBasePane@@UEBAPEAVCPaneFrameWnd@@H@Z 0000000140052df5 f   mfc140u:mfc140u.dll
 0001:00051dfb       ?MoveWindow@CBasePane@@UEAAPEAXAEBVCRect@@HPEAX@Z 0000000140052dfb f   mfc140u:mfc140u.dll
 0001:00051e01       ?SetWindowPos@CBasePane@@UEAAPEAXPEBVCWnd@@HHHHIPEAX@Z 0000000140052e01 f   mfc140u:mfc140u.dll
 0001:00051e07       ?CopyState@CBasePane@@UEAAXPEAV1@@Z 0000000140052e07 f   mfc140u:mfc140u.dll
 0001:00051e0d       ?OnPaneContextMenu@CBasePane@@UEAAXPEAVCWnd@@VCPoint@@@Z 0000000140052e0d f   mfc140u:mfc140u.dll
 0001:00051e13       ?CreateEx@CBasePane@@UEAAHKPEB_W0KAEBUtagRECT@@PEAVCWnd@@IKPEAUCCreateContext@@@Z 0000000140052e13 f   mfc140u:mfc140u.dll
 0001:00051e19       ?OnSetAccData@CBasePane@@UEAAHJ@Z 0000000140052e19 f   mfc140u:mfc140u.dll
 0001:00051e1f       ?get_accChildCount@CBasePane@@UEAAJPEAJ@Z 0000000140052e1f f   mfc140u:mfc140u.dll
 0001:00051e25       ?get_accChild@CBasePane@@UEAAJUtagVARIANT@@PEAPEAUIDispatch@@@Z 0000000140052e25 f   mfc140u:mfc140u.dll
 0001:00051e2b       ?get_accName@CBasePane@@UEAAJUtagVARIANT@@PEAPEA_W@Z 0000000140052e2b f   mfc140u:mfc140u.dll
 0001:00051e31       ?get_accDescription@CBasePane@@UEAAJUtagVARIANT@@PEAPEA_W@Z 0000000140052e31 f   mfc140u:mfc140u.dll
 0001:00051e37       ?get_accRole@CBasePane@@UEAAJUtagVARIANT@@PEAU2@@Z 0000000140052e37 f   mfc140u:mfc140u.dll
 0001:00051e3d       ?get_accState@CBasePane@@UEAAJUtagVARIANT@@PEAU2@@Z 0000000140052e3d f   mfc140u:mfc140u.dll
 0001:00051e43       ?get_accHelp@CBasePane@@UEAAJUtagVARIANT@@PEAPEA_W@Z 0000000140052e43 f   mfc140u:mfc140u.dll
 0001:00051e49       ?get_accFocus@CBasePane@@UEAAJPEAUtagVARIANT@@@Z 0000000140052e49 f   mfc140u:mfc140u.dll
 0001:00051e4f       ?get_accSelection@CBasePane@@UEAAJPEAUtagVARIANT@@@Z 0000000140052e4f f   mfc140u:mfc140u.dll
 0001:00051e55       ?get_accHelpTopic@CBasePane@@UEAAJPEAPEA_WUtagVARIANT@@PEAJ@Z 0000000140052e55 f   mfc140u:mfc140u.dll
 0001:00051e5b       ?get_accKeyboardShortcut@CBasePane@@UEAAJUtagVARIANT@@PEAPEA_W@Z 0000000140052e5b f   mfc140u:mfc140u.dll
 0001:00051e61       ?get_accValue@CBasePane@@UEAAJUtagVARIANT@@PEAPEA_W@Z 0000000140052e61 f   mfc140u:mfc140u.dll
 0001:00051e67       ?get_accParent@CBasePane@@UEAAJPEAPEAUIDispatch@@@Z 0000000140052e67 f   mfc140u:mfc140u.dll
 0001:00051e6d       ?get_accDefaultAction@CBasePane@@UEAAJUtagVARIANT@@PEAPEA_W@Z 0000000140052e6d f   mfc140u:mfc140u.dll
 0001:00051e73       ?accSelect@CBasePane@@UEAAJJUtagVARIANT@@@Z 0000000140052e73 f   mfc140u:mfc140u.dll
 0001:00051e79       ?accLocation@CBasePane@@UEAAJPEAJ000UtagVARIANT@@@Z 0000000140052e79 f   mfc140u:mfc140u.dll
 0001:00051e7f       ?accHitTest@CBasePane@@UEAAJJJPEAUtagVARIANT@@@Z 0000000140052e7f f   mfc140u:mfc140u.dll
 0001:00051e85       ?WindowProc@CBasePane@@MEAA_JI_K_J@Z 0000000140052e85 f   mfc140u:mfc140u.dll
 0001:00051e8b       ?DoPaint@CBasePane@@MEAAXPEAVCDC@@@Z 0000000140052e8b f   mfc140u:mfc140u.dll
 0001:00051e91       ?OnSize@CBasePane@@IEAAXIHH@Z 0000000140052e91 f   mfc140u:mfc140u.dll
 0001:00051e97       ?AdjustDockingLayout@CBasePane@@UEAAXPEAX@Z 0000000140052e97 f   mfc140u:mfc140u.dll
 0001:00051e9d       ?GetAvailableExpandSize@CPane@@UEBAHXZ 0000000140052e9d f   mfc140u:mfc140u.dll
 0001:00051ea3       ?GetAvailableStretchSize@CPane@@UEBAHXZ 0000000140052ea3 f   mfc140u:mfc140u.dll
 0001:00051ea9       ?IsTabbed@CPane@@UEBAHXZ   0000000140052ea9 f   mfc140u:mfc140u.dll
 0001:00051eaf       ?CopyState@CPane@@UEAAXPEAV1@@Z 0000000140052eaf f   mfc140u:mfc140u.dll
 0001:00051eb5       ?GetPaneName@CPane@@UEBAXAEAV?$CStringT@_WV?$StrTraitMFC_DLL@_WV?$ChTraitsCRT@_W@ATL@@@@@ATL@@@Z 0000000140052eb5 f   mfc140u:mfc140u.dll
 0001:00051ebb       ?SetActiveInGroup@CPane@@UEAAXH@Z 0000000140052ebb f   mfc140u:mfc140u.dll
 0001:00051ec1       ?PrepareToDock@CPane@@UEAAXPEAVCDockSite@@W4AFX_DOCK_METHOD@@@Z 0000000140052ec1 f   mfc140u:mfc140u.dll
 0001:00051ec7       ?DockPane@CPane@@UEAAHPEAVCBasePane@@PEBUtagRECT@@W4AFX_DOCK_METHOD@@@Z 0000000140052ec7 f   mfc140u:mfc140u.dll
 0001:00051ecd       ?DockByMouse@CPane@@UEAAHPEAVCBasePane@@@Z 0000000140052ecd f   mfc140u:mfc140u.dll
 0001:00051ed3       ?FloatPane@CPane@@UEAAHVCRect@@W4AFX_DOCK_METHOD@@_N@Z 0000000140052ed3 f   mfc140u:mfc140u.dll
 0001:00051ed9       ?MovePane@CPane@@UEAA?AVCSize@@VCRect@@HAEAPEAX@Z 0000000140052ed9 f   mfc140u:mfc140u.dll
 0001:00051edf       ?StretchPaneDeferWndPos@CPane@@UEAAHHAEAPEAX@Z 0000000140052edf f   mfc140u:mfc140u.dll
 0001:00051ee5       ?CreateDefaultMiniframe@CPane@@UEAAPEAVCPaneFrameWnd@@VCRect@@@Z 0000000140052ee5 f   mfc140u:mfc140u.dll
 0001:00051eeb       ?SetDockState@CPane@@UEAAXPEAVCDockingManager@@@Z 0000000140052eeb f   mfc140u:mfc140u.dll
 0001:00051ef1       ?OnProcessDblClk@CPane@@UEAAXXZ 0000000140052ef1 f   mfc140u:mfc140u.dll
 0001:00051ef7       ?OnAfterFloat@CPane@@UEAAXXZ 0000000140052ef7 f   mfc140u:mfc140u.dll
 0001:00051efd       ?Create@CPane@@UEAAHPEB_WKAEBUtagRECT@@PEAVCWnd@@IKPEAUCCreateContext@@@Z 0000000140052efd f   mfc140u:mfc140u.dll
 0001:00051f03       ?CreateEx@CPane@@UEAAHKPEB_WKAEBUtagRECT@@PEAVCWnd@@IKPEAUCCreateContext@@@Z 0000000140052f03 f   mfc140u:mfc140u.dll
 0001:00051f09       ?RecalcLayout@CPane@@UEAAXXZ 0000000140052f09 f   mfc140u:mfc140u.dll
 0001:00051f0f       ?CalcAvailableSize@CPane@@UEAA?AVCSize@@VCRect@@@Z 0000000140052f0f f   mfc140u:mfc140u.dll
 0001:00051f15       ?AdjustSizeImmediate@CPane@@UEAAXH@Z 0000000140052f15 f   mfc140u:mfc140u.dll
 0001:00051f1b       ?CanBeTabbedDocument@CPane@@UEBAHXZ 0000000140052f1b f   mfc140u:mfc140u.dll
 0001:00051f21       ?OnShowControlBarMenu@CPane@@UEAAHVCPoint@@@Z 0000000140052f21 f   mfc140u:mfc140u.dll
 0001:00051f27       ?OnBeforeDock@CPane@@MEAAHPEAPEAVCBasePane@@PEBUtagRECT@@W4AFX_DOCK_METHOD@@@Z 0000000140052f27 f   mfc140u:mfc140u.dll
 0001:00051f2d       ?RemoveFromMiniframe@CPane@@MEAAXPEAVCWnd@@W4AFX_DOCK_METHOD@@@Z 0000000140052f2d f   mfc140u:mfc140u.dll
 0001:00051f33       ?SetDragMode@CPane@@MEAAXH@Z 0000000140052f33 f   mfc140u:mfc140u.dll
 0001:00051f39       ?OnRTLChanged@CPane@@MEAAXH@Z 0000000140052f39 f   mfc140u:mfc140u.dll
 0001:00051f3f       ?GetThisClass@CDockablePane@@SAPEAUCRuntimeClass@@XZ 0000000140052f3f f   mfc140u:mfc140u.dll
 0001:00051f45       ?Create@CDockablePane@@UEAAHPEB_WPEAVCWnd@@AEBUtagRECT@@HIKKKPEAUCCreateContext@@@Z 0000000140052f45 f   mfc140u:mfc140u.dll
 0001:00051f4b       ?CreateEx@CDockablePane@@UEAAHKPEB_WPEAVCWnd@@AEBUtagRECT@@HIKKKPEAUCCreateContext@@@Z 0000000140052f4b f   mfc140u:mfc140u.dll
 0001:00051f51       ?PreTranslateMessage@CDockablePane@@UEAAHPEAUtagMSG@@@Z 0000000140052f51 f   mfc140u:mfc140u.dll
 0001:00051f57       ?Create@CDockablePane@@UEAAHPEB_WPEAVCWnd@@VCSize@@HIKKK@Z 0000000140052f57 f   mfc140u:mfc140u.dll
 0001:00051f5d       ?OnUpdateCmdUI@CDockablePane@@UEAAXPEAVCFrameWnd@@H@Z 0000000140052f5d f   mfc140u:mfc140u.dll
 0001:00051f63       ?IsDocked@CDockablePane@@UEBAHXZ 0000000140052f63 f   mfc140u:mfc140u.dll
 0001:00051f69       ?GetCaptionHeight@CDockablePane@@UEBAHXZ 0000000140052f69 f   mfc140u:mfc140u.dll
 0001:00051f6f       ?OnBeforeChangeParent@CDockablePane@@UEAAXPEAVCWnd@@H@Z 0000000140052f6f f   mfc140u:mfc140u.dll
 0001:00051f75       ?OnAfterChangeParent@CDockablePane@@UEAAXPEAVCWnd@@@Z 0000000140052f75 f   mfc140u:mfc140u.dll
 0001:00051f7b       ?CalcFixedLayout@CDockablePane@@UEAA?AVCSize@@HH@Z 0000000140052f7b f   mfc140u:mfc140u.dll
 0001:00051f81       ?HitTest@CDockablePane@@UEAAHVCPoint@@H@Z 0000000140052f81 f   mfc140u:mfc140u.dll
 0001:00051f87       ?IsInFloatingMultiPaneFrameWnd@CDockablePane@@UEBAHXZ 0000000140052f87 f   mfc140u:mfc140u.dll
 0001:00051f8d       ?CanAcceptMiniFrame@CDockablePane@@UEBAHPEAVCPaneFrameWnd@@@Z 0000000140052f8d f   mfc140u:mfc140u.dll
 0001:00051f93       ?IsVisible@CDockablePane@@UEBAHXZ 0000000140052f93 f   mfc140u:mfc140u.dll
 0001:00051f99       ?Slide@CDockablePane@@UEAAXHH@Z 0000000140052f99 f   mfc140u:mfc140u.dll
 0001:00051f9f       ?ToggleAutoHide@CDockablePane@@UEAAXXZ 0000000140052f9f f   mfc140u:mfc140u.dll
 0001:00051fa5       ?DockPaneStandard@CDockablePane@@UEAAPEAVCPane@@AEAH@Z 0000000140052fa5 f   mfc140u:mfc140u.dll
 0001:00051fab       ?IsChangeState@CDockablePane@@UEBA?AW4AFX_CS_STATUS@@HPEAPEAVCBasePane@@@Z 0000000140052fab f   mfc140u:mfc140u.dll
 0001:00051fb1       ?GetDockingStatus@CDockablePane@@UEAA?AW4AFX_CS_STATUS@@VCPoint@@H@Z 0000000140052fb1 f   mfc140u:mfc140u.dll
 0001:00051fb7       ?DockToFrameWindow@CDockablePane@@UEAAHKPEBUtagRECT@@KPEAVCBasePane@@HH@Z 0000000140052fb7 f   mfc140u:mfc140u.dll
 0001:00051fbd       ?DockToWindow@CDockablePane@@UEAAHPEAV1@KPEBUtagRECT@@@Z 0000000140052fbd f   mfc140u:mfc140u.dll
 0001:00051fc3       ?DockPaneContainer@CDockablePane@@UEAAHAEAVCPaneContainerManager@@KW4AFX_DOCK_METHOD@@@Z 0000000140052fc3 f   mfc140u:mfc140u.dll
 0001:00051fc9       ?UndockPane@CDockablePane@@UEAAXH@Z 0000000140052fc9 f   mfc140u:mfc140u.dll
 0001:00051fcf       ?UnSetAutoHideMode@CDockablePane@@UEAAXPEAV1@@Z 0000000140052fcf f   mfc140u:mfc140u.dll
 0001:00051fd5       ?ShowPane@CDockablePane@@UEAAXHHH@Z 0000000140052fd5 f   mfc140u:mfc140u.dll
 0001:00051fdb       ?EnableGripper@CDockablePane@@UEAAXH@Z 0000000140052fdb f   mfc140u:mfc140u.dll
 0001:00051fe1       ?SetAutoHideMode@CDockablePane@@UEAAPEAVCMFCAutoHideBar@@HKPEAV2@H@Z 0000000140052fe1 f   mfc140u:mfc140u.dll
 0001:00051fe7       ?Serialize@CDockablePane@@UEAAXAEAVCArchive@@@Z 0000000140052fe7 f   mfc140u:mfc140u.dll
 0001:00051fed       ?CopyState@CDockablePane@@UEAAXPEAV1@@Z 0000000140052fed f   mfc140u:mfc140u.dll
 0001:00051ff3       ?OnBeforeFloat@CDockablePane@@UEAAHAEAVCRect@@W4AFX_DOCK_METHOD@@@Z 0000000140052ff3 f   mfc140u:mfc140u.dll
 0001:00051ff9       ?ConvertToTabbedDocument@CDockablePane@@UEAAXH@Z 0000000140052ff9 f   mfc140u:mfc140u.dll
 0001:00051fff       ?OnClose@CDockablePane@@IEAAXXZ 0000000140052fff f   mfc140u:mfc140u.dll
 0001:00052005       ?OnCreate@CDockablePane@@IEAAHPEAUtagCREATESTRUCTW@@@Z 0000000140053005 f   mfc140u:mfc140u.dll
 0001:0005200b       ?OnDestroy@CDockablePane@@IEAAXXZ 000000014005300b f   mfc140u:mfc140u.dll
 0001:00052011       ?OnSettingChange@CDockablePane@@IEAAXIPEB_W@Z 0000000140053011 f   mfc140u:mfc140u.dll
 0001:00052017       ?OnSetFocus@CDockablePane@@IEAAXPEAVCWnd@@@Z 0000000140053017 f   mfc140u:mfc140u.dll
 0001:0005201d       ?Dock@CDockablePane@@MEAAHPEAVCBasePane@@PEBUtagRECT@@W4AFX_DOCK_METHOD@@@Z 000000014005301d f   mfc140u:mfc140u.dll
 0001:00052023       ?OnDrawDragRect@CDockablePane@@MEAAXPEBUtagRECT@@0@Z 0000000140053023 f   mfc140u:mfc140u.dll
 0001:00052029       ?OnAfterDock@CDockablePane@@MEAAXPEAVCBasePane@@PEBUtagRECT@@W4AFX_DOCK_METHOD@@@Z 0000000140053029 f   mfc140u:mfc140u.dll
 0001:0005202f       ?EnterDragMode@CDockablePane@@MEAAXH@Z 000000014005302f f   mfc140u:mfc140u.dll
 0001:00052035       ?StoreRecentDockSiteInfo@CDockablePane@@MEAAXXZ 0000000140053035 f   mfc140u:mfc140u.dll
 0001:0005203b       ?StoreRecentTabRelatedInfo@CDockablePane@@MEAAXXZ 000000014005303b f   mfc140u:mfc140u.dll
 0001:00052041       ?OnPressCloseButton@CDockablePane@@MEAAXXZ 0000000140053041 f   mfc140u:mfc140u.dll
 0001:00052047       ?DrawCaption@CDockablePane@@MEAAXPEAVCDC@@VCRect@@@Z 0000000140053047 f   mfc140u:mfc140u.dll
 0001:0005204d       ?AdjustPaneToPaneContainer@CDockablePane@@MEAAXPEAVCPaneDivider@@@Z 000000014005304d f   mfc140u:mfc140u.dll
 0001:00052053       ?OnTrackCaptionButtons@CDockablePane@@MEAAXVCPoint@@@Z 0000000140053053 f   mfc140u:mfc140u.dll
 0001:00052059       ?StopCaptionButtonsTracking@CDockablePane@@MEAAXXZ 0000000140053059 f   mfc140u:mfc140u.dll
 0001:0005205f       ?SetCaptionButtons@CDockablePane@@MEAAXXZ 000000014005305f f   mfc140u:mfc140u.dll
 0001:00052065       ?CheckAutoHideCondition@CDockablePane@@MEAAHXZ 0000000140053065 f   mfc140u:mfc140u.dll
 0001:0005206b       ?CheckStopSlideCondition@CDockablePane@@MEAAHH@Z 000000014005306b f   mfc140u:mfc140u.dll
 0001:00052071       ?OnSlide@CDockablePane@@MEAAXH@Z 0000000140053071 f   mfc140u:mfc140u.dll
 0001:00052077       ?AfxDynamicDownCast@@YAPEAVCObject@@PEAUCRuntimeClass@@PEAV1@@Z 0000000140053077 f   mfc140u:mfc140u.dll
 0001:0005207d       ?AfxGetThread@@YAPEAVCWinThread@@XZ 000000014005307d f   mfc140u:mfc140u.dll
 0001:00052083       ?Initialize@AFX_GLOBAL_DATA@@QEAAXXZ 0000000140053083 f   mfc140u:mfc140u.dll
 0001:00052089       ?GetParentTabbedPane@CBasePane@@QEBAPEAVCBaseTabbedPane@@XZ 0000000140053089 f   mfc140u:mfc140u.dll
 0001:0005208f       ?OnEraseBkgnd@CBasePane@@IEAAHPEAVCDC@@@Z 000000014005308f f   mfc140u:mfc140u.dll
 0001:00052095       ??0CDockablePane@@QEAA@XZ  0000000140053095 f   mfc140u:mfc140u.dll
 0001:0005209b       ??1CDockablePane@@UEAA@XZ  000000014005309b f   mfc140u:mfc140u.dll
 0001:000520a1       ?LoadState@CDockablePane@@UEAAHPEB_WHI@Z 00000001400530a1 f   mfc140u:mfc140u.dll
 0001:000520a7       ?SaveState@CDockablePane@@UEAAHPEB_WHI@Z 00000001400530a7 f   mfc140u:mfc140u.dll
 0001:000520ad       ?AttachToTabWnd@CDockablePane@@UEAAPEAV1@PEAV1@W4AFX_DOCK_METHOD@@HPEAPEAV1@@Z 00000001400530ad f   mfc140u:mfc140u.dll
 0001:000520b3       ?CreateTabbedPane@CDockablePane@@UEAAPEAVCTabbedPane@@XZ 00000001400530b3 f   mfc140u:mfc140u.dll
 0001:000520b9       ?OnTimer@CDockablePane@@IEAAX_K@Z 00000001400530b9 f   mfc140u:mfc140u.dll
 0001:000520bf       ?GetThisMessageMap@CDockablePane@@KAPEBUAFX_MSGMAP@@XZ 00000001400530bf f   mfc140u:mfc140u.dll
 0001:000520c5       ?GetThisClass@CMFCTabCtrl@@SAPEAUCRuntimeClass@@XZ 00000001400530c5 f   mfc140u:mfc140u.dll
 0001:000520cb       ?GetThisClass@CTabbedPane@@SAPEAUCRuntimeClass@@XZ 00000001400530cb f   mfc140u:mfc140u.dll
 0001:000520d1       ??0CBrush@@QEAA@K@Z        00000001400530d1 f   mfc140u:mfc140u.dll
 0001:000520d7       ?GetRuntimeClass@CRgn@@UEBAPEAUCRuntimeClass@@XZ 00000001400530d7 f   mfc140u:mfc140u.dll
 0001:000520dd       ?SelectClipRgn@CDC@@QEAAHPEAVCRgn@@@Z 00000001400530dd f   mfc140u:mfc140u.dll
 0001:000520e3       ?MoveTo@CDC@@QEAA?AVCPoint@@HH@Z 00000001400530e3 f   mfc140u:mfc140u.dll
 0001:000520e9       ?LineTo@CDC@@QEAAHHH@Z     00000001400530e9 f   mfc140u:mfc140u.dll
 0001:000520ef       ?Draw3dRect@CDC@@QEAAXPEBUtagRECT@@KK@Z 00000001400530ef f   mfc140u:mfc140u.dll
 0001:000520f5       ?SetWindowPos@CWnd@@QEAAHPEBV1@HHHHI@Z 00000001400530f5 f   mfc140u:mfc140u.dll
 0001:000520fb       ?GetScrollPos@CWnd@@QEBAHH@Z 00000001400530fb f   mfc140u:mfc140u.dll
 0001:00052101       ?GetScrollRange@CWnd@@QEBAXHPEAH0@Z 0000000140053101 f   mfc140u:mfc140u.dll
 0001:00052107       ?SetScrollPos@CWnd@@QEAAHHHH@Z 0000000140053107 f   mfc140u:mfc140u.dll
 0001:0005210d       ?SetScrollRange@CWnd@@QEAAXHHHH@Z 000000014005310d f   mfc140u:mfc140u.dll
 0001:00052113       ?OnHScroll@CWnd@@IEAAXIIPEAVCScrollBar@@@Z 0000000140053113 f   mfc140u:mfc140u.dll
 0001:00052119       ?GetRuntimeClass@CButton@@UEBAPEAUCRuntimeClass@@XZ 0000000140053119 f   mfc140u:mfc140u.dll
 0001:0005211f       ?Create@CButton@@UEAAHPEB_WKAEBUtagRECT@@PEAVCWnd@@I@Z 000000014005311f f   mfc140u:mfc140u.dll
 0001:00052125       ?DrawItem@CButton@@UEAAXPEAUtagDRAWITEMSTRUCT@@@Z 0000000140053125 f   mfc140u:mfc140u.dll
 0001:0005212b       ??1CButton@@UEAA@XZ        000000014005312b f   mfc140u:mfc140u.dll
 0001:00052131       ?OnChildNotify@CButton@@MEAAHI_K_JPEA_J@Z 0000000140053131 f   mfc140u:mfc140u.dll
 0001:00052137       ??0COleVariant@@QEAA@AEBUtagVARIANT@@@Z 0000000140053137 f   mfc140u:mfc140u.dll
 0001:0005213d       ??0COleVariant@@QEAA@JG@Z  000000014005313d f   mfc140u:mfc140u.dll
 0001:00052143       ??4COleVariant@@QEAAAEBV0@AEBV0@@Z 0000000140053143 f   mfc140u:mfc140u.dll
 0001:00052149       ?GetRuntimeClass@CMFCPropertyGridProperty@@UEBAPEAUCRuntimeClass@@XZ 0000000140053149 f   mfc140u:mfc140u.dll
 0001:0005214f       ??0CMFCPropertyGridProperty@@QEAA@AEBV?$CStringT@_WV?$StrTraitMFC_DLL@_WV?$ChTraitsCRT@_W@ATL@@@@@ATL@@_KH@Z 000000014005314f f   mfc140u:mfc140u.dll
 0001:00052155       ??0CMFCPropertyGridProperty@@QEAA@AEBV?$CStringT@_WV?$StrTraitMFC_DLL@_WV?$ChTraitsCRT@_W@ATL@@@@@ATL@@AEBVCOleVariant@@PEB_W_K222@Z 0000000140053155 f   mfc140u:mfc140u.dll
 0001:0005215b       ??1CMFCPropertyGridProperty@@UEAA@XZ 000000014005315b f   mfc140u:mfc140u.dll
 0001:00052161       ?AddSubItem@CMFCPropertyGridProperty@@QEAAHPEAV1@@Z 0000000140053161 f   mfc140u:mfc140u.dll
 0001:00052167       ?AddOption@CMFCPropertyGridProperty@@QEAAHPEB_WH@Z 0000000140053167 f   mfc140u:mfc140u.dll
 0001:0005216d       ?Expand@CMFCPropertyGridProperty@@QEAAXH@Z 000000014005316d f   mfc140u:mfc140u.dll
 0001:00052173       ?ResetOriginalValue@CMFCPropertyGridProperty@@UEAAXXZ 0000000140053173 f   mfc140u:mfc140u.dll
 0001:00052179       ?Show@CMFCPropertyGridProperty@@QEAAXHH@Z 0000000140053179 f   mfc140u:mfc140u.dll
 0001:0005217f       ?OnDrawExpandBox@CMFCPropertyGridProperty@@UEAAXPEAVCDC@@VCRect@@@Z 000000014005317f f   mfc140u:mfc140u.dll
 0001:00052185       ?OnDrawButton@CMFCPropertyGridProperty@@UEAAXPEAVCDC@@VCRect@@@Z 0000000140053185 f   mfc140u:mfc140u.dll
 0001:0005218b       ?OnDrawDescription@CMFCPropertyGridProperty@@UEAAXPEAVCDC@@VCRect@@@Z 000000014005318b f   mfc140u:mfc140u.dll
 0001:00052191       ?FormatProperty@CMFCPropertyGridProperty@@UEAA?AV?$CStringT@_WV?$StrTraitMFC_DLL@_WV?$ChTraitsCRT@_W@ATL@@@@@ATL@@XZ 0000000140053191 f   mfc140u:mfc140u.dll
 0001:00052197       ?OnUpdateValue@CMFCPropertyGridProperty@@UEAAHXZ 0000000140053197 f   mfc140u:mfc140u.dll
 0001:0005219d       ?OnEdit@CMFCPropertyGridProperty@@UEAAHPEAUtagPOINT@@@Z 000000014005319d f   mfc140u:mfc140u.dll
 0001:000521a3       ?CreateInPlaceEdit@CMFCPropertyGridProperty@@UEAAPEAVCWnd@@VCRect@@AEAH@Z 00000001400531a3 f   mfc140u:mfc140u.dll
 0001:000521a9       ?CreateSpinControl@CMFCPropertyGridProperty@@UEAAPEAVCSpinButtonCtrl@@VCRect@@@Z 00000001400531a9 f   mfc140u:mfc140u.dll
 0001:000521af       ?OnEndEdit@CMFCPropertyGridProperty@@UEAAHXZ 00000001400531af f   mfc140u:mfc140u.dll
 0001:000521b5       ?OnClickButton@CMFCPropertyGridProperty@@UEAAXVCPoint@@@Z 00000001400531b5 f   mfc140u:mfc140u.dll
 0001:000521bb       ?OnClickValue@CMFCPropertyGridProperty@@UEAAHIVCPoint@@@Z 00000001400531bb f   mfc140u:mfc140u.dll
 0001:000521c1       ?OnDblClk@CMFCPropertyGridProperty@@UEAAHVCPoint@@@Z 00000001400531c1 f   mfc140u:mfc140u.dll
 0001:000521c7       ?OnSelectCombo@CMFCPropertyGridProperty@@UEAAXXZ 00000001400531c7 f   mfc140u:mfc140u.dll
 0001:000521cd       ?OnCloseCombo@CMFCPropertyGridProperty@@UEAAXXZ 00000001400531cd f   mfc140u:mfc140u.dll
 0001:000521d3       ?OnSetCursor@CMFCPropertyGridProperty@@UEBAHXZ 00000001400531d3 f   mfc140u:mfc140u.dll
 0001:000521d9       ?PushChar@CMFCPropertyGridProperty@@UEAAHI@Z 00000001400531d9 f   mfc140u:mfc140u.dll
 0001:000521df       ?GetNameTooltip@CMFCPropertyGridProperty@@UEAA?AV?$CStringT@_WV?$StrTraitMFC_DLL@_WV?$ChTraitsCRT@_W@ATL@@@@@ATL@@XZ 00000001400531df f   mfc140u:mfc140u.dll
 0001:000521e5       ?GetValueTooltip@CMFCPropertyGridProperty@@UEAA?AV?$CStringT@_WV?$StrTraitMFC_DLL@_WV?$ChTraitsCRT@_W@ATL@@@@@ATL@@XZ 00000001400531e5 f   mfc140u:mfc140u.dll
 0001:000521eb       ?AdjustButtonRect@CMFCPropertyGridProperty@@UEAAXXZ 00000001400531eb f   mfc140u:mfc140u.dll
 0001:000521f1       ?AdjustInPlaceEditRect@CMFCPropertyGridProperty@@UEAAXAEAVCRect@@0@Z 00000001400531f1 f   mfc140u:mfc140u.dll
 0001:000521f7       ?OnCtlColor@CMFCPropertyGridProperty@@MEAAPEAUHBRUSH__@@PEAVCDC@@I@Z 00000001400531f7 f   mfc140u:mfc140u.dll
 0001:000521fd       ?CreateCombo@CMFCPropertyGridProperty@@MEAAPEAVCComboBox@@PEAVCWnd@@VCRect@@@Z 00000001400531fd f   mfc140u:mfc140u.dll
 0001:00052203       ?OnDestroyWindow@CMFCPropertyGridProperty@@MEAAXXZ 0000000140053203 f   mfc140u:mfc140u.dll
 0001:00052209       ?HasButton@CMFCPropertyGridProperty@@MEBAHXZ 0000000140053209 f   mfc140u:mfc140u.dll
 0001:0005220f       ?TextToVar@CMFCPropertyGridProperty@@MEAAHAEBV?$CStringT@_WV?$StrTraitMFC_DLL@_WV?$ChTraitsCRT@_W@ATL@@@@@ATL@@@Z 000000014005320f f   mfc140u:mfc140u.dll
 0001:00052215       ?IsValueChanged@CMFCPropertyGridProperty@@MEBAHXZ 0000000140053215 f   mfc140u:mfc140u.dll
 0001:0005221b       ?OnActivateByTab@CMFCPropertyGridProperty@@MEAAHXZ 000000014005321b f   mfc140u:mfc140u.dll
 0001:00052221       ?OnRotateListValue@CMFCPropertyGridProperty@@MEAAHH@Z 0000000140053221 f   mfc140u:mfc140u.dll
 0001:00052227       ?SetName@CMFCPropertyGridProperty@@QEAAXPEB_WH@Z 0000000140053227 f   mfc140u:mfc140u.dll
 0001:0005222d       ?SetValue@CMFCPropertyGridProperty@@UEAAXAEBVCOleVariant@@@Z 000000014005322d f   mfc140u:mfc140u.dll
 0001:00052233       ?SetOriginalValue@CMFCPropertyGridProperty@@UEAAXAEBVCOleVariant@@@Z 0000000140053233 f   mfc140u:mfc140u.dll
 0001:00052239       ?IsSelected@CMFCPropertyGridProperty@@UEBAHXZ 0000000140053239 f   mfc140u:mfc140u.dll
 0001:0005223f       ?GetSubItem@CMFCPropertyGridProperty@@QEBAPEAV1@H@Z 000000014005323f f   mfc140u:mfc140u.dll
 0001:00052245       ??0CMFCPropertyGridFileProperty@@QEAA@AEBV?$CStringT@_WV?$StrTraitMFC_DLL@_WV?$ChTraitsCRT@_W@ATL@@@@@ATL@@0_KPEB_W@Z 0000000140053245 f   mfc140u:mfc140u.dll
 0001:0005224b       ??0CMFCPropertyGridFileProperty@@QEAA@AEBV?$CStringT@_WV?$StrTraitMFC_DLL@_WV?$ChTraitsCRT@_W@ATL@@@@@ATL@@H0PEB_WK11_K@Z 000000014005324b f   mfc140u:mfc140u.dll
 0001:00052251       ?GetRuntimeClass@CMFCPropertyGridCtrl@@UEBAPEAUCRuntimeClass@@XZ 0000000140053251 f   mfc140u:mfc140u.dll
 0001:00052257       ??0CMFCPropertyGridCtrl@@QEAA@XZ 0000000140053257 f   mfc140u:mfc140u.dll
 0001:0005225d       ?EnableHeaderCtrl@CMFCPropertyGridCtrl@@QEAAXHPEB_W0@Z 000000014005325d f   mfc140u:mfc140u.dll
 0001:00052263       ?EnableDescriptionArea@CMFCPropertyGridCtrl@@QEAAXH@Z 0000000140053263 f   mfc140u:mfc140u.dll
 0001:00052269       ?SetAlphabeticMode@CMFCPropertyGridCtrl@@QEAAXH@Z 0000000140053269 f   mfc140u:mfc140u.dll
 0001:0005226f       ?SetVSDotNetLook@CMFCPropertyGridCtrl@@QEAAXH@Z 000000014005326f f   mfc140u:mfc140u.dll
 0001:00052275       ?MarkModifiedProperties@CMFCPropertyGridCtrl@@QEAAXHH@Z 0000000140053275 f   mfc140u:mfc140u.dll
 0001:0005227b       ?SetBoolLabels@CMFCPropertyGridCtrl@@QEAAXPEB_W0@Z 000000014005327b f   mfc140u:mfc140u.dll
 0001:00052281       ?SetGroupNameFullWidth@CMFCPropertyGridCtrl@@QEAAXHH@Z 0000000140053281 f   mfc140u:mfc140u.dll
 0001:00052287       ?SetCustomColors@CMFCPropertyGridCtrl@@QEAAXKKKKKKK@Z 0000000140053287 f   mfc140u:mfc140u.dll
 0001:0005228d       ?GetCustomColors@CMFCPropertyGridCtrl@@QEAAXAEAK000000@Z 000000014005328d f   mfc140u:mfc140u.dll
 0001:00052293       ?AddProperty@CMFCPropertyGridCtrl@@QEAAHPEAVCMFCPropertyGridProperty@@HH@Z 0000000140053293 f   mfc140u:mfc140u.dll
 0001:00052299       ?RemoveAll@CMFCPropertyGridCtrl@@QEAAXXZ 0000000140053299 f   mfc140u:mfc140u.dll
 0001:0005229f       ?GetProperty@CMFCPropertyGridCtrl@@QEBAPEAVCMFCPropertyGridProperty@@H@Z 000000014005329f f   mfc140u:mfc140u.dll
 0001:000522a5       ?SetCurSel@CMFCPropertyGridCtrl@@QEAAXPEAVCMFCPropertyGridProperty@@H@Z 00000001400532a5 f   mfc140u:mfc140u.dll
 0001:000522ab       ?ExpandAll@CMFCPropertyGridCtrl@@QEAAXH@Z 00000001400532ab f   mfc140u:mfc140u.dll
 0001:000522b1       ?CloseColorPopup@CMFCPropertyGridCtrl@@UEAAXXZ 00000001400532b1 f   mfc140u:mfc140u.dll
 0001:000522b7       ?UpdateColor@CMFCPropertyGridCtrl@@UEAAXK@Z 00000001400532b7 f   mfc140u:mfc140u.dll
 0001:000522bd       ?AdjustLayout@CMFCPropertyGridCtrl@@UEAAXXZ 00000001400532bd f   mfc140u:mfc140u.dll
 0001:000522c3       ?OnPropertyChanged@CMFCPropertyGridCtrl@@UEBAXPEAVCMFCPropertyGridProperty@@@Z 00000001400532c3 f   mfc140u:mfc140u.dll
 0001:000522c9       ?Create@CMFCPropertyGridCtrl@@UEAAHKAEBUtagRECT@@PEAVCWnd@@I@Z 00000001400532c9 f   mfc140u:mfc140u.dll
 0001:000522cf       ?PreTranslateMessage@CMFCPropertyGridCtrl@@UEAAHPEAUtagMSG@@@Z 00000001400532cf f   mfc140u:mfc140u.dll
 0001:000522d5       ?GetScrollBarCtrl@CMFCPropertyGridCtrl@@UEBAPEAVCScrollBar@@H@Z 00000001400532d5 f   mfc140u:mfc140u.dll
 0001:000522db       ?PreSubclassWindow@CMFCPropertyGridCtrl@@MEAAXXZ 00000001400532db f   mfc140u:mfc140u.dll
 0001:000522e1       ?OnNotify@CMFCPropertyGridCtrl@@MEAAH_K_JPEA_J@Z 00000001400532e1 f   mfc140u:mfc140u.dll
 0001:000522e7       ?EditItem@CMFCPropertyGridCtrl@@UEAAHPEAVCMFCPropertyGridProperty@@PEAUtagPOINT@@@Z 00000001400532e7 f   mfc140u:mfc140u.dll
 0001:000522ed       ?OnClickButton@CMFCPropertyGridCtrl@@UEAAXVCPoint@@@Z 00000001400532ed f   mfc140u:mfc140u.dll
 0001:000522f3       ?EndEditItem@CMFCPropertyGridCtrl@@UEAAHH@Z 00000001400532f3 f   mfc140u:mfc140u.dll
 0001:000522f9       ?InitHeader@CMFCPropertyGridCtrl@@UEAAXXZ 00000001400532f9 f   mfc140u:mfc140u.dll
 0001:000522ff       ?Init@CMFCPropertyGridCtrl@@MEAAXXZ 00000001400532ff f   mfc140u:mfc140u.dll
 0001:00052305       ?OnFillBackground@CMFCPropertyGridCtrl@@MEAAXPEAVCDC@@VCRect@@@Z 0000000140053305 f   mfc140u:mfc140u.dll
 0001:0005230b       ?OnDraw@CMFCPropertyGridCtrl@@MEAAXPEAVCDC@@@Z 000000014005330b f   mfc140u:mfc140u.dll
 0001:00052311       ?OnDrawBorder@CMFCPropertyGridCtrl@@MEAAXPEAVCDC@@@Z 0000000140053311 f   mfc140u:mfc140u.dll
 0001:00052317       ?OnDrawList@CMFCPropertyGridCtrl@@MEAAXPEAVCDC@@@Z 0000000140053317 f   mfc140u:mfc140u.dll
 0001:0005231d       ?OnDrawDescription@CMFCPropertyGridCtrl@@MEAAXPEAVCDC@@VCRect@@@Z 000000014005331d f   mfc140u:mfc140u.dll
 0001:00052323       ?ProcessClipboardAccelerators@CMFCPropertyGridCtrl@@MEAAHI@Z 0000000140053323 f   mfc140u:mfc140u.dll
 0001:00052329       ?NotifyAccessibility@CMFCPropertyGridCtrl@@MEAAXPEAVCMFCPropertyGridProperty@@@Z 0000000140053329 f   mfc140u:mfc140u.dll
 0001:0005232f       ??1CMFCPropertyGridCtrl@@UEAA@XZ 000000014005332f f   mfc140u:mfc140u.dll
 0001:00052335       ?get_accChildCount@CMFCPropertyGridCtrl@@UEAAJPEAJ@Z 0000000140053335 f   mfc140u:mfc140u.dll
 0001:0005233b       ?get_accChild@CMFCPropertyGridCtrl@@UEAAJUtagVARIANT@@PEAPEAUIDispatch@@@Z 000000014005333b f   mfc140u:mfc140u.dll
 0001:00052341       ?get_accName@CMFCPropertyGridCtrl@@UEAAJUtagVARIANT@@PEAPEA_W@Z 0000000140053341 f   mfc140u:mfc140u.dll
 0001:00052347       ?get_accValue@CMFCPropertyGridCtrl@@UEAAJUtagVARIANT@@PEAPEA_W@Z 0000000140053347 f   mfc140u:mfc140u.dll
 0001:0005234d       ?get_accDescription@CMFCPropertyGridCtrl@@UEAAJUtagVARIANT@@PEAPEA_W@Z 000000014005334d f   mfc140u:mfc140u.dll
 0001:00052353       ?get_accRole@CMFCPropertyGridCtrl@@UEAAJUtagVARIANT@@PEAU2@@Z 0000000140053353 f   mfc140u:mfc140u.dll
 0001:00052359       ?get_accState@CMFCPropertyGridCtrl@@UEAAJUtagVARIANT@@PEAU2@@Z 0000000140053359 f   mfc140u:mfc140u.dll
 0001:0005235f       ?get_accHelp@CMFCPropertyGridCtrl@@UEAAJUtagVARIANT@@PEAPEA_W@Z 000000014005335f f   mfc140u:mfc140u.dll
 0001:00052365       ?get_accHelpTopic@CMFCPropertyGridCtrl@@UEAAJPEAPEA_WUtagVARIANT@@PEAJ@Z 0000000140053365 f   mfc140u:mfc140u.dll
 0001:0005236b       ?get_accKeyboardShortcut@CMFCPropertyGridCtrl@@UEAAJUtagVARIANT@@PEAPEA_W@Z 000000014005336b f   mfc140u:mfc140u.dll
 0001:00052371       ?get_accFocus@CMFCPropertyGridCtrl@@UEAAJPEAUtagVARIANT@@@Z 0000000140053371 f   mfc140u:mfc140u.dll
 0001:00052377       ?get_accSelection@CMFCPropertyGridCtrl@@UEAAJPEAUtagVARIANT@@@Z 0000000140053377 f   mfc140u:mfc140u.dll
 0001:0005237d       ?get_accDefaultAction@CMFCPropertyGridCtrl@@UEAAJUtagVARIANT@@PEAPEA_W@Z 000000014005337d f   mfc140u:mfc140u.dll
 0001:00052383       ?accSelect@CMFCPropertyGridCtrl@@UEAAJJUtagVARIANT@@@Z 0000000140053383 f   mfc140u:mfc140u.dll
 0001:00052389       ?accLocation@CMFCPropertyGridCtrl@@UEAAJPEAJ000UtagVARIANT@@@Z 0000000140053389 f   mfc140u:mfc140u.dll
 0001:0005238f       ?accHitTest@CMFCPropertyGridCtrl@@UEAAJJJPEAUtagVARIANT@@@Z 000000014005338f f   mfc140u:mfc140u.dll
 0001:00052395       ?GetMessageMap@CMFCPropertyGridCtrl@@MEBAPEBUAFX_MSGMAP@@XZ 0000000140053395 f   mfc140u:mfc140u.dll
 0001:0005239b       ?ReposProperties@CMFCPropertyGridCtrl@@IEAAXXZ 000000014005339b f   mfc140u:mfc140u.dll
 0001:000523a1       ?EnableWindow@CWnd@@QEAAHH@Z 00000001400533a1 f   mfc140u:mfc140u.dll
 0001:000523a7       ?Write@CFile@@UEAAXPEBXI@Z 00000001400533a7 f   mfc140u:mfc140u.dll
 0001:000523ad       ?BeginWaitCursor@CCmdTarget@@QEAAXXZ 00000001400533ad f   mfc140u:mfc140u.dll
 0001:000523b3       ?EndWaitCursor@CCmdTarget@@QEAAXXZ 00000001400533b3 f   mfc140u:mfc140u.dll
 0001:000523b9       ?LoadStdProfileSettings@CWinApp@@IEAAXI@Z 00000001400533b9 f   mfc140u:mfc140u.dll
 0001:000523bf       ?SetRegistryKey@CWinApp@@IEAAXPEB_W@Z 00000001400533bf f   mfc140u:mfc140u.dll
 0001:000523c5       ?SetAppID@CWinApp@@IEAAXPEB_W@Z 00000001400533c5 f   mfc140u:mfc140u.dll
 0001:000523cb       ?AddDocTemplate@CWinApp@@QEAAXPEAVCDocTemplate@@@Z 00000001400533cb f   mfc140u:mfc140u.dll
 0001:000523d1       ?ParseCommandLine@CWinApp@@QEAAXAEAVCCommandLineInfo@@@Z 00000001400533d1 f   mfc140u:mfc140u.dll
 0001:000523d7       ?ProcessShellCommand@CWinApp@@QEAAHAEAVCCommandLineInfo@@@Z 00000001400533d7 f   mfc140u:mfc140u.dll
 0001:000523dd       ?OnFileNew@CWinApp@@IEAAXXZ 00000001400533dd f   mfc140u:mfc140u.dll
 0001:000523e3       ?OnFileOpen@CWinApp@@IEAAXXZ 00000001400533e3 f   mfc140u:mfc140u.dll
 0001:000523e9       ?OnFilePrintSetup@CWinApp@@IEAAXXZ 00000001400533e9 f   mfc140u:mfc140u.dll
 0001:000523ef       ?EnableTaskbarInteraction@CWinApp@@QEAAHH@Z 00000001400533ef f   mfc140u:mfc140u.dll
 0001:000523f5       ?GetThisMessageMap@CWinApp@@KAPEBUAFX_MSGMAP@@XZ 00000001400533f5 f   mfc140u:mfc140u.dll
 0001:000523fb       ??0CSingleDocTemplate@@QEAA@IPEAUCRuntimeClass@@00@Z 00000001400533fb f   mfc140u:mfc140u.dll
 0001:00052401       ?AfxMessageBox@@YAHIII@Z   0000000140053401 f   mfc140u:mfc140u.dll
 0001:00052407       ?AfxOleInit@@YAHXZ         0000000140053407 f   mfc140u:mfc140u.dll
 0001:0005240d       ?AfxOleTerm@@YAXH@Z        000000014005340d f   mfc140u:mfc140u.dll
 0001:00052413       ?AfxEnableControlContainer@@YAXPEAVCOccManager@@@Z 0000000140053413 f   mfc140u:mfc140u.dll
 0001:00052419       ??0CWinAppEx@@QEAA@H@Z     0000000140053419 f   mfc140u:mfc140u.dll
 0001:0005241f       ?InitContextMenuManager@CWinAppEx@@QEAAHXZ 000000014005341f f   mfc140u:mfc140u.dll
 0001:00052425       ?InitKeyboardManager@CWinAppEx@@QEAAHXZ 0000000140053425 f   mfc140u:mfc140u.dll
 0001:0005242b       ?InitTooltipManager@CWinAppEx@@QEAAHXZ 000000014005342b f   mfc140u:mfc140u.dll
 0001:00052431       ?GetTooltipManager@CWinAppEx@@QEAAPEAVCTooltipManager@@XZ 0000000140053431 f   mfc140u:mfc140u.dll
 0001:00052437       ?GetThisClass@CMFCToolTipCtrl@@SAPEAUCRuntimeClass@@XZ 0000000140053437 f   mfc140u:mfc140u.dll
 0001:0005243d       ?SetTooltipParams@CTooltipManager@@QEAAXIPEAUCRuntimeClass@@PEAVCMFCToolTipInfo@@@Z 000000014005343d f   mfc140u:mfc140u.dll
 0001:00052443       ?AFXGetRegPath@@YA?AV?$CStringT@_WV?$StrTraitMFC_DLL@_WV?$ChTraitsCRT@_W@ATL@@@@@ATL@@PEB_W0@Z 0000000140053443 f   mfc140u:mfc140u.dll
 0001:00052449       ?Delete@CException@@QEAAXXZ 0000000140053449 f   mfc140u:mfc140u.dll
 0001:0005244f       ?ModifyStyle@CWnd@@QEAAHKKI@Z 000000014005344f f   mfc140u:mfc140u.dll
 0001:00052455       ?GetThisClass@CDocument@@SAPEAUCRuntimeClass@@XZ 0000000140053455 f   mfc140u:mfc140u.dll
 0001:0005245b       ??0CDocument@@QEAA@XZ      000000014005345b f   mfc140u:mfc140u.dll
 0001:00052461       ?SetTitle@CDocument@@UEAAXPEB_W@Z 0000000140053461 f   mfc140u:mfc140u.dll
 0001:00052467       ?SetPathName@CDocument@@UEAAXPEB_WH@Z 0000000140053467 f   mfc140u:mfc140u.dll
 0001:0005246d       ?ClearPathName@CDocument@@UEAAXXZ 000000014005346d f   mfc140u:mfc140u.dll
 0001:00052473       ?GetFirstViewPosition@CDocument@@UEBAPEAU__POSITION@@XZ 0000000140053473 f   mfc140u:mfc140u.dll
 0001:00052479       ?GetNextView@CDocument@@UEBAPEAVCView@@AEAPEAU__POSITION@@@Z 0000000140053479 f   mfc140u:mfc140u.dll
 0001:0005247f       ?OnChangedViewList@CDocument@@UEAAXXZ 000000014005347f f   mfc140u:mfc140u.dll
 0001:00052485       ?DeleteContents@CDocument@@UEAAXXZ 0000000140053485 f   mfc140u:mfc140u.dll
 0001:0005248b       ?OnNewDocument@CDocument@@UEAAHXZ 000000014005348b f   mfc140u:mfc140u.dll
 0001:00052491       ?OnSaveDocument@CDocument@@UEAAHPEB_W@Z 0000000140053491 f   mfc140u:mfc140u.dll
 0001:00052497       ?OnCloseDocument@CDocument@@UEAAXXZ 0000000140053497 f   mfc140u:mfc140u.dll
 0001:0005249d       ?ReportSaveLoadException@CDocument@@UEAAXPEB_WPEAVCException@@HI@Z 000000014005349d f   mfc140u:mfc140u.dll
 0001:000524a3       ?GetFile@CDocument@@UEAAPEAVCFile@@PEB_WIPEAVCFileException@@@Z 00000001400534a3 f   mfc140u:mfc140u.dll
 0001:000524a9       ?ReleaseFile@CDocument@@UEAAXPEAVCFile@@H@Z 00000001400534a9 f   mfc140u:mfc140u.dll
 0001:000524af       ?OnRichPreviewUnload@CDocument@@UEAAXXZ 00000001400534af f   mfc140u:mfc140u.dll
 0001:000524b5       ?LoadDocumentFromStream@CDocument@@UEAAJPEAUIStream@@K@Z 00000001400534b5 f   mfc140u:mfc140u.dll
 0001:000524bb       ?GetThumbnail@CDocument@@UEAAHIPEAPEAUHBITMAP__@@PEAW4WTS_ALPHATYPE@@@Z 00000001400534bb f   mfc140u:mfc140u.dll
 0001:000524c1       ?ClearChunkList@CDocument@@UEAAXXZ 00000001400534c1 f   mfc140u:mfc140u.dll
 0001:000524c7       ?SetChunkValue@CDocument@@UEAAHPEAUIFilterChunkValue@ATL@@@Z 00000001400534c7 f   mfc140u:mfc140u.dll
 0001:000524cd       ?BeginReadChunks@CDocument@@UEAAXXZ 00000001400534cd f   mfc140u:mfc140u.dll
 0001:000524d3       ?ReadNextChunkValue@CDocument@@UEAAHPEAPEAUIFilterChunkValue@ATL@@@Z 00000001400534d3 f   mfc140u:mfc140u.dll
 0001:000524d9       ?RemoveChunk@CDocument@@UEAAXAEBU_GUID@@K@Z 00000001400534d9 f   mfc140u:mfc140u.dll
 0001:000524df       ?FindChunk@CDocument@@UEAAPEAU__POSITION@@AEBU_GUID@@K@Z 00000001400534df f   mfc140u:mfc140u.dll
 0001:000524e5       ?OnDocumentEvent@CDocument@@UEAAXW4DocumentEvent@1@@Z 00000001400534e5 f   mfc140u:mfc140u.dll
 0001:000524eb       ?CanCloseFrame@CDocument@@UEAAHPEAVCFrameWnd@@@Z 00000001400534eb f   mfc140u:mfc140u.dll
 0001:000524f1       ?SaveModified@CDocument@@UEAAHXZ 00000001400534f1 f   mfc140u:mfc140u.dll
 0001:000524f7       ?PreCloseFrame@CDocument@@UEAAXPEAVCFrameWnd@@@Z 00000001400534f7 f   mfc140u:mfc140u.dll
 0001:000524fd       ??1CDocument@@UEAA@XZ      00000001400534fd f   mfc140u:mfc140u.dll
 0001:00052503       ?DoSave@CDocument@@UEAAHPEB_WH@Z 0000000140053503 f   mfc140u:mfc140u.dll
 0001:00052509       ?DoFileSave@CDocument@@UEAAHXZ 0000000140053509 f   mfc140u:mfc140u.dll
 0001:0005250f       ?UpdateFrameCounts@CDocument@@UEAAXXZ 000000014005350f f   mfc140u:mfc140u.dll
 0001:00052515       ?GetDefaultMenu@CDocument@@UEAAPEAUHMENU__@@XZ 0000000140053515 f   mfc140u:mfc140u.dll
 0001:0005251b       ?GetDefaultAccelerator@CDocument@@UEAAPEAUHACCEL__@@XZ 000000014005351b f   mfc140u:mfc140u.dll
 0001:00052521       ?OnIdle@CDocument@@UEAAXXZ 0000000140053521 f   mfc140u:mfc140u.dll
 0001:00052527       ?OnFinalRelease@CDocument@@UEAAXXZ 0000000140053527 f   mfc140u:mfc140u.dll
 0001:0005252d       ?OnLoadDocumentFromStream@CDocument@@UEAAJPEAUIStream@@K@Z 000000014005352d f   mfc140u:mfc140u.dll
 0001:00052533       ?OnPreviewHandlerQueryFocus@CDocument@@UEAAJPEAPEAUHWND__@@@Z 0000000140053533 f   mfc140u:mfc140u.dll
 0001:00052539       ?OnPreviewHandlerTranslateAccelerator@CDocument@@UEAAJPEAUtagMSG@@@Z 0000000140053539 f   mfc140u:mfc140u.dll
 0001:0005253f       ?OnCreatePreviewFrame@CDocument@@UEAAHXZ 000000014005353f f   mfc140u:mfc140u.dll
 0001:00052545       ?OnUnloadHandler@CDocument@@UEAAXXZ 0000000140053545 f   mfc140u:mfc140u.dll
 0001:0005254b       ?OnDrawThumbnail@CDocument@@UEAAXAEAVCDC@@PEAUtagRECT@@@Z 000000014005354b f   mfc140u:mfc140u.dll
 0001:00052551       ?OnCmdMsg@CDocument@@UEAAHIHPEAXPEAUAFX_CMDHANDLERINFO@@@Z 0000000140053551 f   mfc140u:mfc140u.dll
 0001:00052557       ?GetThisMessageMap@CDocument@@KAPEBUAFX_MSGMAP@@XZ 0000000140053557 f   mfc140u:mfc140u.dll
 0001:0005255d       ?GetInterfaceMap@CDocument@@MEBAPEBUAFX_INTERFACEMAP@@XZ 000000014005355d f   mfc140u:mfc140u.dll
 0001:00052563       ?GetStatus@CFile@@SAHPEB_WAEAUCFileStatus@@PEAVCAtlTransactionManager@ATL@@@Z 0000000140053563 f   mfc140u:mfc140u.dll
 0001:00052569       ?AfxGetModuleState@@YAPEAVAFX_MODULE_STATE@@XZ 0000000140053569 f   mfc140u:mfc140u.dll
 0001:0005256f       ?FromHandle@CMenu@@SAPEAV1@PEAUHMENU__@@@Z 000000014005356f f   mfc140u:mfc140u.dll
 0001:00052575       ?ClientToScreen@CWnd@@QEBAXPEAUtagRECT@@@Z 0000000140053575 f   mfc140u:mfc140u.dll
 0001:0005257b       ?MessageBoxW@CWnd@@QEAAHPEB_W0I@Z 000000014005357b f   mfc140u:mfc140u.dll
 0001:00052581       ?Create@CFrameWnd@@UEAAHPEB_W0KAEBUtagRECT@@PEAVCWnd@@0KPEAUCCreateContext@@@Z 0000000140053581 f   mfc140u:mfc140u.dll
 0001:00052587       ?GetActiveDocument@CFrameWnd@@UEAAPEAVCDocument@@XZ 0000000140053587 f   mfc140u:mfc140u.dll
 0001:0005258d       ?GetActiveFrame@CFrameWnd@@UEAAPEAV1@XZ 000000014005358d f   mfc140u:mfc140u.dll
 0001:00052593       ?GetMessageString@CFrameWnd@@UEBAXIAEAV?$CStringT@_WV?$StrTraitMFC_DLL@_WV?$ChTraitsCRT@_W@ATL@@@@@ATL@@@Z 0000000140053593 f   mfc140u:mfc140u.dll
 0001:00052599       ?ActivateFrame@CFrameWnd@@UEAAXH@Z 0000000140053599 f   mfc140u:mfc140u.dll
 0001:0005259f       ?GetMenu@CFrameWnd@@UEBAPEAVCMenu@@XZ 000000014005359f f   mfc140u:mfc140u.dll
 0001:000525a5       ?SetMenu@CFrameWnd@@UEAAHPEAVCMenu@@@Z 00000001400535a5 f   mfc140u:mfc140u.dll
 0001:000525ab       ?SetMenuBarVisibility@CFrameWnd@@UEAAXK@Z 00000001400535ab f   mfc140u:mfc140u.dll
 0001:000525b1       ?GetMenuBarVisibility@CFrameWnd@@UEBAKXZ 00000001400535b1 f   mfc140u:mfc140u.dll
 0001:000525b7       ?SetMenuBarState@CFrameWnd@@UEAAHK@Z 00000001400535b7 f   mfc140u:mfc140u.dll
 0001:000525bd       ?GetMenuBarState@CFrameWnd@@UEBAKXZ 00000001400535bd f   mfc140u:mfc140u.dll
 0001:000525c3       ?BeginModalState@CFrameWnd@@UEAAXXZ 00000001400535c3 f   mfc140u:mfc140u.dll
 0001:000525c9       ?EndModalState@CFrameWnd@@UEAAXXZ 00000001400535c9 f   mfc140u:mfc140u.dll
 0001:000525cf       ?GetMessageBar@CFrameWnd@@UEAAPEAVCWnd@@XZ 00000001400535cf f   mfc140u:mfc140u.dll
 0001:000525d5       ?OnCreateClient@CFrameWnd@@MEAAHPEAUtagCREATESTRUCTW@@PEAUCCreateContext@@@Z 00000001400535d5 f   mfc140u:mfc140u.dll
 0001:000525db       ?IsFrameWnd@CFrameWnd@@UEBAHXZ 00000001400535db f   mfc140u:mfc140u.dll
 0001:000525e1       ?GetDefaultAccelerator@CFrameWnd@@UEAAPEAUHACCEL__@@XZ 00000001400535e1 f   mfc140u:mfc140u.dll
 0001:000525e7       ?ExitHelpMode@CFrameWnd@@UEAAXXZ 00000001400535e7 f   mfc140u:mfc140u.dll
 0001:000525ed       ?PostNcDestroy@CFrameWnd@@MEAAXXZ 00000001400535ed f   mfc140u:mfc140u.dll
 0001:000525f3       ?OnShowMenuBar@CFrameWnd@@MEAAXXZ 00000001400535f3 f   mfc140u:mfc140u.dll
 0001:000525f9       ?OnHideMenuBar@CFrameWnd@@MEAAXXZ 00000001400535f9 f   mfc140u:mfc140u.dll
 0001:000525ff       ?OnInitMenuPopup@CFrameWnd@@IEAAXPEAVCMenu@@IH@Z 00000001400535ff f   mfc140u:mfc140u.dll
 0001:00052605       ?OnEraseBkgnd@CFrameWnd@@IEAAHPEAVCDC@@@Z 0000000140053605 f   mfc140u:mfc140u.dll
 0001:0005260b       ?OnSysCommand@CFrameWnd@@IEAAXI_J@Z 000000014005360b f   mfc140u:mfc140u.dll
 0001:00052611       ??0CFileDialog@@QEAA@HPEB_W0K0PEAVCWnd@@KH@Z 0000000140053611 f   mfc140u:mfc140u.dll
 0001:00052617       ??1CFileDialog@@UEAA@XZ    0000000140053617 f   mfc140u:mfc140u.dll
 0001:0005261d       ?DoModal@CFileDialog@@UEAA_JXZ 000000014005361d f   mfc140u:mfc140u.dll
 0001:00052623       ?GetPathName@CFileDialog@@QEBA?AV?$CStringT@_WV?$StrTraitMFC_DLL@_WV?$ChTraitsCRT@_W@ATL@@@@@ATL@@XZ 0000000140053623 f   mfc140u:mfc140u.dll
 0001:00052629       ?GetThisClass@CMFCVisualManager@@SAPEAUCRuntimeClass@@XZ 0000000140053629 f   mfc140u:mfc140u.dll
 0001:0005262f       ?SetDefaultManager@CMFCVisualManager@@SAXPEAUCRuntimeClass@@@Z 000000014005362f f   mfc140u:mfc140u.dll
 0001:00052635       ?SetMenuSizes@CMFCToolBar@@SAXUtagSIZE@@0@Z 0000000140053635 f   mfc140u:mfc140u.dll
 0001:0005263b       ?GetMenuImageSize@CMFCToolBar@@SA?AVCSize@@XZ 000000014005363b f   mfc140u:mfc140u.dll
 0001:00052641       ?GetMenuButtonSize@CMFCToolBar@@SA?AVCSize@@XZ 0000000140053641 f   mfc140u:mfc140u.dll
 0001:00052647       ?SaveParameters@CMFCToolBar@@SAHPEB_W@Z 0000000140053647 f   mfc140u:mfc140u.dll
 0001:0005264d       ?SetShowAllCommands@CMFCMenuBar@@SAXH@Z 000000014005364d f   mfc140u:mfc140u.dll
 0001:00052653       ?GetMenuItemCount@CMFCPopupMenu@@QEBAHXZ 0000000140053653 f   mfc140u:mfc140u.dll
 0001:00052659       ?GetMenuItem@CMFCPopupMenu@@QEBAPEAVCMFCToolBarMenuButton@@H@Z 0000000140053659 f   mfc140u:mfc140u.dll
 0001:0005265f       ?SetDockingMode@CDockingManager@@SAXW4AFX_DOCK_TYPE@@W4AFX_SMARTDOCK_THEME@@@Z 000000014005365f f   mfc140u:mfc140u.dll
 0001:00052665       ?EnablePaneContextMenu@CDockingManager@@QEAAXHIAEBV?$CStringT@_WV?$StrTraitMFC_DLL@_WV?$ChTraitsCRT@_W@ATL@@@@@ATL@@H@Z 0000000140053665 f   mfc140u:mfc140u.dll
 0001:0005266b       ?InitUserToolbars@CFrameImpl@@IEAAXPEB_WII@Z 000000014005366b f   mfc140u:mfc140u.dll
 0001:00052671       ?GetUserToolBarByIndex@CFrameImpl@@IEBAPEAVCMFCToolBar@@H@Z 0000000140053671 f   mfc140u:mfc140u.dll
 0001:00052677       ?AddDefaultButtonsToCustomizePane@CFrameImpl@@IEAAXPEAVCMFCPopupMenu@@I@Z 0000000140053677 f   mfc140u:mfc140u.dll
 0001:0005267d       ?GetThisClass@CFrameWndEx@@SAPEAUCRuntimeClass@@XZ 000000014005367d f   mfc140u:mfc140u.dll
 0001:00052683       ??0CFrameWndEx@@IEAA@XZ    0000000140053683 f   mfc140u:mfc140u.dll
 0001:00052689       ?AdjustDockingLayout@CFrameWndEx@@UEAAXPEAX@Z 0000000140053689 f   mfc140u:mfc140u.dll
 0001:0005268f       ?EnableDocking@CFrameWndEx@@QEAAHK@Z 000000014005368f f   mfc140u:mfc140u.dll
 0001:00052695       ?EnableAutoHidePanes@CFrameWndEx@@QEAAHK@Z 0000000140053695 f   mfc140u:mfc140u.dll
 0001:0005269b       ?ShowPane@CFrameWndEx@@QEAAXPEAVCBasePane@@HHH@Z 000000014005369b f   mfc140u:mfc140u.dll
 0001:000526a1       ?OnMoveMiniFrame@CFrameWndEx@@UEAAHPEAVCWnd@@@Z 00000001400536a1 f   mfc140u:mfc140u.dll
 0001:000526a7       ?RecalcLayout@CFrameWndEx@@UEAAXH@Z 00000001400536a7 f   mfc140u:mfc140u.dll
 0001:000526ad       ?PreTranslateMessage@CFrameWndEx@@UEAAHPEAUtagMSG@@@Z 00000001400536ad f   mfc140u:mfc140u.dll
 0001:000526b3       ?LoadFrame@CFrameWndEx@@UEAAHIKPEAVCWnd@@PEAUCCreateContext@@@Z 00000001400536b3 f   mfc140u:mfc140u.dll
 0001:000526b9       ?WinHelpW@CFrameWndEx@@UEAAX_KI@Z 00000001400536b9 f   mfc140u:mfc140u.dll
 0001:000526bf       ?OnSetPreviewMode@CFrameWndEx@@UEAAXHPEAUCPrintPreviewState@@@Z 00000001400536bf f   mfc140u:mfc140u.dll
 0001:000526c5       ?OnCmdMsg@CFrameWndEx@@UEAAHIHPEAXPEAUAFX_CMDHANDLERINFO@@@Z 00000001400536c5 f   mfc140u:mfc140u.dll
 0001:000526cb       ?OnCommand@CFrameWndEx@@MEAAH_K_J@Z 00000001400536cb f   mfc140u:mfc140u.dll
 0001:000526d1       ?PreCreateWindow@CFrameWndEx@@MEAAHAEAUtagCREATESTRUCTW@@@Z 00000001400536d1 f   mfc140u:mfc140u.dll
 0001:000526d7       ?HtmlHelpW@CFrameWndEx@@MEAAX_KI@Z 00000001400536d7 f   mfc140u:mfc140u.dll
 0001:000526dd       ??1CFrameWndEx@@MEAA@XZ    00000001400536dd f   mfc140u:mfc140u.dll
 0001:000526e3       ?AdjustClientArea@CFrameWndEx@@MEAAXXZ 00000001400536e3 f   mfc140u:mfc140u.dll
 0001:000526e9       ?GetInPlaceActiveItem@CFrameWndEx@@MEAAPEAVCOleClientItem@@XZ 00000001400536e9 f   mfc140u:mfc140u.dll
 0001:000526ef       ?OnShowPopupMenu@CFrameWndEx@@UEAAHPEAVCMFCPopupMenu@@@Z 00000001400536ef f   mfc140u:mfc140u.dll
 0001:000526f5       ?OnClosePopupMenu@CFrameWndEx@@UEAAXPEAVCMFCPopupMenu@@@Z 00000001400536f5 f   mfc140u:mfc140u.dll
 0001:000526fb       ?OnDrawMenuImage@CFrameWndEx@@UEAAHPEAVCDC@@PEBVCMFCToolBarMenuButton@@AEBVCRect@@@Z 00000001400536fb f   mfc140u:mfc140u.dll
 0001:00052701       ?OnUpdateFrameMenu@CFrameWndEx@@UEAAXPEAUHMENU__@@@Z 0000000140053701 f   mfc140u:mfc140u.dll
 0001:00052707       ?OnShowPanes@CFrameWndEx@@UEAAHH@Z 0000000140053707 f   mfc140u:mfc140u.dll
 0001:0005270d       ?NegotiateBorderSpace@CFrameWndEx@@UEAAHIPEAUtagRECT@@@Z 000000014005370d f   mfc140u:mfc140u.dll
 0001:00052713       ?DelayUpdateFrameMenu@CFrameWndEx@@UEAAXPEAUHMENU__@@@Z 0000000140053713 f   mfc140u:mfc140u.dll
 0001:00052719       ?OnUpdateFrameTitle@CFrameWndEx@@UEAAXH@Z 0000000140053719 f   mfc140u:mfc140u.dll
 0001:0005271f       ?OnClose@CFrameWndEx@@QEAAXXZ 000000014005371f f   mfc140u:mfc140u.dll
 0001:00052725       ?OnDestroy@CFrameWndEx@@QEAAXXZ 0000000140053725 f   mfc140u:mfc140u.dll
 0001:0005272b       ?OnSize@CFrameWndEx@@QEAAXIHH@Z 000000014005372b f   mfc140u:mfc140u.dll
 0001:00052731       ?OnCreate@CFrameWndEx@@QEAAHPEAUtagCREATESTRUCTW@@@Z 0000000140053731 f   mfc140u:mfc140u.dll
 0001:00052737       ?GetThisMessageMap@CFrameWndEx@@KAPEBUAFX_MSGMAP@@XZ 0000000140053737 f   mfc140u:mfc140u.dll
 0001:0005273d       ??0CMFCToolBarsCustomizeDialog@@QEAA@PEAVCFrameWnd@@HIPEAV?$CList@PEAUCRuntimeClass@@PEAU1@@@@Z 000000014005373d f   mfc140u:mfc140u.dll
 0001:00052743       ?GetInt@CWinAppEx@@QEAAHPEB_WH@Z 0000000140053743 f   mfc140u:mfc140u.dll
 0001:00052749       ?WriteInt@CWinAppEx@@QEAAHPEB_WH@Z 0000000140053749 f   mfc140u:mfc140u.dll
 0001:0005274f       ?GetThisClass@CMFCVisualManagerOfficeXP@@SAPEAUCRuntimeClass@@XZ 000000014005374f f   mfc140u:mfc140u.dll
 0001:00052755       ?GetThisClass@CMFCVisualManagerWindows@@SAPEAUCRuntimeClass@@XZ 0000000140053755 f   mfc140u:mfc140u.dll
 0001:0005275b       ?GetThisClass@CMFCVisualManagerOffice2003@@SAPEAUCRuntimeClass@@XZ 000000014005375b f   mfc140u:mfc140u.dll
 0001:00052761       ?GetThisClass@CMFCVisualManagerVS2005@@SAPEAUCRuntimeClass@@XZ 0000000140053761 f   mfc140u:mfc140u.dll
 0001:00052767       ?GetThisClass@CMFCVisualManagerVS2008@@SAPEAUCRuntimeClass@@XZ 0000000140053767 f   mfc140u:mfc140u.dll
 0001:0005276d       ?GetThisClass@CMFCVisualManagerOffice2007@@SAPEAUCRuntimeClass@@XZ 000000014005376d f   mfc140u:mfc140u.dll
 0001:00052773       ?SetStyle@CMFCVisualManagerOffice2007@@SAHW4Style@1@PEB_W@Z 0000000140053773 f   mfc140u:mfc140u.dll
 0001:00052779       ?GetThisClass@CMFCVisualManagerWindows7@@SAPEAUCRuntimeClass@@XZ 0000000140053779 f   mfc140u:mfc140u.dll
 0001:0005277f       ?AfxThrowArchiveException@@YAXHPEB_W@Z 000000014005377f f   mfc140u:mfc140u.dll
 0001:00052785       ?Read@CArchive@@QEAAIPEAXI@Z 0000000140053785 f   mfc140u:mfc140u.dll
 0001:0005278b       ?Write@CArchive@@QEAAXPEBXI@Z 000000014005378b f   mfc140u:mfc140u.dll
 0001:00052791       ?ReadCount@CArchive@@QEAA_KXZ 0000000140053791 f   mfc140u:mfc140u.dll
 0001:00052797       ?WriteCount@CArchive@@QEAAX_K@Z 0000000140053797 f   mfc140u:mfc140u.dll
 0001:0005279d       ?Create@CPlex@@SAPEAU1@AEAPEAU1@_K1@Z 000000014005379d f   mfc140u:mfc140u.dll
 0001:000527a3       ?FreeDataChain@CPlex@@QEAAXXZ 00000001400537a3 f   mfc140u:mfc140u.dll
 0001:000527a9       ?GetRuntimeClass@CMenu@@UEBAPEAUCRuntimeClass@@XZ 00000001400537a9 f   mfc140u:mfc140u.dll
 0001:000527af       ?DestroyMenu@CMenu@@QEAAHXZ 00000001400537af f   mfc140u:mfc140u.dll
 0001:000527b5       ?Attach@CMenu@@QEAAHPEAUHMENU__@@@Z 00000001400537b5 f   mfc140u:mfc140u.dll
 0001:000527bb       ?Detach@CMenu@@QEAAPEAUHMENU__@@XZ 00000001400537bb f   mfc140u:mfc140u.dll
 0001:000527c1       ?DrawItem@CMenu@@UEAAXPEAUtagDRAWITEMSTRUCT@@@Z 00000001400537c1 f   mfc140u:mfc140u.dll
 0001:000527c7       ?MeasureItem@CMenu@@UEAAXPEAUtagMEASUREITEMSTRUCT@@@Z 00000001400537c7 f   mfc140u:mfc140u.dll
 0001:000527cd       ?AFXGetParentFrame@@YAPEAVCFrameWnd@@PEBVCWnd@@@Z 00000001400537cd f   mfc140u:mfc140u.dll
 0001:000527d3       ??0CMFCVisualManager@@QEAA@H@Z 00000001400537d3 f   mfc140u:mfc140u.dll
 0001:000527d9       ?IsDocked@CBasePane@@UEBAHXZ 00000001400537d9 f   mfc140u:mfc140u.dll
 0001:000527df       ?IsVisible@CBasePane@@UEBAHXZ 00000001400537df f   mfc140u:mfc140u.dll
 0001:000527e5       ?CanFloat@CBasePane@@UEBAHXZ 00000001400537e5 f   mfc140u:mfc140u.dll
 0001:000527eb       ?ShowPane@CBasePane@@UEAAXHHH@Z 00000001400537eb f   mfc140u:mfc140u.dll
 0001:000527f1       ?IsChangeState@CPane@@UEBA?AW4AFX_CS_STATUS@@HPEAPEAVCBasePane@@@Z 00000001400537f1 f   mfc140u:mfc140u.dll
 0001:000527f7       ?OnBeforeFloat@CPane@@UEAAHAEAVCRect@@W4AFX_DOCK_METHOD@@@Z 00000001400537f7 f   mfc140u:mfc140u.dll
 0001:000527fd       ?UndockPane@CPane@@UEAAXH@Z 00000001400537fd f   mfc140u:mfc140u.dll
 0001:00052803       ?OnPressCloseButton@CPane@@UEAAXXZ 0000000140053803 f   mfc140u:mfc140u.dll
 0001:00052809       ?ConvertToTabbedDocument@CPane@@UEAAXH@Z 0000000140053809 f   mfc140u:mfc140u.dll
 0001:0005280f       ?OnContinueMoving@CPane@@MEAAXXZ 000000014005380f f   mfc140u:mfc140u.dll
 0001:00052815       ?Dock@CPane@@MEAAHPEAVCBasePane@@PEBUtagRECT@@W4AFX_DOCK_METHOD@@@Z 0000000140053815 f   mfc140u:mfc140u.dll
 0001:0005281b       ?EnterDragMode@CPane@@MEAAXH@Z 000000014005381b f   mfc140u:mfc140u.dll
 0001:00052821       ?StoreRecentDockSiteInfo@CPane@@MEAAXXZ 0000000140053821 f   mfc140u:mfc140u.dll
 0001:00052827       ?OnAfterChangeParent@CMFCBaseToolBar@@UEAAXPEAVCWnd@@@Z 0000000140053827 f   mfc140u:mfc140u.dll
 0001:0005282d       ?OnAfterStretch@CMFCBaseToolBar@@MEAAXH@Z 000000014005382d f   mfc140u:mfc140u.dll
 0001:00052833       ?LoadBitmapW@CMFCToolBar@@UEAAHIIIHII@Z 0000000140053833 f   mfc140u:mfc140u.dll
 0001:00052839       ?LoadToolBar@CMFCToolBar@@UEAAHIIIHIII@Z 0000000140053839 f   mfc140u:mfc140u.dll
 0001:0005283f       ?LoadBitmapEx@CMFCToolBar@@UEAAHAEAVCMFCToolBarInfo@@H@Z 000000014005383f f   mfc140u:mfc140u.dll
 0001:00052845       ?LoadToolBarEx@CMFCToolBar@@UEAAHIAEAVCMFCToolBarInfo@@H@Z 0000000140053845 f   mfc140u:mfc140u.dll
 0001:0005284b       ?SetButtons@CMFCToolBar@@UEAAHPEBIHH@Z 000000014005384b f   mfc140u:mfc140u.dll
 0001:00052851       ?InsertButton@CMFCToolBar@@UEAAHAEBVCMFCToolBarButton@@_J@Z 0000000140053851 f   mfc140u:mfc140u.dll
 0001:00052857       ?InsertSeparator@CMFCToolBar@@UEAAH_J@Z 0000000140053857 f   mfc140u:mfc140u.dll
 0001:0005285d       ?RemoveButton@CMFCToolBar@@UEAAHH@Z 000000014005385d f   mfc140u:mfc140u.dll
 0001:00052863       ?RemoveAllButtons@CMFCToolBar@@UEAAXXZ 0000000140053863 f   mfc140u:mfc140u.dll
 0001:00052869       ?SetBasicCommands@CMFCToolBar@@SAXAEAV?$CList@II@@@Z 0000000140053869 f   mfc140u:mfc140u.dll
 0001:0005286f       ?Deactivate@CMFCToolBar@@UEAAXXZ 000000014005386f f   mfc140u:mfc140u.dll
 0001:00052875       ?RestoreFocus@CMFCToolBar@@UEAAXXZ 0000000140053875 f   mfc140u:mfc140u.dll
 0001:0005287b       ?GetItemRect@CMFCToolBar@@UEBAXHPEAUtagRECT@@@Z 000000014005387b f   mfc140u:mfc140u.dll
 0001:00052881       ?GetInvalidateItemRect@CMFCToolBar@@UEBAXHPEAUtagRECT@@@Z 0000000140053881 f   mfc140u:mfc140u.dll
 0001:00052887       ?SetButtonStyle@CMFCToolBar@@UEAAXHI@Z 0000000140053887 f   mfc140u:mfc140u.dll
 0001:0005288d       ?EnableDocking@CMFCToolBar@@UEAAXK@Z 000000014005388d f   mfc140u:mfc140u.dll
 0001:00052893       ?Serialize@CMFCToolBar@@UEAAXAEAVCArchive@@@Z 0000000140053893 f   mfc140u:mfc140u.dll
 0001:00052899       ?RemoveStateFromRegistry@CMFCToolBar@@UEAAHPEB_WHI@Z 0000000140053899 f   mfc140u:mfc140u.dll
 0001:0005289f       ?AdjustLayout@CMFCToolBar@@UEAAXXZ 000000014005389f f   mfc140u:mfc140u.dll
 0001:000528a5       ?HitTest@CMFCToolBar@@UEAAHVCPoint@@@Z 00000001400538a5 f   mfc140u:mfc140u.dll
 0001:000528ab       ?TranslateChar@CMFCToolBar@@UEAAHI@Z 00000001400538ab f   mfc140u:mfc140u.dll
 0001:000528b1       ?OnUpdateCmdUI@CMFCToolBar@@UEAAXPEAVCFrameWnd@@H@Z 00000001400538b1 f   mfc140u:mfc140u.dll
 0001:000528b7       ?PrevMenu@CMFCToolBar@@UEAAHXZ 00000001400538b7 f   mfc140u:mfc140u.dll
 0001:000528bd       ?NextMenu@CMFCToolBar@@UEAAHXZ 00000001400538bd f   mfc140u:mfc140u.dll
 0001:000528c3       ?OnGlobalFontsChanged@CMFCToolBar@@UEAAXXZ 00000001400538c3 f   mfc140u:mfc140u.dll
 0001:000528c9       ?OnUserToolTip@CMFCToolBar@@UEBAHPEAVCMFCToolBarButton@@AEAV?$CStringT@_WV?$StrTraitMFC_DLL@_WV?$ChTraitsCRT@_W@ATL@@@@@ATL@@@Z 00000001400538c9 f   mfc140u:mfc140u.dll
 0001:000528cf       ?OnSetAccData@CMFCToolBar@@UEAAHJ@Z 00000001400538cf f   mfc140u:mfc140u.dll
 0001:000528d5       ?CalcSize@CMFCToolBar@@UEAA?AVCSize@@H@Z 00000001400538d5 f   mfc140u:mfc140u.dll
 0001:000528db       ?StretchPane@CMFCToolBar@@UEAA?AVCSize@@HH@Z 00000001400538db f   mfc140u:mfc140u.dll
 0001:000528e1       ?OnChangeVisualManager@CMFCToolBar@@UEAAXXZ 00000001400538e1 f   mfc140u:mfc140u.dll
 0001:000528e7       ?InsertButton@CMFCToolBar@@MEAAHPEAVCMFCToolBarButton@@H@Z 00000001400538e7 f   mfc140u:mfc140u.dll
 0001:000528ed       ?DrawButton@CMFCToolBar@@MEAAHPEAVCDC@@PEAVCMFCToolBarButton@@PEAVCMFCToolBarImages@@HH@Z 00000001400538ed f   mfc140u:mfc140u.dll
 0001:000528f3       ?DrawDragCursor@CMFCToolBar@@MEAAXPEAVCDC@@@Z 00000001400538f3 f   mfc140u:mfc140u.dll
 0001:000528f9       ?OnAfterFloat@CMFCToolBar@@MEAAXXZ 00000001400538f9 f   mfc140u:mfc140u.dll
 0001:000528ff       ?OnAfterDock@CMFCToolBar@@MEAAXPEAVCBasePane@@PEBUtagRECT@@W4AFX_DOCK_METHOD@@@Z 00000001400538ff f   mfc140u:mfc140u.dll
 0001:00052905       ?OnBeforeChangeParent@CMFCToolBar@@MEAAXPEAVCWnd@@H@Z 0000000140053905 f   mfc140u:mfc140u.dll
 0001:0005290b       ?AccNotifyObjectFocusEvent@CMFCToolBar@@MEAAXH@Z 000000014005390b f   mfc140u:mfc140u.dll
 0001:00052911       ?AccGetButtonsCount@CMFCToolBar@@MEAAHXZ 0000000140053911 f   mfc140u:mfc140u.dll
 0001:00052917       ?get_accChildCount@CMFCToolBar@@MEAAJPEAJ@Z 0000000140053917 f   mfc140u:mfc140u.dll
 0001:0005291d       ?get_accChild@CMFCToolBar@@MEAAJUtagVARIANT@@PEAPEAUIDispatch@@@Z 000000014005391d f   mfc140u:mfc140u.dll
 0001:00052923       ?accHitTest@CMFCToolBar@@MEAAJJJPEAUtagVARIANT@@@Z 0000000140053923 f   mfc140u:mfc140u.dll
 0001:00052929       ?accNavigate@CMFCToolBar@@MEAAJJUtagVARIANT@@PEAU2@@Z 0000000140053929 f   mfc140u:mfc140u.dll
 0001:0005292f       ?accDoDefaultAction@CMFCToolBar@@MEAAJUtagVARIANT@@@Z 000000014005392f f   mfc140u:mfc140u.dll
 0001:00052935       ?OnDrop@CMFCToolBar@@MEAAHPEAVCOleDataObject@@KVCPoint@@@Z 0000000140053935 f   mfc140u:mfc140u.dll
 0001:0005293b       ?OnDragEnter@CMFCToolBar@@MEAAKPEAVCOleDataObject@@KVCPoint@@@Z 000000014005393b f   mfc140u:mfc140u.dll
 0001:00052941       ?OnDragLeave@CMFCToolBar@@MEAAXXZ 0000000140053941 f   mfc140u:mfc140u.dll
 0001:00052947       ?OnDragOver@CMFCToolBar@@MEAAKPEAVCOleDataObject@@KVCPoint@@@Z 0000000140053947 f   mfc140u:mfc140u.dll
 0001:0005294d       ?DoPaint@CMFCToolBar@@MEAAXPEAVCDC@@@Z 000000014005394d f   mfc140u:mfc140u.dll
 0001:00052953       ?OnCommand@CMFCToolBar@@MEAAH_K_J@Z 0000000140053953 f   mfc140u:mfc140u.dll
 0001:00052959       ?NotifyControlCommand@CMFCToolBar@@MEAAHPEAVCMFCToolBarButton@@HH_K_J@Z 0000000140053959 f   mfc140u:mfc140u.dll
 0001:0005295f       ?DrawSeparator@CMFCToolBar@@MEAAXPEAVCDC@@AEBVCRect@@H@Z 000000014005395f f   mfc140u:mfc140u.dll
 0001:00052965       ?CreateDroppedButton@CMFCToolBar@@MEAAPEAVCMFCToolBarButton@@PEAVCOleDataObject@@@Z 0000000140053965 f   mfc140u:mfc140u.dll
 0001:0005296b       ?OnCustomizeMode@CMFCToolBar@@MEAAXH@Z 000000014005396b f   mfc140u:mfc140u.dll
 0001:00052971       ?EnableContextMenuItems@CMFCToolBar@@MEAAHPEAVCMFCToolBarButton@@PEAVCMenu@@@Z 0000000140053971 f   mfc140u:mfc140u.dll
 0001:00052977       ?OnCalcSeparatorRect@CMFCToolBar@@MEAAXPEAVCMFCToolBarButton@@AEAVCRect@@H@Z 0000000140053977 f   mfc140u:mfc140u.dll
 0001:0005297d       ?AddRemoveSeparator@CMFCToolBar@@MEAAXPEBVCMFCToolBarButton@@AEBVCPoint@@1@Z 000000014005397d f   mfc140u:mfc140u.dll
 0001:00052983       ?ShowCommandMessageString@CMFCToolBar@@MEAAXI@Z 0000000140053983 f   mfc140u:mfc140u.dll
 0001:00052989       ?OnAfterButtonDelete@CMFCToolBar@@MEAAXXZ 0000000140053989 f   mfc140u:mfc140u.dll
 0001:0005298f       ?SaveOriginalState@CMFCToolBar@@MEAAXAEAVCSettingsStore@@@Z 000000014005398f f   mfc140u:mfc140u.dll
 0001:00052995       ?LoadLastOriginalState@CMFCToolBar@@MEAAHAEAVCSettingsStore@@@Z 0000000140053995 f   mfc140u:mfc140u.dll
 0001:0005299b       ?SmartUpdate@CMFCToolBar@@MEAAHAEBVCObList@@@Z 000000014005399b f   mfc140u:mfc140u.dll
 0001:000529a1       ?OnShowWindow@CMFCToolBar@@IEAAXHI@Z 00000001400539a1 f   mfc140u:mfc140u.dll
 0001:000529a7       ?GetThisClass@CMFCMenuBar@@SAPEAUCRuntimeClass@@XZ 00000001400539a7 f   mfc140u:mfc140u.dll
 0001:000529ad       ??0CMFCMenuBar@@QEAA@XZ    00000001400539ad f   mfc140u:mfc140u.dll
 0001:000529b3       ?CreateFromMenu@CMFCMenuBar@@UEAAXPEAUHMENU__@@HH@Z 00000001400539b3 f   mfc140u:mfc140u.dll
 0001:000529b9       ?BuildOrigItems@CMFCMenuBar@@MEAAHI@Z 00000001400539b9 f   mfc140u:mfc140u.dll
 0001:000529bf       ?Create@CMFCMenuBar@@UEAAHPEAVCWnd@@KI@Z 00000001400539bf f   mfc140u:mfc140u.dll
 0001:000529c5       ?CreateEx@CMFCMenuBar@@UEAAHPEAVCWnd@@KKVCRect@@I@Z 00000001400539c5 f   mfc140u:mfc140u.dll
 0001:000529cb       ?CalcFixedLayout@CMFCMenuBar@@UEAA?AVCSize@@HH@Z 00000001400539cb f   mfc140u:mfc140u.dll
 0001:000529d1       ?CalcLayout@CMFCMenuBar@@UEAA?AVCSize@@KH@Z 00000001400539d1 f   mfc140u:mfc140u.dll
 0001:000529d7       ?AdjustLocations@CMFCMenuBar@@UEAAXXZ 00000001400539d7 f   mfc140u:mfc140u.dll
 0001:000529dd       ?OnSendCommand@CMFCMenuBar@@UEAAHPEBVCMFCToolBarButton@@@Z 00000001400539dd f   mfc140u:mfc140u.dll
 0001:000529e3       ?OnToolHitTest@CMFCMenuBar@@UEBA_JVCPoint@@PEAUtagTOOLINFOW@@@Z 00000001400539e3 f   mfc140u:mfc140u.dll
 0001:000529e9       ?SaveState@CMFCMenuBar@@UEAAHPEB_WHI@Z 00000001400539e9 f   mfc140u:mfc140u.dll
 0001:000529ef       ?RestoreOriginalState@CMFCMenuBar@@UEAAHXZ 00000001400539ef f   mfc140u:mfc140u.dll
 0001:000529f5       ?PreTranslateMessage@CMFCMenuBar@@UEAAHPEAUtagMSG@@@Z 00000001400539f5 f   mfc140u:mfc140u.dll
 0001:000529fb       ?GetRowHeight@CMFCMenuBar@@UEBAHXZ 00000001400539fb f   mfc140u:mfc140u.dll
 0001:00052a01       ?OnSetDefaultButtonText@CMFCMenuBar@@UEAAHPEAVCMFCToolBarButton@@@Z 0000000140053a01 f   mfc140u:mfc140u.dll
 0001:00052a07       ?OnChangeHot@CMFCMenuBar@@UEAAXH@Z 0000000140053a07 f   mfc140u:mfc140u.dll
 0001:00052a0d       ?FindDropIndex@CMFCMenuBar@@MEBAHVCPoint@@AEAVCRect@@@Z 0000000140053a0d f   mfc140u:mfc140u.dll
 0001:00052a13       ?ResetImages@CMFCMenuBar@@MEAAXXZ 0000000140053a13 f   mfc140u:mfc140u.dll
 0001:00052a19       ?IsPureMenuButton@CMFCMenuBar@@MEBAHPEAVCMFCToolBarButton@@@Z 0000000140053a19 f   mfc140u:mfc140u.dll
 0001:00052a1f       ??1CMFCMenuBar@@UEAA@XZ    0000000140053a1f f   mfc140u:mfc140u.dll
 0001:00052a25       ?OnTimer@CMFCMenuBar@@IEAAX_K@Z 0000000140053a25 f   mfc140u:mfc140u.dll
 0001:00052a2b       ?GetThisMessageMap@CMFCMenuBar@@KAPEBUAFX_MSGMAP@@XZ 0000000140053a2b f   mfc140u:mfc140u.dll
 0001:00052a31       ?SetStretchBltMode@CDC@@QEAAHH@Z 0000000140053a31 f   mfc140u:mfc140u.dll
 0001:00052a37       ?GetRuntimeClass@CWnd@@UEBAPEAUCRuntimeClass@@XZ 0000000140053a37 f   mfc140u:mfc140u.dll
 0001:00052a3d       ?GetWindowPlacement@CWnd@@QEBAHPEAUtagWINDOWPLACEMENT@@@Z 0000000140053a3d f   mfc140u:mfc140u.dll
 0001:00052a43       ?SetWindowPlacement@CWnd@@QEAAHPEBUtagWINDOWPLACEMENT@@@Z 0000000140053a43 f   mfc140u:mfc140u.dll
 0001:00052a49       ??1CWnd@@UEAA@XZ           0000000140053a49 f   mfc140u:mfc140u.dll
 0001:00052a4f       ??0CFileFind@@QEAA@XZ      0000000140053a4f f   mfc140u:mfc140u.dll
 0001:00052a55       ??1CFileFind@@UEAA@XZ      0000000140053a55 f   mfc140u:mfc140u.dll
 0001:00052a5b       ?GetFileName@CFileFind@@UEBA?AV?$CStringT@_WV?$StrTraitMFC_DLL@_WV?$ChTraitsCRT@_W@ATL@@@@@ATL@@XZ 0000000140053a5b f   mfc140u:mfc140u.dll
 0001:00052a61       ?GetFilePath@CFileFind@@UEBA?AV?$CStringT@_WV?$StrTraitMFC_DLL@_WV?$ChTraitsCRT@_W@ATL@@@@@ATL@@XZ 0000000140053a61 f   mfc140u:mfc140u.dll
 0001:00052a67       ?IsDots@CFileFind@@UEBAHXZ 0000000140053a67 f   mfc140u:mfc140u.dll
 0001:00052a6d       ?FindFile@CFileFind@@UEAAHPEB_WK@Z 0000000140053a6d f   mfc140u:mfc140u.dll
 0001:00052a73       ?FindNextFileW@CFileFind@@UEAAHXZ 0000000140053a73 f   mfc140u:mfc140u.dll
 0001:00052a79       ??0CMFCButton@@QEAA@XZ     0000000140053a79 f   mfc140u:mfc140u.dll
 0001:00052a7f       ?SetCheckedImage@CMFCButton@@QEAAXPEAUHICON__@@H00H@Z 0000000140053a7f f   mfc140u:mfc140u.dll
 0001:00052a85       ?AddTool@CToolTipCtrl@@QEAAHPEAVCWnd@@PEB_WPEBUtagRECT@@_K@Z 0000000140053a85 f   mfc140u:mfc140u.dll
 0001:00052a8b       ?GetRuntimeClass@CMFCToolBarButton@@UEBAPEAUCRuntimeClass@@XZ 0000000140053a8b f   mfc140u:mfc140u.dll
 0001:00052a91       ??0CMFCToolBarButton@@QEAA@IHPEB_WHH@Z 0000000140053a91 f   mfc140u:mfc140u.dll
 0001:00052a97       ??1CMFCToolBarButton@@UEAA@XZ 0000000140053a97 f   mfc140u:mfc140u.dll
 0001:00052a9d       ?PrepareDrag@CMFCToolBarButton@@UEAAHAEAVCOleDataSource@@@Z 0000000140053a9d f   mfc140u:mfc140u.dll
 0001:00052aa3       ?CopyFrom@CMFCToolBarButton@@UEAAXAEBV1@@Z 0000000140053aa3 f   mfc140u:mfc140u.dll
 0001:00052aa9       ?Serialize@CMFCToolBarButton@@UEAAXAEAVCArchive@@@Z 0000000140053aa9 f   mfc140u:mfc140u.dll
 0001:00052aaf       ?OnDraw@CMFCToolBarButton@@UEAAXPEAVCDC@@AEBVCRect@@PEAVCMFCToolBarImages@@HHHHH@Z 0000000140053aaf f   mfc140u:mfc140u.dll
 0001:00052ab5       ?OnCalculateSize@CMFCToolBarButton@@UEAA?AUtagSIZE@@PEAVCDC@@AEBVCSize@@H@Z 0000000140053ab5 f   mfc140u:mfc140u.dll
 0001:00052abb       ?OnChangeParentWnd@CMFCToolBarButton@@UEAAXPEAVCWnd@@@Z 0000000140053abb f   mfc140u:mfc140u.dll
 0001:00052ac1       ?ExportToMenuButton@CMFCToolBarButton@@UEBAHAEAVCMFCToolBarMenuButton@@@Z 0000000140053ac1 f   mfc140u:mfc140u.dll
 0001:00052ac7       ?OnDrawOnCustomizeList@CMFCToolBarButton@@UEAAHPEAVCDC@@AEBVCRect@@H@Z 0000000140053ac7 f   mfc140u:mfc140u.dll
 0001:00052acd       ?OnToolHitTest@CMFCToolBarButton@@UEAAHPEBVCWnd@@PEAUtagTOOLINFOW@@@Z 0000000140053acd f   mfc140u:mfc140u.dll
 0001:00052ad3       ?ResetImageToDefault@CMFCToolBarButton@@UEAAXXZ 0000000140053ad3 f   mfc140u:mfc140u.dll
 0001:00052ad9       ?CompareWith@CMFCToolBarButton@@UEBAHAEBV1@@Z 0000000140053ad9 f   mfc140u:mfc140u.dll
 0001:00052adf       ?IsFirstInGroup@CMFCToolBarButton@@UEBAHXZ 0000000140053adf f   mfc140u:mfc140u.dll
 0001:00052ae5       ?IsLastInGroup@CMFCToolBarButton@@UEBAHXZ 0000000140053ae5 f   mfc140u:mfc140u.dll
 0001:00052aeb       ?SetACCData@CMFCToolBarButton@@UEAAHPEAVCWnd@@AEAVCAccessibilityData@@@Z 0000000140053aeb f   mfc140u:mfc140u.dll
 0001:00052af1       ?GetAccCount@CMFCToolBarButton@@UEAAHXZ 0000000140053af1 f   mfc140u:mfc140u.dll
 0001:00052af7       ?SetImage@CMFCToolBarButton@@UEAAXH@Z 0000000140053af7 f   mfc140u:mfc140u.dll
 0001:00052afd       ?GetThisClass@CMFCToolBar@@SAPEAUCRuntimeClass@@XZ 0000000140053afd f   mfc140u:mfc140u.dll
 0001:00052b03       ??0CMFCToolBar@@QEAA@XZ    0000000140053b03 f   mfc140u:mfc140u.dll
 0001:00052b09       ?Create@CMFCToolBar@@UEAAHPEAVCWnd@@KI@Z 0000000140053b09 f   mfc140u:mfc140u.dll
 0001:00052b0f       ?CreateEx@CMFCToolBar@@UEAAHPEAVCWnd@@KKVCRect@@I@Z 0000000140053b0f f   mfc140u:mfc140u.dll
 0001:00052b15       ?ResetImages@CMFCToolBar@@UEAAXXZ 0000000140053b15 f   mfc140u:mfc140u.dll
 0001:00052b1b       ?SetLockedSizes@CMFCToolBar@@QEAAXUtagSIZE@@0H@Z 0000000140053b1b f   mfc140u:mfc140u.dll
 0001:00052b21       ?GetRowHeight@CMFCToolBar@@UEBAHXZ 0000000140053b21 f   mfc140u:mfc140u.dll
 0001:00052b27       ?LoadState@CMFCToolBar@@UEAAHPEB_WHI@Z 0000000140053b27 f   mfc140u:mfc140u.dll
 0001:00052b2d       ?SaveState@CMFCToolBar@@UEAAHPEB_WHI@Z 0000000140053b2d f   mfc140u:mfc140u.dll
 0001:00052b33       ?CanBeRestored@CMFCToolBar@@UEBAHXZ 0000000140053b33 f   mfc140u:mfc140u.dll
 0001:00052b39       ?RestoreOriginalState@CMFCToolBar@@UEAAHXZ 0000000140053b39 f   mfc140u:mfc140u.dll
 0001:00052b3f       ?OnSetDefaultButtonText@CMFCToolBar@@UEAAHPEAVCMFCToolBarButton@@@Z 0000000140053b3f f   mfc140u:mfc140u.dll
 0001:00052b45       ??1CMFCToolBar@@UEAA@XZ    0000000140053b45 f   mfc140u:mfc140u.dll
 0001:00052b4b       ?CalcFixedLayout@CMFCToolBar@@UEAA?AVCSize@@HH@Z 0000000140053b4b f   mfc140u:mfc140u.dll
 0001:00052b51       ?OnChangeHot@CMFCToolBar@@UEAAXH@Z 0000000140053b51 f   mfc140u:mfc140u.dll
 0001:00052b57       ?CalcLayout@CMFCToolBar@@MEAA?AVCSize@@KH@Z 0000000140053b57 f   mfc140u:mfc140u.dll
 0001:00052b5d       ?OnToolHitTest@CMFCToolBar@@MEBA_JVCPoint@@PEAUtagTOOLINFOW@@@Z 0000000140053b5d f   mfc140u:mfc140u.dll
 0001:00052b63       ?PreTranslateMessage@CMFCToolBar@@MEAAHPEAUtagMSG@@@Z 0000000140053b63 f   mfc140u:mfc140u.dll
 0001:00052b69       ?FindDropIndex@CMFCToolBar@@MEBAHVCPoint@@AEAVCRect@@@Z 0000000140053b69 f   mfc140u:mfc140u.dll
 0001:00052b6f       ?AdjustLocations@CMFCToolBar@@MEAAXXZ 0000000140053b6f f   mfc140u:mfc140u.dll
 0001:00052b75       ?CalcMaxButtonHeight@CMFCToolBar@@MEAAHXZ 0000000140053b75 f   mfc140u:mfc140u.dll
 0001:00052b7b       ?OnEraseBkgnd@CMFCToolBar@@IEAAHPEAVCDC@@@Z 0000000140053b7b f   mfc140u:mfc140u.dll
 0001:00052b81       ?GetThisMessageMap@CMFCToolBar@@KAPEBUAFX_MSGMAP@@XZ 0000000140053b81 f   mfc140u:mfc140u.dll
 0001:00052b87       ?FromHandle@CImageList@@SAPEAV1@PEAU_IMAGELIST@@@Z 0000000140053b87 f   mfc140u:mfc140u.dll
 0001:00052b8d       ?TrackPopupMenu@CMenu@@QEAAHIHHPEAVCWnd@@PEBUtagRECT@@@Z 0000000140053b8d f   mfc140u:mfc140u.dll
 0001:00052b93       ?FromHandlePermanent@CWnd@@SAPEAV1@PEAUHWND__@@@Z 0000000140053b93 f   mfc140u:mfc140u.dll
 0001:00052b99       ?GetThisClass@CView@@SAPEAUCRuntimeClass@@XZ 0000000140053b99 f   mfc140u:mfc140u.dll
 0001:00052b9f       ??0CView@@IEAA@XZ          0000000140053b9f f   mfc140u:mfc140u.dll
 0001:00052ba5       ?DoPreparePrinting@CView@@QEAAHPEAUCPrintInfo@@@Z 0000000140053ba5 f   mfc140u:mfc140u.dll
 0001:00052bab       ?IsSelected@CView@@UEBAHPEBVCObject@@@Z 0000000140053bab f   mfc140u:mfc140u.dll
 0001:00052bb1       ?OnScroll@CView@@UEAAHIIH@Z 0000000140053bb1 f   mfc140u:mfc140u.dll
 0001:00052bb7       ?OnScrollBy@CView@@UEAAHVCSize@@H@Z 0000000140053bb7 f   mfc140u:mfc140u.dll
 0001:00052bbd       ?OnDragEnter@CView@@UEAAKPEAVCOleDataObject@@KVCPoint@@@Z 0000000140053bbd f   mfc140u:mfc140u.dll
 0001:00052bc3       ?OnDragOver@CView@@UEAAKPEAVCOleDataObject@@KVCPoint@@@Z 0000000140053bc3 f   mfc140u:mfc140u.dll
 0001:00052bc9       ?OnDragLeave@CView@@UEAAXXZ 0000000140053bc9 f   mfc140u:mfc140u.dll
 0001:00052bcf       ?OnDrop@CView@@UEAAHPEAVCOleDataObject@@KVCPoint@@@Z 0000000140053bcf f   mfc140u:mfc140u.dll
 0001:00052bd5       ?OnDropEx@CView@@UEAAKPEAVCOleDataObject@@KKVCPoint@@@Z 0000000140053bd5 f   mfc140u:mfc140u.dll
 0001:00052bdb       ?OnDragScroll@CView@@UEAAKKVCPoint@@@Z 0000000140053bdb f   mfc140u:mfc140u.dll
 0001:00052be1       ?OnPrepareDC@CView@@UEAAXPEAVCDC@@PEAUCPrintInfo@@@Z 0000000140053be1 f   mfc140u:mfc140u.dll
 0001:00052be7       ?OnInitialUpdate@CView@@UEAAXXZ 0000000140053be7 f   mfc140u:mfc140u.dll
 0001:00052bed       ?OnActivateView@CView@@MEAAXHPEAV1@0@Z 0000000140053bed f   mfc140u:mfc140u.dll
 0001:00052bf3       ?OnActivateFrame@CView@@MEAAXIPEAVCFrameWnd@@@Z 0000000140053bf3 f   mfc140u:mfc140u.dll
 0001:00052bf9       ?OnUpdate@CView@@MEAAXPEAV1@_JPEAVCObject@@@Z 0000000140053bf9 f   mfc140u:mfc140u.dll
 0001:00052bff       ?OnPrint@CView@@MEAAXPEAVCDC@@PEAUCPrintInfo@@@Z 0000000140053bff f   mfc140u:mfc140u.dll
 0001:00052c05       ?OnEndPrintPreview@CView@@MEAAXPEAVCDC@@PEAUCPrintInfo@@UtagPOINT@@PEAVCPreviewView@@@Z 0000000140053c05 f   mfc140u:mfc140u.dll
 0001:00052c0b       ??1CView@@UEAA@XZ          0000000140053c0b f   mfc140u:mfc140u.dll
 0001:00052c11       ?CalcWindowRect@CView@@UEAAXPEAUtagRECT@@I@Z 0000000140053c11 f   mfc140u:mfc140u.dll
 0001:00052c17       ?GetScrollBarCtrl@CView@@UEBAPEAVCScrollBar@@H@Z 0000000140053c17 f   mfc140u:mfc140u.dll
 0001:00052c1d       ?OnCmdMsg@CView@@UEAAHIHPEAXPEAUAFX_CMDHANDLERINFO@@@Z 0000000140053c1d f   mfc140u:mfc140u.dll
 0001:00052c23       ?PreCreateWindow@CView@@MEAAHAEAUtagCREATESTRUCTW@@@Z 0000000140053c23 f   mfc140u:mfc140u.dll
 0001:00052c29       ?PostNcDestroy@CView@@MEAAXXZ 0000000140053c29 f   mfc140u:mfc140u.dll
 0001:00052c2f       ?OnCreate@CView@@IEAAHPEAUtagCREATESTRUCTW@@@Z 0000000140053c2f f   mfc140u:mfc140u.dll
 0001:00052c35       ?OnFilePrint@CView@@IEAAXXZ 0000000140053c35 f   mfc140u:mfc140u.dll
 0001:00052c3b       ?GetThisMessageMap@CView@@KAPEBUAFX_MSGMAP@@XZ 0000000140053c3b f   mfc140u:mfc140u.dll
 0001:00052c41       ?ClearImageList@CMFCBaseTabCtrl@@UEAAXXZ 0000000140053c41 f   mfc140u:mfc140u.dll
 0001:00052c47       ?AddTab@CMFCBaseTabCtrl@@UEAAXPEAVCWnd@@PEB_WIH@Z 0000000140053c47 f   mfc140u:mfc140u.dll
 0001:00052c4d       ?AddTab@CMFCBaseTabCtrl@@UEAAXPEAVCWnd@@IIH@Z 0000000140053c4d f   mfc140u:mfc140u.dll
 0001:00052c53       ?InsertTab@CMFCBaseTabCtrl@@UEAAXPEAVCWnd@@PEB_WHIH@Z 0000000140053c53 f   mfc140u:mfc140u.dll
 0001:00052c59       ?InsertTab@CMFCBaseTabCtrl@@UEAAXPEAVCWnd@@IHIH@Z 0000000140053c59 f   mfc140u:mfc140u.dll
 0001:00052c5f       ?RemoveTab@CMFCBaseTabCtrl@@UEAAHHH@Z 0000000140053c5f f   mfc140u:mfc140u.dll
 0001:00052c65       ?RemoveAllTabs@CMFCBaseTabCtrl@@UEAAXXZ 0000000140053c65 f   mfc140u:mfc140u.dll
 0001:00052c6b       ?DetachTab@CMFCBaseTabCtrl@@UEAAHW4AFX_DOCK_METHOD@@HH@Z 0000000140053c6b f   mfc140u:mfc140u.dll
 0001:00052c71       ?GetVisibleTabsNum@CMFCBaseTabCtrl@@UEBAHXZ 0000000140053c71 f   mfc140u:mfc140u.dll
 0001:00052c77       ?ShowTab@CMFCBaseTabCtrl@@UEAAHHHHH@Z 0000000140053c77 f   mfc140u:mfc140u.dll
 0001:00052c7d       ?GetTabWnd@CMFCBaseTabCtrl@@UEBAPEAVCWnd@@H@Z 0000000140053c7d f   mfc140u:mfc140u.dll
 0001:00052c83       ?GetTabWndNoWrapper@CMFCBaseTabCtrl@@UEBAPEAVCWnd@@H@Z 0000000140053c83 f   mfc140u:mfc140u.dll
 0001:00052c89       ?GetTabRect@CMFCBaseTabCtrl@@UEBAHHAEAVCRect@@@Z 0000000140053c89 f   mfc140u:mfc140u.dll
 0001:00052c8f       ?GetTabLabel@CMFCBaseTabCtrl@@UEBAHHAEAV?$CStringT@_WV?$StrTraitMFC_DLL@_WV?$ChTraitsCRT@_W@ATL@@@@@ATL@@@Z 0000000140053c8f f   mfc140u:mfc140u.dll
 0001:00052c95       ?SetTabLabel@CMFCBaseTabCtrl@@UEAAHHAEBV?$CStringT@_WV?$StrTraitMFC_DLL@_WV?$ChTraitsCRT@_W@ATL@@@@@ATL@@@Z 0000000140053c95 f   mfc140u:mfc140u.dll
 0001:00052c9b       ?GetTabIcon@CMFCBaseTabCtrl@@UEBAIH@Z 0000000140053c9b f   mfc140u:mfc140u.dll
 0001:00052ca1       ?SetTabIcon@CMFCBaseTabCtrl@@UEAAHHI@Z 0000000140053ca1 f   mfc140u:mfc140u.dll
 0001:00052ca7       ?IsTabIconOnly@CMFCBaseTabCtrl@@UEBAHH@Z 0000000140053ca7 f   mfc140u:mfc140u.dll
 0001:00052cad       ?SetTabIconOnly@CMFCBaseTabCtrl@@UEAAHHHH@Z 0000000140053cad f   mfc140u:mfc140u.dll
 0001:00052cb3       ?SetTabHicon@CMFCBaseTabCtrl@@UEAAHHPEAUHICON__@@@Z 0000000140053cb3 f   mfc140u:mfc140u.dll
 0001:00052cb9       ?GetTabHicon@CMFCBaseTabCtrl@@UEBAPEAUHICON__@@H@Z 0000000140053cb9 f   mfc140u:mfc140u.dll
 0001:00052cbf       ?GetTabBkColor@CMFCBaseTabCtrl@@UEBAKH@Z 0000000140053cbf f   mfc140u:mfc140u.dll
 0001:00052cc5       ?SetTabBkColor@CMFCBaseTabCtrl@@UEAAHHK@Z 0000000140053cc5 f   mfc140u:mfc140u.dll
 0001:00052ccb       ?GetTabTextColor@CMFCBaseTabCtrl@@UEBAKH@Z 0000000140053ccb f   mfc140u:mfc140u.dll
 0001:00052cd1       ?SetTabTextColor@CMFCBaseTabCtrl@@UEAAHHK@Z 0000000140053cd1 f   mfc140u:mfc140u.dll
 0001:00052cd7       ?GetTabFullWidth@CMFCBaseTabCtrl@@UEBAHH@Z 0000000140053cd7 f   mfc140u:mfc140u.dll
 0001:00052cdd       ?IsTabDetachable@CMFCBaseTabCtrl@@UEBAHH@Z 0000000140053cdd f   mfc140u:mfc140u.dll
 0001:00052ce3       ?EnableTabDetach@CMFCBaseTabCtrl@@UEAAHHH@Z 0000000140053ce3 f   mfc140u:mfc140u.dll
 0001:00052ce9       ?StartRenameTab@CMFCBaseTabCtrl@@UEAAHH@Z 0000000140053ce9 f   mfc140u:mfc140u.dll
 0001:00052cef       ?RenameTab@CMFCBaseTabCtrl@@UEAAHXZ 0000000140053cef f   mfc140u:mfc140u.dll
 0001:00052cf5       ?GetActiveWnd@CMFCBaseTabCtrl@@UEBAPEAVCWnd@@XZ 0000000140053cf5 f   mfc140u:mfc140u.dll
 0001:00052cfb       ?GetTabFromHwnd@CMFCBaseTabCtrl@@UEBAHPEAUHWND__@@@Z 0000000140053cfb f   mfc140u:mfc140u.dll
 0001:00052d01       ?GetTabByID@CMFCBaseTabCtrl@@UEBAHH@Z 0000000140053d01 f   mfc140u:mfc140u.dll
 0001:00052d07       ?SetActiveTabColor@CMFCBaseTabCtrl@@UEAAXK@Z 0000000140053d07 f   mfc140u:mfc140u.dll
 0001:00052d0d       ?SetActiveTabTextColor@CMFCBaseTabCtrl@@UEAAXK@Z 0000000140053d0d f   mfc140u:mfc140u.dll
 0001:00052d13       ?HasImage@CMFCBaseTabCtrl@@UEBAHH@Z 0000000140053d13 f   mfc140u:mfc140u.dll
 0001:00052d19       ?SetTabBorderSize@CMFCBaseTabCtrl@@UEAAXHH@Z 0000000140053d19 f   mfc140u:mfc140u.dll
 0001:00052d1f       ?Serialize@CMFCBaseTabCtrl@@UEAAXAEAVCArchive@@@Z 0000000140053d1f f   mfc140u:mfc140u.dll
 0001:00052d25       ?ApplyRestoredTabInfo@CMFCBaseTabCtrl@@UEAAXH@Z 0000000140053d25 f   mfc140u:mfc140u.dll
 0001:00052d2b       ?GetFirstVisibleTab@CMFCBaseTabCtrl@@UEAAPEAVCWnd@@AEAH@Z 0000000140053d2b f   mfc140u:mfc140u.dll
 0001:00052d31       ?GetFirstVisibleTab@CMFCBaseTabCtrl@@UEAAPEAVCWnd@@HAEAH@Z 0000000140053d31 f   mfc140u:mfc140u.dll
 0001:00052d37       ?GetLastVisibleTab@CMFCBaseTabCtrl@@UEAAPEAVCWnd@@AEAH@Z 0000000140053d37 f   mfc140u:mfc140u.dll
 0001:00052d3d       ?GetMaxWindowSize@CMFCBaseTabCtrl@@UEBA?AVCSize@@XZ 0000000140053d3d f   mfc140u:mfc140u.dll
 0001:00052d43       ?FireChangeActiveTab@CMFCBaseTabCtrl@@UEAAXH@Z 0000000140053d43 f   mfc140u:mfc140u.dll
 0001:00052d49       ?FireChangingActiveTab@CMFCBaseTabCtrl@@UEAAHH@Z 0000000140053d49 f   mfc140u:mfc140u.dll
 0001:00052d4f       ?SetLocation@CMFCBaseTabCtrl@@UEAAXW4Location@1@@Z 0000000140053d4f f   mfc140u:mfc140u.dll
 0001:00052d55       ?IsTabVisible@CMFCBaseTabCtrl@@UEBAHH@Z 0000000140053d55 f   mfc140u:mfc140u.dll
 0001:00052d5b       ?IsColored@CMFCBaseTabCtrl@@UEBAHXZ 0000000140053d5b f   mfc140u:mfc140u.dll
 0001:00052d61       ?CleanUp@CMFCBaseTabCtrl@@UEAAXXZ 0000000140053d61 f   mfc140u:mfc140u.dll
 0001:00052d67       ?GetTabNumberToDetach@CMFCBaseTabCtrl@@MEBAHH@Z 0000000140053d67 f   mfc140u:mfc140u.dll
 0001:00052d6d       ?CreateWrapper@CMFCBaseTabCtrl@@MEAAPEAVCWnd@@PEAV2@PEB_WH@Z 0000000140053d6d f   mfc140u:mfc140u.dll
 0001:00052d73       ?InitAutoColors@CMFCBaseTabCtrl@@MEAAXXZ 0000000140053d73 f   mfc140u:mfc140u.dll
 0001:00052d79       ?OnSetAccData@CMFCBaseTabCtrl@@MEAAHJ@Z 0000000140053d79 f   mfc140u:mfc140u.dll
 0001:00052d7f       ?get_accChildCount@CMFCBaseTabCtrl@@MEAAJPEAJ@Z 0000000140053d7f f   mfc140u:mfc140u.dll
 0001:00052d85       ?get_accChild@CMFCBaseTabCtrl@@MEAAJUtagVARIANT@@PEAPEAUIDispatch@@@Z 0000000140053d85 f   mfc140u:mfc140u.dll
 0001:00052d8b       ?accHitTest@CMFCBaseTabCtrl@@MEAAJJJPEAUtagVARIANT@@@Z 0000000140053d8b f   mfc140u:mfc140u.dll
 0001:00052d91       ?accNavigate@CMFCBaseTabCtrl@@MEAAJJUtagVARIANT@@PEAU2@@Z 0000000140053d91 f   mfc140u:mfc140u.dll
 0001:00052d97       ?accDoDefaultAction@CMFCBaseTabCtrl@@MEAAJUtagVARIANT@@@Z 0000000140053d97 f   mfc140u:mfc140u.dll
 0001:00052d9d       ?get_accRole@CMFCBaseTabCtrl@@MEAAJUtagVARIANT@@PEAU2@@Z 0000000140053d9d f   mfc140u:mfc140u.dll
 0001:00052da3       ?get_accValue@CMFCBaseTabCtrl@@MEAAJUtagVARIANT@@PEAPEA_W@Z 0000000140053da3 f   mfc140u:mfc140u.dll
 0001:00052da9       ?get_accState@CMFCBaseTabCtrl@@MEAAJUtagVARIANT@@PEAU2@@Z 0000000140053da9 f   mfc140u:mfc140u.dll
 0001:00052daf       ?get_accName@CMFCBaseTabCtrl@@MEAAJUtagVARIANT@@PEAPEA_W@Z 0000000140053daf f   mfc140u:mfc140u.dll
 0001:00052db5       ?get_accDefaultAction@CMFCBaseTabCtrl@@MEAAJUtagVARIANT@@PEAPEA_W@Z 0000000140053db5 f   mfc140u:mfc140u.dll
 0001:00052dbb       ?accLocation@CMFCBaseTabCtrl@@MEAAJPEAJ000UtagVARIANT@@@Z 0000000140053dbb f   mfc140u:mfc140u.dll
 0001:00052dc1       ?SetACCData@CMFCBaseTabCtrl@@MEAAHPEAVCMFCTabInfo@@AEAVCAccessibilityData@@H@Z 0000000140053dc1 f   mfc140u:mfc140u.dll
 0001:00052dc7       ?GetRuntimeClass@CMFCTabCtrl@@UEBAPEAUCRuntimeClass@@XZ 0000000140053dc7 f   mfc140u:mfc140u.dll
 0001:00052dcd       ??0CMFCTabCtrl@@QEAA@XZ    0000000140053dcd f   mfc140u:mfc140u.dll
 0001:00052dd3       ?Create@CMFCTabCtrl@@QEAAHW4Style@1@AEBUtagRECT@@PEAVCWnd@@IW4Location@CMFCBaseTabCtrl@@H@Z 0000000140053dd3 f   mfc140u:mfc140u.dll
 0001:00052dd9       ?SetImageList@CMFCTabCtrl@@UEAAHIHK@Z 0000000140053dd9 f   mfc140u:mfc140u.dll
 0001:00052ddf       ?SetImageList@CMFCTabCtrl@@UEAAHPEAU_IMAGELIST@@@Z 0000000140053ddf f   mfc140u:mfc140u.dll
 0001:00052de5       ?RecalcLayout@CMFCTabCtrl@@UEAAXXZ 0000000140053de5 f   mfc140u:mfc140u.dll
 0001:00052deb       ?EnableInPlaceEdit@CMFCTabCtrl@@UEAAXH@Z 0000000140053deb f   mfc140u:mfc140u.dll
 0001:00052df1       ?SetActiveTab@CMFCTabCtrl@@UEAAHH@Z 0000000140053df1 f   mfc140u:mfc140u.dll
 0001:00052df7       ?EnsureVisible@CMFCTabCtrl@@UEAAHH@Z 0000000140053df7 f   mfc140u:mfc140u.dll
 0001:00052dfd       ?HideSingleTab@CMFCTabCtrl@@UEAAXH@Z 0000000140053dfd f   mfc140u:mfc140u.dll
 0001:00052e03       ?OnDragEnter@CMFCTabCtrl@@UEAAKPEAVCOleDataObject@@KVCPoint@@@Z 0000000140053e03 f   mfc140u:mfc140u.dll
 0001:00052e09       ?OnDragOver@CMFCTabCtrl@@UEAAKPEAVCOleDataObject@@KVCPoint@@@Z 0000000140053e09 f   mfc140u:mfc140u.dll
 0001:00052e0f       ?OnDraw@CMFCTabCtrl@@UEAAXPEAVCDC@@@Z 0000000140053e0f f   mfc140u:mfc140u.dll
 0001:00052e15       ?FindTargetWnd@CMFCTabCtrl@@MEAAPEAVCWnd@@AEBVCPoint@@@Z 0000000140053e15 f   mfc140u:mfc140u.dll
 0001:00052e1b       ?AdjustTabs@CMFCTabCtrl@@MEAAXXZ 0000000140053e1b f   mfc140u:mfc140u.dll
 0001:00052e21       ?AdjustTabsScroll@CMFCTabCtrl@@MEAAXXZ 0000000140053e21 f   mfc140u:mfc140u.dll
 0001:00052e27       ?AdjustWndScroll@CMFCTabCtrl@@MEAAXXZ 0000000140053e27 f   mfc140u:mfc140u.dll
 0001:00052e2d       ?SetTabsHeight@CMFCTabCtrl@@MEAAXXZ 0000000140053e2d f   mfc140u:mfc140u.dll
 0001:00052e33       ?IsPtInTabArea@CMFCTabCtrl@@UEBAHVCPoint@@@Z 0000000140053e33 f   mfc140u:mfc140u.dll
 0001:00052e39       ?GetTabFromPoint@CMFCTabCtrl@@UEBAHAEAVCPoint@@@Z 0000000140053e39 f   mfc140u:mfc140u.dll
 0001:00052e3f       ?SwapTabs@CMFCTabCtrl@@UEAAXHH@Z 0000000140053e3f f   mfc140u:mfc140u.dll
 0001:00052e45       ?MoveTab@CMFCTabCtrl@@UEAAXHH@Z 0000000140053e45 f   mfc140u:mfc140u.dll
 0001:00052e4b       ?OnShowTabDocumentsMenu@CMFCTabCtrl@@UEAAXVCPoint@@@Z 0000000140053e4b f   mfc140u:mfc140u.dll
 0001:00052e51       ?IsMDITabGroup@CMFCTabCtrl@@UEBAHXZ 0000000140053e51 f   mfc140u:mfc140u.dll
 0001:00052e57       ?PreTranslateMessage@CMFCTabCtrl@@UEAAHPEAUtagMSG@@@Z 0000000140053e57 f   mfc140u:mfc140u.dll
 0001:00052e5d       ?OnCommand@CMFCTabCtrl@@MEAAH_K_J@Z 0000000140053e5d f   mfc140u:mfc140u.dll
 0001:00052e63       ?OnNotify@CMFCTabCtrl@@MEAAH_K_JPEA_J@Z 0000000140053e63 f   mfc140u:mfc140u.dll
 0001:00052e69       ?Draw3DTab@CMFCTabCtrl@@MEAAXPEAVCDC@@PEAVCMFCTabInfo@@H@Z 0000000140053e69 f   mfc140u:mfc140u.dll
 0001:00052e6f       ?DrawFlatTab@CMFCTabCtrl@@MEAAXPEAVCDC@@PEAVCMFCTabInfo@@H@Z 0000000140053e6f f   mfc140u:mfc140u.dll
 0001:00052e75       ?DrawResizeDragRect@CMFCTabCtrl@@MEAAXAEAVCRect@@0@Z 0000000140053e75 f   mfc140u:mfc140u.dll
 0001:00052e7b       ??1CMFCTabCtrl@@UEAA@XZ    0000000140053e7b f   mfc140u:mfc140u.dll
 0001:00052e81       ?GetMessageMap@CMFCTabCtrl@@MEBAPEBUAFX_MSGMAP@@XZ 0000000140053e81 f   mfc140u:mfc140u.dll
 0001:00052e87       ?OnVScroll@CWnd@@IEAAXIIPEAVCScrollBar@@@Z 0000000140053e87 f   mfc140u:mfc140u.dll
 0001:00052e8d       ?GetRuntimeClass@CSliderCtrl@@UEBAPEAUCRuntimeClass@@XZ 0000000140053e8d f   mfc140u:mfc140u.dll
 0001:00052e93       ?Create@CSliderCtrl@@UEAAHKAEBUtagRECT@@PEAVCWnd@@I@Z 0000000140053e93 f   mfc140u:mfc140u.dll
 0001:00052e99       ?CreateEx@CSliderCtrl@@UEAAHKKAEBUtagRECT@@PEAVCWnd@@I@Z 0000000140053e99 f   mfc140u:mfc140u.dll
 0001:00052e9f       ?SetRange@CSliderCtrl@@QEAAXHHH@Z 0000000140053e9f f   mfc140u:mfc140u.dll
 0001:00052ea5       ??1CSliderCtrl@@UEAA@XZ    0000000140053ea5 f   mfc140u:mfc140u.dll
 0001:00052eab       ?Lock@CSingleLock@@QEAAHK@Z 0000000140053eab f   mfc140u:mfc140u.dll
 0001:00052eb1       ?GetFtpConnection@CInternetSession@@QEAAPEAVCFtpConnection@@PEB_W00GH@Z 0000000140053eb1 f   mfc140u:mfc140u.dll
 0001:00052eb7       ?SetCurrentDirectoryW@CFtpConnection@@QEAAHPEB_W@Z 0000000140053eb7 f   mfc140u:mfc140u.dll
 0001:00052ebd       ?OpenFile@CFtpConnection@@QEAAPEAVCInternetFile@@PEB_WKK_K@Z 0000000140053ebd f   mfc140u:mfc140u.dll
 0001:00052ec3       ?AddIcon@CMFCToolBarImages@@QEAAHPEAUHICON__@@H@Z 0000000140053ec3 f   mfc140u:mfc140u.dll
 0001:00052ecc       ?AfxSocketInit@@YAHPEAUWSAData@@@Z 0000000140053ecc f   mfcs140u:sockexp.obj
 0001:00053138       wWinMainCRTStartup         0000000140054138 f   msvcrt:exe_wwinmain.obj
 0001:0005314c       ??_Gtype_info@@UEAAPEAXI@Z 000000014005414c f i msvcrt:std_type_info_static.obj
 0001:0005314c       ??_Etype_info@@UEAAPEAXI@Z 000000014005414c f i msvcrt:std_type_info_static.obj
 0001:00053178       __scrt_acquire_startup_lock 0000000140054178 f   msvcrt:utility.obj
 0001:000531b4       __scrt_initialize_crt      00000001400541b4 f   msvcrt:utility.obj
 0001:00053200       __scrt_initialize_onexit_tables 0000000140054200 f   msvcrt:utility.obj
 0001:0005328c       __scrt_is_nonwritable_in_current_image 000000014005428c f   msvcrt:utility.obj
 0001:00053324       __scrt_release_startup_lock 0000000140054324 f   msvcrt:utility.obj
 0001:00053348       __scrt_uninitialize_crt    0000000140054348 f   msvcrt:utility.obj
 0001:00053374       _onexit                    0000000140054374 f   msvcrt:utility.obj
 0001:000533b0       atexit                     00000001400543b0 f   msvcrt:utility.obj
 0001:000534c0       _Init_thread_abort         00000001400544c0 f   msvcrt:thread_safe_statics.obj
 0001:000534f0       _Init_thread_footer        00000001400544f0 f   msvcrt:thread_safe_statics.obj
 0001:00053550       _Init_thread_header        0000000140054550 f   msvcrt:thread_safe_statics.obj
 0001:000535b8       _Init_thread_notify        00000001400545b8 f   msvcrt:thread_safe_statics.obj
 0001:000535fc       _Init_thread_wait          00000001400545fc f   msvcrt:thread_safe_statics.obj
 0001:00053660       __GSHandlerCheck           0000000140054660 f   msvcrt:gshandler.obj
 0001:00053680       __GSHandlerCheckCommon     0000000140054680 f   msvcrt:gshandler.obj
 0001:000536dc       __GSHandlerCheck_EH        00000001400546dc f   msvcrt:gshandlereh.obj
 0001:00053770       __security_check_cookie    0000000140054770 f   msvcrt:amdsecgs.obj
 0001:000537b0       _alloca_probe              00000001400547b0 f   msvcrt:chkstk.obj
 0001:000537b0       __chkstk                   00000001400547b0 f   msvcrt:chkstk.obj
 0001:00053804       _RTC_SetErrorFunc          0000000140054804 f   msvcrt:userapi.obj
 0001:0005381c       __raise_securityfailure    000000014005481c f   msvcrt:gs_report.obj
 0001:00053850       __report_gsfailure         0000000140054850 f   msvcrt:gs_report.obj
 0001:00053924       __report_rangecheckfailure 0000000140054924 f   msvcrt:gs_report.obj
 0001:00053938       __report_securityfailure   0000000140054938 f   msvcrt:gs_report.obj
 0001:00053ab8       __GSHandlerCheck_SEH       0000000140054ab8 f   msvcrt:gshandlerseh.obj
 0001:00053b40       __security_init_cookie     0000000140054b40 f   msvcrt:gs_support.obj
 0001:00053bec       _get_startup_file_mode     0000000140054bec f   msvcrt:file_mode.obj
 0001:00053bf4       ?__scrt_initialize_type_info@@YAXXZ 0000000140054bf4 f   msvcrt:tncleanup.obj
 0001:00053c04       __scrt_initialize_default_local_stdio_options 0000000140054c04 f   msvcrt:default_local_stdio_options.obj
 0001:00053c20       __scrt_is_user_matherr_present 0000000140054c20 f   msvcrt:matherr_detection.obj
 0001:00053c2c       __scrt_get_dyn_tls_init_callback 0000000140054c2c f   msvcrt:dyn_tls_init.obj
 0001:00053c34       __scrt_get_dyn_tls_dtor_callback 0000000140054c34 f   msvcrt:dyn_tls_dtor.obj
 0001:00053c3c       __crt_debugger_hook        0000000140054c3c f   msvcrt:utility_desktop.obj
 0001:00053c44       __scrt_fastfail            0000000140054c44 f   msvcrt:utility_desktop.obj
 0001:00053d90       __scrt_get_show_window_mode 0000000140054d90 f   msvcrt:utility_desktop.obj
 0001:00053dcc       __scrt_initialize_mta      0000000140054dcc f   msvcrt:utility_desktop.obj
 0001:00053dd4       __scrt_is_managed_app      0000000140054dd4 f   msvcrt:utility_desktop.obj
 0001:00053e28       __scrt_set_unhandled_exception_filter 0000000140054e28 f   msvcrt:utility_desktop.obj
 0001:00053e38       __scrt_unhandled_exception_filter 0000000140054e38 f   msvcrt:utility_desktop.obj
 0001:00053e70       _RTC_Initialize            0000000140054e70 f   msvcrt:initsect.obj
 0001:00053eac       _RTC_Terminate             0000000140054eac f   msvcrt:initsect.obj
 0001:00053ee8       __isa_available_init       0000000140054ee8 f   msvcrt:cpu_disp.obj
 0001:00054064       __scrt_is_ucrt_dll_in_use  0000000140055064 f   msvcrt:ucrt_detection.obj
 0001:00054070       K32GetProcessMemoryInfo    0000000140055070 f   kernel32:KERNEL32.dll
 0001:00054076       IsProcessorFeaturePresent  0000000140055076 f   kernel32:KERNEL32.dll
 0001:0005407c       ??0CAtlBaseModule@ATL@@QEAA@XZ 000000014005507c f   atls:atlbase.obj
 0001:00054124       ??1CAtlBaseModule@ATL@@QEAA@XZ 0000000140055124 f   atls:atlbase.obj
 0001:00054158       GdiplusShutdown            0000000140055158 f   gdiplus:gdiplus.dll
 0001:00054160       ?_com_issue_error@@YAXJ@Z  0000000140055160 f   comsuppw:comsupp.obj
 0001:00054170       ?ConvertStringToBSTR@_com_util@@YAPEA_WPEBD@Z 0000000140055170 f   comsuppw:comutil.obj
 0001:00054310       ??0_com_error@@QEAA@AEBV0@@Z 0000000140055310 f i comsuppw:comraise.obj
 0001:00054360       ??0_com_error@@QEAA@JPEAUIErrorInfo@@_N@Z 0000000140055360 f i comsuppw:comraise.obj
 0001:000543b0       ??1_com_error@@UEAA@XZ     00000001400553b0 f i comsuppw:comraise.obj
 0001:00054400       ??_G_com_error@@UEAAPEAXI@Z 0000000140055400 f i comsuppw:comraise.obj
 0001:00054400       ??_E_com_error@@UEAAPEAXI@Z 0000000140055400 f i comsuppw:comraise.obj
 0001:00054460       ?_com_raise_error@@YAXJPEAUIErrorInfo@@@Z 0000000140055460 f   comsuppw:comraise.obj
 0001:00054488       ?_Xlength_error@std@@YAXPEBD@Z 0000000140055488 f   msvcprt:MSVCP140.dll
 0001:0005448e       _Mtx_init_in_situ          000000014005548e f   msvcprt:MSVCP140.dll
 0001:00054494       _Mtx_destroy_in_situ       0000000140055494 f   msvcprt:MSVCP140.dll
 0001:0005449a       _Mtx_lock                  000000014005549a f   msvcprt:MSVCP140.dll
 0001:000544a0       _Mtx_unlock                00000001400554a0 f   msvcprt:MSVCP140.dll
 0001:000544a6       ?_Throw_C_error@std@@YAXH@Z 00000001400554a6 f   msvcprt:MSVCP140.dll
 0001:000544ac       ?_Xout_of_range@std@@YAXPEBD@Z 00000001400554ac f   msvcprt:MSVCP140.dll
 0001:000544b2       ?_Lock@?$basic_streambuf@DU?$char_traits@D@std@@@std@@UEAAXXZ 00000001400554b2 f   msvcprt:MSVCP140.dll
 0001:000544b8       ?_Unlock@?$basic_streambuf@DU?$char_traits@D@std@@@std@@UEAAXXZ 00000001400554b8 f   msvcprt:MSVCP140.dll
 0001:000544be       ?imbue@?$basic_streambuf@DU?$char_traits@D@std@@@std@@MEAAXAEBVlocale@2@@Z 00000001400554be f   msvcprt:MSVCP140.dll
 0001:000544c4       ?setbuf@?$basic_streambuf@DU?$char_traits@D@std@@@std@@MEAAPEAV12@PEAD_J@Z 00000001400554c4 f   msvcprt:MSVCP140.dll
 0001:000544ca       ?showmanyc@?$basic_streambuf@DU?$char_traits@D@std@@@std@@MEAA_JXZ 00000001400554ca f   msvcprt:MSVCP140.dll
 0001:000544d0       ?sync@?$basic_streambuf@DU?$char_traits@D@std@@@std@@MEAAHXZ 00000001400554d0 f   msvcprt:MSVCP140.dll
 0001:000544d6       ?uflow@?$basic_streambuf@DU?$char_traits@D@std@@@std@@MEAAHXZ 00000001400554d6 f   msvcprt:MSVCP140.dll
 0001:000544dc       ?xsgetn@?$basic_streambuf@DU?$char_traits@D@std@@@std@@MEAA_JPEAD_J@Z 00000001400554dc f   msvcprt:MSVCP140.dll
 0001:000544e2       ?xsputn@?$basic_streambuf@DU?$char_traits@D@std@@@std@@MEAA_JPEBD_J@Z 00000001400554e2 f   msvcprt:MSVCP140.dll
 0001:000544e8       ?_Execute_once@std@@YAHAEAUonce_flag@1@P6AHPEAX1PEAPEAX@Z1@Z 00000001400554e8 f   msvcprt:MSVCP140.dll
 0001:000544ee       ?_Syserror_map@std@@YAPEBDH@Z 00000001400554ee f   msvcprt:MSVCP140.dll
 0001:000544f4       ?_Winerror_map@std@@YAHH@Z 00000001400554f4 f   msvcprt:MSVCP140.dll
 0001:000544fa       ?_Winerror_message@std@@YAKKPEADK@Z 00000001400554fa f   msvcprt:MSVCP140.dll
 0001:00054518       __std_fs_code_page         0000000140055518 f   msvcprt:filesystem.obj
 0001:00054540       __std_fs_convert_wide_to_narrow 0000000140055540 f   msvcprt:filesystem.obj
 0001:00054664       __std_fs_create_directory  0000000140055664 f   msvcprt:filesystem.obj
 0001:000546dc       __std_fs_get_full_path_name 00000001400556dc f   msvcprt:filesystem.obj
 0001:0005470c       __std_fs_get_stats         000000014005570c f   msvcprt:filesystem.obj
 0001:00054b34       __std_fs_open_handle       0000000140055b34 f   msvcprt:filesystem.obj
 0001:00054b8b       _Xtime_get_ticks           0000000140055b8b f   msvcprt:MSVCP140.dll
 0001:00054b91       _Thrd_join                 0000000140055b91 f   msvcprt:MSVCP140.dll
 0001:00054b97       _Thrd_id                   0000000140055b97 f   msvcprt:MSVCP140.dll
 0001:00054b9d       _Cnd_do_broadcast_at_thread_exit 0000000140055b9d f   msvcprt:MSVCP140.dll
 0001:00054ba3       ?_Throw_Cpp_error@std@@YAXH@Z 0000000140055ba3 f   msvcprt:MSVCP140.dll
 0001:00054ba9       _CxxThrowException         0000000140055ba9 f   vcruntime:VCRUNTIME140.dll
 0001:00054baf       __CxxFrameHandler3         0000000140055baf f   vcruntime:VCRUNTIME140.dll
 0001:00054bb5       __std_terminate            0000000140055bb5 f   vcruntime:VCRUNTIME140.dll
 0001:00054bbb       memcpy                     0000000140055bbb f   vcruntime:VCRUNTIME140.dll
 0001:00054bc1       memmove                    0000000140055bc1 f   vcruntime:VCRUNTIME140.dll
 0001:00054bc7       memset                     0000000140055bc7 f   vcruntime:VCRUNTIME140.dll
 0001:00054bcd       _purecall                  0000000140055bcd f   vcruntime:VCRUNTIME140.dll
 0001:00054bd3       __std_exception_copy       0000000140055bd3 f   vcruntime:VCRUNTIME140.dll
 0001:00054bd9       __std_exception_destroy    0000000140055bd9 f   vcruntime:VCRUNTIME140.dll
 0001:00054bdf       __std_type_info_compare    0000000140055bdf f   vcruntime:VCRUNTIME140.dll
 0001:00054be5       __C_specific_handler       0000000140055be5 f   vcruntime:VCRUNTIME140.dll
 0001:00054beb       free                       0000000140055beb f   ucrt:api-ms-win-crt-heap-l1-1-0.dll
 0001:00054bf1       malloc                     0000000140055bf1 f   ucrt:api-ms-win-crt-heap-l1-1-0.dll
 0001:00054bf7       terminate                  0000000140055bf7 f   ucrt:api-ms-win-crt-runtime-l1-1-0.dll
 0001:00054bfd       _seh_filter_exe            0000000140055bfd f   ucrt:api-ms-win-crt-runtime-l1-1-0.dll
 0001:00054c03       _set_app_type              0000000140055c03 f   ucrt:api-ms-win-crt-runtime-l1-1-0.dll
 0001:00054c09       __setusermatherr           0000000140055c09 f   ucrt:api-ms-win-crt-math-l1-1-0.dll
 0001:00054c0f       _configure_wide_argv       0000000140055c0f f   ucrt:api-ms-win-crt-runtime-l1-1-0.dll
 0001:00054c15       _initialize_wide_environment 0000000140055c15 f   ucrt:api-ms-win-crt-runtime-l1-1-0.dll
 0001:00054c1b       _get_wide_winmain_command_line 0000000140055c1b f   ucrt:api-ms-win-crt-runtime-l1-1-0.dll
 0001:00054c21       _initterm                  0000000140055c21 f   ucrt:api-ms-win-crt-runtime-l1-1-0.dll
 0001:00054c27       _initterm_e                0000000140055c27 f   ucrt:api-ms-win-crt-runtime-l1-1-0.dll
 0001:00054c2d       exit                       0000000140055c2d f   ucrt:api-ms-win-crt-runtime-l1-1-0.dll
 0001:00054c33       _exit                      0000000140055c33 f   ucrt:api-ms-win-crt-runtime-l1-1-0.dll
 0001:00054c39       _set_fmode                 0000000140055c39 f   ucrt:api-ms-win-crt-stdio-l1-1-0.dll
 0001:00054c3f       _cexit                     0000000140055c3f f   ucrt:api-ms-win-crt-runtime-l1-1-0.dll
 0001:00054c45       _c_exit                    0000000140055c45 f   ucrt:api-ms-win-crt-runtime-l1-1-0.dll
 0001:00054c4b       _register_thread_local_exe_atexit_callback 0000000140055c4b f   ucrt:api-ms-win-crt-runtime-l1-1-0.dll
 0001:00054c51       _configthreadlocale        0000000140055c51 f   ucrt:api-ms-win-crt-locale-l1-1-0.dll
 0001:00054c57       _set_new_mode              0000000140055c57 f   ucrt:api-ms-win-crt-heap-l1-1-0.dll
 0001:00054c5d       __p__commode               0000000140055c5d f   ucrt:api-ms-win-crt-stdio-l1-1-0.dll
 0001:00054c63       _initialize_onexit_table   0000000140055c63 f   ucrt:api-ms-win-crt-runtime-l1-1-0.dll
 0001:00054c69       _register_onexit_function  0000000140055c69 f   ucrt:api-ms-win-crt-runtime-l1-1-0.dll
 0001:00054c6f       _crt_atexit                0000000140055c6f f   ucrt:api-ms-win-crt-runtime-l1-1-0.dll
 0001:00054c75       ?_AfxSocketInit@@YAHPEAUWSAData@@@Z 0000000140055c75 f   mfc140u:mfc140u.dll
 0001:00054c7c       ?AfxInitialize@@YAHHK@Z    0000000140055c7c f   mfcs140u:appmodul.obj
 0001:00054ca8       wWinMain                   0000000140055ca8 f   mfcs140u:appmodul.obj
 0001:00054cad       ?AfxWinMain@@YAHPEAUHINSTANCE__@@0PEA_WH@Z 0000000140055cad f   mfc140u:mfc140u.dll
 0001:00054cd0       _guard_dispatch_icall_nop  0000000140055cd0 f   msvcrt:guard_dispatch.obj
 0001:00059440       ??__Fcache@?1??GetCDCCacheInstance@CImage@ATL@@CAPEAVCDCCache@12@XZ@YAXXZ 000000014005a440 f i ColorProcress.obj
 0001:00059480       ??__FgdiPlus@?1??GetInitGDIPlusInstance@CImage@ATL@@CAPEAVCInitGDIPlus@12@XZ@YAXXZ 000000014005a480 f i ColorProcress.obj
 0002:00000000       __imp_CryptAcquireContextW 000000014005b000     advapi32:ADVAPI32.dll
 0002:00000008       __imp_RegOpenKeyExW        000000014005b008     advapi32:ADVAPI32.dll
 0002:00000010       __imp_RegQueryValueExA     000000014005b010     advapi32:ADVAPI32.dll
 0002:00000018       __imp_RegCloseKey          000000014005b018     advapi32:ADVAPI32.dll
 0002:00000020       __imp_RegCreateKeyExW      000000014005b020     advapi32:ADVAPI32.dll
 0002:00000028       __imp_RegDeleteKeyW        000000014005b028     advapi32:ADVAPI32.dll
 0002:00000030       __imp_RegDeleteValueW      000000014005b030     advapi32:ADVAPI32.dll
 0002:00000038       __imp_RegQueryValueExW     000000014005b038     advapi32:ADVAPI32.dll
 0002:00000040       __imp_RegSetValueExW       000000014005b040     advapi32:ADVAPI32.dll
 0002:00000048       __imp_DeregisterEventSource 000000014005b048     advapi32:ADVAPI32.dll
 0002:00000050       __imp_RegisterEventSourceW 000000014005b050     advapi32:ADVAPI32.dll
 0002:00000058       __imp_ReportEventW         000000014005b058     advapi32:ADVAPI32.dll
 0002:00000060       __imp_CryptDestroyHash     000000014005b060     advapi32:ADVAPI32.dll
 0002:00000068       __imp_RegEnumKeyExW        000000014005b068     advapi32:ADVAPI32.dll
 0002:00000070       __imp_CryptReleaseContext  000000014005b070     advapi32:ADVAPI32.dll
 0002:00000078       __imp_CryptGetHashParam    000000014005b078     advapi32:ADVAPI32.dll
 0002:00000080       __imp_CryptCreateHash      000000014005b080     advapi32:ADVAPI32.dll
 0002:00000088       __imp_CryptHashData        000000014005b088     advapi32:ADVAPI32.dll
 0002:00000090       \177ADVAPI32_NULL_THUNK_DATA 000000014005b090     advapi32:ADVAPI32.dll
 0002:00000098       __imp_InitCommonControlsEx 000000014005b098     comctl32:COMCTL32.dll
 0002:000000a0       \177COMCTL32_NULL_THUNK_DATA 000000014005b0a0     comctl32:COMCTL32.dll
 0002:000000a8       __imp_DWriteCreateFactory  000000014005b0a8     Dwrite:DWrite.dll
 0002:000000b0       \177DWrite_NULL_THUNK_DATA 000000014005b0b0     Dwrite:DWrite.dll
 0002:000000b8       __imp_CreateHatchBrush     000000014005b0b8     gdi32:GDI32.dll
 0002:000000c0       __imp_CreatePen            000000014005b0c0     gdi32:GDI32.dll
 0002:000000c8       __imp_CreateSolidBrush     000000014005b0c8     gdi32:GDI32.dll
 0002:000000d0       __imp_DeleteDC             000000014005b0d0     gdi32:GDI32.dll
 0002:000000d8       __imp_DeleteObject         000000014005b0d8     gdi32:GDI32.dll
 0002:000000e0       __imp_Ellipse              000000014005b0e0     gdi32:GDI32.dll
 0002:000000e8       __imp_GetTextExtentPoint32W 000000014005b0e8     gdi32:GDI32.dll
 0002:000000f0       __imp_Rectangle            000000014005b0f0     gdi32:GDI32.dll
 0002:000000f8       __imp_SelectObject         000000014005b0f8     gdi32:GDI32.dll
 0002:00000100       __imp_StretchBlt           000000014005b100     gdi32:GDI32.dll
 0002:00000108       __imp_CreateDIBSection     000000014005b108     gdi32:GDI32.dll
 0002:00000110       __imp_GetDIBColorTable     000000014005b110     gdi32:GDI32.dll
 0002:00000118       __imp_GetObjectW           000000014005b118     gdi32:GDI32.dll
 0002:00000120       __imp_CreateFontIndirectW  000000014005b120     gdi32:GDI32.dll
 0002:00000128       __imp_AddFontResourceExW   000000014005b128     gdi32:GDI32.dll
 0002:00000130       __imp_RemoveFontResourceW  000000014005b130     gdi32:GDI32.dll
 0002:00000138       __imp_CreateRectRgnIndirect 000000014005b138     gdi32:GDI32.dll
 0002:00000140       __imp_StretchDIBits        000000014005b140     gdi32:GDI32.dll
 0002:00000148       __imp_CreateCompatibleDC   000000014005b148     gdi32:GDI32.dll
 0002:00000150       \177GDI32_NULL_THUNK_DATA  000000014005b150     gdi32:GDI32.dll
 0002:00000158       __imp_GetFileInformationByHandle 000000014005b158     kernel32:KERNEL32.dll
 0002:00000160       __imp_GetFileAttributesExW 000000014005b160     kernel32:KERNEL32.dll
 0002:00000168       __imp_FindFirstFileExW     000000014005b168     kernel32:KERNEL32.dll
 0002:00000170       __imp_FindClose            000000014005b170     kernel32:KERNEL32.dll
 0002:00000178       __imp_CreateFileW          000000014005b178     kernel32:KERNEL32.dll
 0002:00000180       __imp_AreFileApisANSI      000000014005b180     kernel32:KERNEL32.dll
 0002:00000188       __imp_CreateDirectoryW     000000014005b188     kernel32:KERNEL32.dll
 0002:00000190       __imp_LocalFree            000000014005b190     kernel32:KERNEL32.dll
 0002:00000198       __imp_OutputDebugStringW   000000014005b198     kernel32:KERNEL32.dll
 0002:000001a0       __imp_WideCharToMultiByte  000000014005b1a0     kernel32:KERNEL32.dll
 0002:000001a8       __imp_MultiByteToWideChar  000000014005b1a8     kernel32:KERNEL32.dll
 0002:000001b0       __imp_GetStartupInfoW      000000014005b1b0     kernel32:KERNEL32.dll
 0002:000001b8       __imp_IsDebuggerPresent    000000014005b1b8     kernel32:KERNEL32.dll
 0002:000001c0       __imp_InitializeSListHead  000000014005b1c0     kernel32:KERNEL32.dll
 0002:000001c8       __imp_GetSystemTimeAsFileTime 000000014005b1c8     kernel32:KERNEL32.dll
 0002:000001d0       __imp_GetCurrentThreadId   000000014005b1d0     kernel32:KERNEL32.dll
 0002:000001d8       __imp_QueryPerformanceCounter 000000014005b1d8     kernel32:KERNEL32.dll
 0002:000001e0       __imp_IsProcessorFeaturePresent 000000014005b1e0     kernel32:KERNEL32.dll
 0002:000001e8       __imp_GetCurrentProcess    000000014005b1e8     kernel32:KERNEL32.dll
 0002:000001f0       __imp_UnhandledExceptionFilter 000000014005b1f0     kernel32:KERNEL32.dll
 0002:000001f8       __imp_RtlVirtualUnwind     000000014005b1f8     kernel32:KERNEL32.dll
 0002:00000200       __imp_RtlLookupFunctionEntry 000000014005b200     kernel32:KERNEL32.dll
 0002:00000208       __imp_RtlCaptureContext    000000014005b208     kernel32:KERNEL32.dll
 0002:00000210       __imp_CreateEventW         000000014005b210     kernel32:KERNEL32.dll
 0002:00000218       __imp_WaitForSingleObjectEx 000000014005b218     kernel32:KERNEL32.dll
 0002:00000220       __imp_ResetEvent           000000014005b220     kernel32:KERNEL32.dll
 0002:00000228       __imp_SetEvent             000000014005b228     kernel32:KERNEL32.dll
 0002:00000230       __imp_SetLastError         000000014005b230     kernel32:KERNEL32.dll
 0002:00000238       __imp_LoadLibraryExA       000000014005b238     kernel32:KERNEL32.dll
 0002:00000240       __imp_FreeLibrary          000000014005b240     kernel32:KERNEL32.dll
 0002:00000248       __imp_VirtualQuery         000000014005b248     kernel32:KERNEL32.dll
 0002:00000250       __imp_VirtualProtect       000000014005b250     kernel32:KERNEL32.dll
 0002:00000258       __imp_GetSystemInfo        000000014005b258     kernel32:KERNEL32.dll
 0002:00000260       __imp_lstrlenW             000000014005b260     kernel32:KERNEL32.dll
 0002:00000268       __imp_OpenProcess          000000014005b268     kernel32:KERNEL32.dll
 0002:00000270       __imp_CreateProcessW       000000014005b270     kernel32:KERNEL32.dll
 0002:00000278       __imp_TerminateProcess     000000014005b278     kernel32:KERNEL32.dll
 0002:00000280       __imp_GetCurrentProcessId  000000014005b280     kernel32:KERNEL32.dll
 0002:00000288       __imp_CreateMutexW         000000014005b288     kernel32:KERNEL32.dll
 0002:00000290       __imp_WaitForSingleObject  000000014005b290     kernel32:KERNEL32.dll
 0002:00000298       __imp_ReleaseMutex         000000014005b298     kernel32:KERNEL32.dll
 0002:000002a0       __imp_GetTempPathW         000000014005b2a0     kernel32:KERNEL32.dll
 0002:000002a8       __imp_GetTempFileNameW     000000014005b2a8     kernel32:KERNEL32.dll
 0002:000002b0       __imp_GetShortPathNameW    000000014005b2b0     kernel32:KERNEL32.dll
 0002:000002b8       __imp_GetFullPathNameW     000000014005b2b8     kernel32:KERNEL32.dll
 0002:000002c0       __imp_GetFileAttributesW   000000014005b2c0     kernel32:KERNEL32.dll
 0002:000002c8       __imp_SetCurrentDirectoryW 000000014005b2c8     kernel32:KERNEL32.dll
 0002:000002d0       __imp_RaiseException       000000014005b2d0     kernel32:KERNEL32.dll
 0002:000002d8       __imp_WritePrivateProfileStringW 000000014005b2d8     kernel32:KERNEL32.dll
 0002:000002e0       __imp_GetPrivateProfileStringW 000000014005b2e0     kernel32:KERNEL32.dll
 0002:000002e8       __imp_GetPrivateProfileIntW 000000014005b2e8     kernel32:KERNEL32.dll
 0002:000002f0       __imp_GetProcAddress       000000014005b2f0     kernel32:KERNEL32.dll
 0002:000002f8       __imp_GetModuleHandleW     000000014005b2f8     kernel32:KERNEL32.dll
 0002:00000300       __imp_GetSystemTime        000000014005b300     kernel32:KERNEL32.dll
 0002:00000308       __imp_CreateThread         000000014005b308     kernel32:KERNEL32.dll
 0002:00000310       __imp_CloseHandle          000000014005b310     kernel32:KERNEL32.dll
 0002:00000318       __imp_SetErrorMode         000000014005b318     kernel32:KERNEL32.dll
 0002:00000320       __imp_SetUnhandledExceptionFilter 000000014005b320     kernel32:KERNEL32.dll
 0002:00000328       __imp_K32GetProcessMemoryInfo 000000014005b328     kernel32:KERNEL32.dll
 0002:00000330       __imp_Sleep                000000014005b330     kernel32:KERNEL32.dll
 0002:00000338       __imp_GetModuleFileNameW   000000014005b338     kernel32:KERNEL32.dll
 0002:00000340       __imp_GetTickCount64       000000014005b340     kernel32:KERNEL32.dll
 0002:00000348       __imp_DeleteCriticalSection 000000014005b348     kernel32:KERNEL32.dll
 0002:00000350       __imp_InitializeCriticalSectionEx 000000014005b350     kernel32:KERNEL32.dll
 0002:00000358       __imp_InitializeCriticalSectionAndSpinCount 000000014005b358     kernel32:KERNEL32.dll
 0002:00000360       __imp_LeaveCriticalSection 000000014005b360     kernel32:KERNEL32.dll
 0002:00000368       __imp_EnterCriticalSection 000000014005b368     kernel32:KERNEL32.dll
 0002:00000370       __imp_GetLastError         000000014005b370     kernel32:KERNEL32.dll
 0002:00000378       \177KERNEL32_NULL_THUNK_DATA 000000014005b378     kernel32:KERNEL32.dll
 0002:00000380       __imp_TransparentBlt       000000014005b380     msimg32:MSIMG32.dll
 0002:00000388       __imp_AlphaBlend           000000014005b388     msimg32:MSIMG32.dll
 0002:00000390       \177MSIMG32_NULL_THUNK_DATA 000000014005b390     msimg32:MSIMG32.dll
 0002:00000398       __imp_??1?$basic_ostream@DU?$char_traits@D@std@@@std@@UEAA@XZ 000000014005b398     msvcprt:MSVCP140.dll
 0002:000003a0       __imp_?write@?$basic_ostream@DU?$char_traits@D@std@@@std@@QEAAAEAV12@PEBD_J@Z 000000014005b3a0     msvcprt:MSVCP140.dll
 0002:000003a8       __imp_??1?$basic_ios@DU?$char_traits@D@std@@@std@@UEAA@XZ 000000014005b3a8     msvcprt:MSVCP140.dll
 0002:000003b0       __imp_??0?$basic_ostream@DU?$char_traits@D@std@@@std@@QEAA@PEAV?$basic_streambuf@DU?$char_traits@D@std@@@1@_N@Z 000000014005b3b0     msvcprt:MSVCP140.dll
 0002:000003b8       __imp_??0?$basic_ios@DU?$char_traits@D@std@@@std@@IEAA@XZ 000000014005b3b8     msvcprt:MSVCP140.dll
 0002:000003c0       __imp_?_Lock@?$basic_streambuf@DU?$char_traits@D@std@@@std@@UEAAXXZ 000000014005b3c0     msvcprt:MSVCP140.dll
 0002:000003c8       __imp_?_Unlock@?$basic_streambuf@DU?$char_traits@D@std@@@std@@UEAAXXZ 000000014005b3c8     msvcprt:MSVCP140.dll
 0002:000003d0       __imp_?imbue@?$basic_streambuf@DU?$char_traits@D@std@@@std@@MEAAXAEBVlocale@2@@Z 000000014005b3d0     msvcprt:MSVCP140.dll
 0002:000003d8       __imp_?setbuf@?$basic_streambuf@DU?$char_traits@D@std@@@std@@MEAAPEAV12@PEAD_J@Z 000000014005b3d8     msvcprt:MSVCP140.dll
 0002:000003e0       __imp_?showmanyc@?$basic_streambuf@DU?$char_traits@D@std@@@std@@MEAA_JXZ 000000014005b3e0     msvcprt:MSVCP140.dll
 0002:000003e8       __imp_?_Xlength_error@std@@YAXPEBD@Z 000000014005b3e8     msvcprt:MSVCP140.dll
 0002:000003f0       __imp__Mtx_init_in_situ    000000014005b3f0     msvcprt:MSVCP140.dll
 0002:000003f8       __imp__Mtx_destroy_in_situ 000000014005b3f8     msvcprt:MSVCP140.dll
 0002:00000400       __imp__Mtx_lock            000000014005b400     msvcprt:MSVCP140.dll
 0002:00000408       __imp__Mtx_unlock          000000014005b408     msvcprt:MSVCP140.dll
 0002:00000410       __imp_?_Throw_C_error@std@@YAXH@Z 000000014005b410     msvcprt:MSVCP140.dll
 0002:00000418       __imp_?_Xout_of_range@std@@YAXPEBD@Z 000000014005b418     msvcprt:MSVCP140.dll
 0002:00000420       __imp_??0?$basic_streambuf@DU?$char_traits@D@std@@@std@@IEAA@XZ 000000014005b420     msvcprt:MSVCP140.dll
 0002:00000428       __imp_??1?$basic_streambuf@DU?$char_traits@D@std@@@std@@UEAA@XZ 000000014005b428     msvcprt:MSVCP140.dll
 0002:00000430       __imp_?sync@?$basic_streambuf@DU?$char_traits@D@std@@@std@@MEAAHXZ 000000014005b430     msvcprt:MSVCP140.dll
 0002:00000438       __imp_?_Throw_Cpp_error@std@@YAXH@Z 000000014005b438     msvcprt:MSVCP140.dll
 0002:00000440       __imp__Cnd_do_broadcast_at_thread_exit 000000014005b440     msvcprt:MSVCP140.dll
 0002:00000448       __imp__Thrd_id             000000014005b448     msvcprt:MSVCP140.dll
 0002:00000450       __imp__Thrd_join           000000014005b450     msvcprt:MSVCP140.dll
 0002:00000458       __imp__Xtime_get_ticks     000000014005b458     msvcprt:MSVCP140.dll
 0002:00000460       __imp_?_Winerror_message@std@@YAKKPEADK@Z 000000014005b460     msvcprt:MSVCP140.dll
 0002:00000468       __imp_?_Winerror_map@std@@YAHH@Z 000000014005b468     msvcprt:MSVCP140.dll
 0002:00000470       __imp_?_Syserror_map@std@@YAPEBDH@Z 000000014005b470     msvcprt:MSVCP140.dll
 0002:00000478       __imp_?_Execute_once@std@@YAHAEAUonce_flag@1@P6AHPEAX1PEAPEAX@Z1@Z 000000014005b478     msvcprt:MSVCP140.dll
 0002:00000480       __imp_?xsputn@?$basic_streambuf@DU?$char_traits@D@std@@@std@@MEAA_JPEBD_J@Z 000000014005b480     msvcprt:MSVCP140.dll
 0002:00000488       __imp_?xsgetn@?$basic_streambuf@DU?$char_traits@D@std@@@std@@MEAA_JPEAD_J@Z 000000014005b488     msvcprt:MSVCP140.dll
 0002:00000490       __imp_?uflow@?$basic_streambuf@DU?$char_traits@D@std@@@std@@MEAAHXZ 000000014005b490     msvcprt:MSVCP140.dll
 0002:00000498       __imp_?_Pninc@?$basic_streambuf@DU?$char_traits@D@std@@@std@@IEAAPEADXZ 000000014005b498     msvcprt:MSVCP140.dll
 0002:000004a0       \177MSVCP140_NULL_THUNK_DATA 000000014005b4a0     msvcprt:MSVCP140.dll
 0002:000004a8       __imp_SysAllocStringByteLen 000000014005b4a8     oleaut32:OLEAUT32.dll
 0002:000004b0       __imp_SysStringLen         000000014005b4b0     oleaut32:OLEAUT32.dll
 0002:000004b8       __imp_SysFreeString        000000014005b4b8     oleaut32:OLEAUT32.dll
 0002:000004c0       __imp_SysAllocString       000000014005b4c0     oleaut32:OLEAUT32.dll
 0002:000004c8       __imp_VariantTimeToSystemTime 000000014005b4c8     oleaut32:OLEAUT32.dll
 0002:000004d0       __imp_VariantClear         000000014005b4d0     oleaut32:OLEAUT32.dll
 0002:000004d8       __imp_SystemTimeToVariantTime 000000014005b4d8     oleaut32:OLEAUT32.dll
 0002:000004e0       \177OLEAUT32_NULL_THUNK_DATA 000000014005b4e0     oleaut32:OLEAUT32.dll
 0002:000004e8       __imp_ShellExecuteW        000000014005b4e8     shell32:SHELL32.dll
 0002:000004f0       __imp_SHGetFolderPathW     000000014005b4f0     shell32:SHELL32.dll
 0002:000004f8       \177SHELL32_NULL_THUNK_DATA 000000014005b4f8     shell32:SHELL32.dll
 0002:00000500       __imp_PathAppendW          000000014005b500     shlwapi:SHLWAPI.dll
 0002:00000508       __imp_PathFileExistsW      000000014005b508     shlwapi:SHLWAPI.dll
 0002:00000510       __imp_PathFindExtensionW   000000014005b510     shlwapi:SHLWAPI.dll
 0002:00000518       \177SHLWAPI_NULL_THUNK_DATA 000000014005b518     shlwapi:SHLWAPI.dll
 0002:00000520       __imp_GetSystemMetrics     000000014005b520     user32:USER32.dll
 0002:00000528       __imp_RedrawWindow         000000014005b528     user32:USER32.dll
 0002:00000530       __imp_GetDC                000000014005b530     user32:USER32.dll
 0002:00000538       __imp_ReleaseDC            000000014005b538     user32:USER32.dll
 0002:00000540       __imp_PostMessageW         000000014005b540     user32:USER32.dll
 0002:00000548       __imp_GetWindowLongW       000000014005b548     user32:USER32.dll
 0002:00000550       __imp_GetDesktopWindow     000000014005b550     user32:USER32.dll
 0002:00000558       __imp_LoadImageW           000000014005b558     user32:USER32.dll
 0002:00000560       __imp_SetRectEmpty         000000014005b560     user32:USER32.dll
 0002:00000568       __imp_GetClassNameW        000000014005b568     user32:USER32.dll
 0002:00000570       __imp_IsWindow             000000014005b570     user32:USER32.dll
 0002:00000578       __imp_MessageBeep          000000014005b578     user32:USER32.dll
 0002:00000580       __imp_GetParent            000000014005b580     user32:USER32.dll
 0002:00000588       __imp_EnableWindow         000000014005b588     user32:USER32.dll
 0002:00000590       __imp_GetClientRect        000000014005b590     user32:USER32.dll
 0002:00000598       __imp_GetWindowRect        000000014005b598     user32:USER32.dll
 0002:000005a0       __imp_LockWindowUpdate     000000014005b5a0     user32:USER32.dll
 0002:000005a8       __imp_IsIconic             000000014005b5a8     user32:USER32.dll
 0002:000005b0       __imp_SendMessageW         000000014005b5b0     user32:USER32.dll
 0002:000005b8       __imp_SetTimer             000000014005b5b8     user32:USER32.dll
 0002:000005c0       __imp_GetSysColor          000000014005b5c0     user32:USER32.dll
 0002:000005c8       __imp_DestroyIcon          000000014005b5c8     user32:USER32.dll
 0002:000005d0       __imp_ClientToScreen       000000014005b5d0     user32:USER32.dll
 0002:000005d8       __imp_InvalidateRect       000000014005b5d8     user32:USER32.dll
 0002:000005e0       __imp_IsChild              000000014005b5e0     user32:USER32.dll
 0002:000005e8       __imp_LoadIconW            000000014005b5e8     user32:USER32.dll
 0002:000005f0       __imp_EqualRect            000000014005b5f0     user32:USER32.dll
 0002:000005f8       __imp_PtInRect             000000014005b5f8     user32:USER32.dll
 0002:00000600       __imp_GetCursorPos         000000014005b600     user32:USER32.dll
 0002:00000608       __imp_SetMenuItemInfoW     000000014005b608     user32:USER32.dll
 0002:00000610       __imp_CreatePopupMenu      000000014005b610     user32:USER32.dll
 0002:00000618       __imp_CreateMenu           000000014005b618     user32:USER32.dll
 0002:00000620       __imp_GetFocus             000000014005b620     user32:USER32.dll
 0002:00000628       __imp_IsWindowVisible      000000014005b628     user32:USER32.dll
 0002:00000630       __imp_FindWindowW          000000014005b630     user32:USER32.dll
 0002:00000638       __imp_GetKeyState          000000014005b638     user32:USER32.dll
 0002:00000640       __imp_UpdateWindow         000000014005b640     user32:USER32.dll
 0002:00000648       __imp_GetMenuItemInfoW     000000014005b648     user32:USER32.dll
 0002:00000650       __imp_RemoveMenu           000000014005b650     user32:USER32.dll
 0002:00000658       __imp_ModifyMenuW          000000014005b658     user32:USER32.dll
 0002:00000660       __imp_AppendMenuW          000000014005b660     user32:USER32.dll
 0002:00000668       __imp_GetMenuItemCount     000000014005b668     user32:USER32.dll
 0002:00000670       __imp_GetMenuItemID        000000014005b670     user32:USER32.dll
 0002:00000678       __imp_GetSubMenu           000000014005b678     user32:USER32.dll
 0002:00000680       __imp_GetSystemMenu        000000014005b680     user32:USER32.dll
 0002:00000688       __imp_SetWindowPos         000000014005b688     user32:USER32.dll
 0002:00000690       __imp_MoveWindow           000000014005b690     user32:USER32.dll
 0002:00000698       __imp_ShowWindow           000000014005b698     user32:USER32.dll
 0002:000006a0       __imp_SetParent            000000014005b6a0     user32:USER32.dll
 0002:000006a8       __imp_IsRectEmpty          000000014005b6a8     user32:USER32.dll
 0002:000006b0       __imp_InflateRect          000000014005b6b0     user32:USER32.dll
 0002:000006b8       __imp_FillRect             000000014005b6b8     user32:USER32.dll
 0002:000006c0       __imp_KillTimer            000000014005b6c0     user32:USER32.dll
 0002:000006c8       \177USER32_NULL_THUNK_DATA 000000014005b6c8     user32:USER32.dll
 0002:000006d0       __imp___C_specific_handler 000000014005b6d0     vcruntime:VCRUNTIME140.dll
 0002:000006d8       __imp___std_type_info_compare 000000014005b6d8     vcruntime:VCRUNTIME140.dll
 0002:000006e0       __imp___std_exception_destroy 000000014005b6e0     vcruntime:VCRUNTIME140.dll
 0002:000006e8       __imp___std_exception_copy 000000014005b6e8     vcruntime:VCRUNTIME140.dll
 0002:000006f0       __imp__purecall            000000014005b6f0     vcruntime:VCRUNTIME140.dll
 0002:000006f8       __imp_memset               000000014005b6f8     vcruntime:VCRUNTIME140.dll
 0002:00000700       __imp_memmove              000000014005b700     vcruntime:VCRUNTIME140.dll
 0002:00000708       __imp_memcpy               000000014005b708     vcruntime:VCRUNTIME140.dll
 0002:00000710       __imp___std_terminate      000000014005b710     vcruntime:VCRUNTIME140.dll
 0002:00000718       __imp___CxxFrameHandler3   000000014005b718     vcruntime:VCRUNTIME140.dll
 0002:00000720       __imp__CxxThrowException   000000014005b720     vcruntime:VCRUNTIME140.dll
 0002:00000728       \177VCRUNTIME140_NULL_THUNK_DATA 000000014005b728     vcruntime:VCRUNTIME140.dll
 0002:00000730       __imp_GetFileVersionInfoSizeW 000000014005b730     Version:VERSION.dll
 0002:00000738       __imp_VerQueryValueW       000000014005b738     Version:VERSION.dll
 0002:00000740       __imp_GetFileVersionInfoW  000000014005b740     Version:VERSION.dll
 0002:00000748       \177VERSION_NULL_THUNK_DATA 000000014005b748     Version:VERSION.dll
 0002:00000750       __imp_PlaySoundW           000000014005b750     Winmm:WINMM.dll
 0002:00000758       \177WINMM_NULL_THUNK_DATA  000000014005b758     Winmm:WINMM.dll
 0002:00000760       __imp_WSAStartup           000000014005b760     ws2_32:WS2_32.dll
 0002:00000768       \177WS2_32_NULL_THUNK_DATA 000000014005b768     ws2_32:WS2_32.dll
 0002:00000770       __imp__wtoi                000000014005b770     ucrt:api-ms-win-crt-convert-l1-1-0.dll
 0002:00000778       __imp_atof                 000000014005b778     ucrt:api-ms-win-crt-convert-l1-1-0.dll
 0002:00000780       __imp_atoi                 000000014005b780     ucrt:api-ms-win-crt-convert-l1-1-0.dll
 0002:00000788       __imp__wtof                000000014005b788     ucrt:api-ms-win-crt-convert-l1-1-0.dll
 0002:00000790       __imp__wtoi64              000000014005b790     ucrt:api-ms-win-crt-convert-l1-1-0.dll
 0002:00000798       \177api-ms-win-crt-convert-l1-1-0_NULL_THUNK_DATA 000000014005b798     ucrt:api-ms-win-crt-convert-l1-1-0.dll
 0002:000007a0       __imp_free                 000000014005b7a0     ucrt:api-ms-win-crt-heap-l1-1-0.dll
 0002:000007a8       __imp_malloc               000000014005b7a8     ucrt:api-ms-win-crt-heap-l1-1-0.dll
 0002:000007b0       __imp__set_new_mode        000000014005b7b0     ucrt:api-ms-win-crt-heap-l1-1-0.dll
 0002:000007b8       \177api-ms-win-crt-heap-l1-1-0_NULL_THUNK_DATA 000000014005b7b8     ucrt:api-ms-win-crt-heap-l1-1-0.dll
 0002:000007c0       __imp____lc_codepage_func  000000014005b7c0     ucrt:api-ms-win-crt-locale-l1-1-0.dll
 0002:000007c8       __imp_setlocale            000000014005b7c8     ucrt:api-ms-win-crt-locale-l1-1-0.dll
 0002:000007d0       __imp__configthreadlocale  000000014005b7d0     ucrt:api-ms-win-crt-locale-l1-1-0.dll
 0002:000007d8       \177api-ms-win-crt-locale-l1-1-0_NULL_THUNK_DATA 000000014005b7d8     ucrt:api-ms-win-crt-locale-l1-1-0.dll
 0002:000007e0       __imp_roundf               000000014005b7e0     ucrt:api-ms-win-crt-math-l1-1-0.dll
 0002:000007e8       __imp___setusermatherr     000000014005b7e8     ucrt:api-ms-win-crt-math-l1-1-0.dll
 0002:000007f0       \177api-ms-win-crt-math-l1-1-0_NULL_THUNK_DATA 000000014005b7f0     ucrt:api-ms-win-crt-math-l1-1-0.dll
 0002:000007f8       __imp__register_onexit_function 000000014005b7f8     ucrt:api-ms-win-crt-runtime-l1-1-0.dll
 0002:00000800       __imp__initialize_onexit_table 000000014005b800     ucrt:api-ms-win-crt-runtime-l1-1-0.dll
 0002:00000808       __imp__crt_atexit          000000014005b808     ucrt:api-ms-win-crt-runtime-l1-1-0.dll
 0002:00000810       __imp__register_thread_local_exe_atexit_callback 000000014005b810     ucrt:api-ms-win-crt-runtime-l1-1-0.dll
 0002:00000818       __imp__cexit               000000014005b818     ucrt:api-ms-win-crt-runtime-l1-1-0.dll
 0002:00000820       __imp__errno               000000014005b820     ucrt:api-ms-win-crt-runtime-l1-1-0.dll
 0002:00000828       __imp__exit                000000014005b828     ucrt:api-ms-win-crt-runtime-l1-1-0.dll
 0002:00000830       __imp_exit                 000000014005b830     ucrt:api-ms-win-crt-runtime-l1-1-0.dll
 0002:00000838       __imp__initterm_e          000000014005b838     ucrt:api-ms-win-crt-runtime-l1-1-0.dll
 0002:00000840       __imp__initterm            000000014005b840     ucrt:api-ms-win-crt-runtime-l1-1-0.dll
 0002:00000848       __imp__get_wide_winmain_command_line 000000014005b848     ucrt:api-ms-win-crt-runtime-l1-1-0.dll
 0002:00000850       __imp__initialize_wide_environment 000000014005b850     ucrt:api-ms-win-crt-runtime-l1-1-0.dll
 0002:00000858       __imp__configure_wide_argv 000000014005b858     ucrt:api-ms-win-crt-runtime-l1-1-0.dll
 0002:00000860       __imp__set_app_type        000000014005b860     ucrt:api-ms-win-crt-runtime-l1-1-0.dll
 0002:00000868       __imp__seh_filter_exe      000000014005b868     ucrt:api-ms-win-crt-runtime-l1-1-0.dll
 0002:00000870       __imp__invalid_parameter_noinfo 000000014005b870     ucrt:api-ms-win-crt-runtime-l1-1-0.dll
 0002:00000878       __imp__c_exit              000000014005b878     ucrt:api-ms-win-crt-runtime-l1-1-0.dll
 0002:00000880       __imp_terminate            000000014005b880     ucrt:api-ms-win-crt-runtime-l1-1-0.dll
 0002:00000888       __imp__beginthreadex       000000014005b888     ucrt:api-ms-win-crt-runtime-l1-1-0.dll
 0002:00000890       __imp__invalid_parameter_noinfo_noreturn 000000014005b890     ucrt:api-ms-win-crt-runtime-l1-1-0.dll
 0002:00000898       \177api-ms-win-crt-runtime-l1-1-0_NULL_THUNK_DATA 000000014005b898     ucrt:api-ms-win-crt-runtime-l1-1-0.dll
 0002:000008a0       __imp___stdio_common_vswprintf 000000014005b8a0     ucrt:api-ms-win-crt-stdio-l1-1-0.dll
 0002:000008a8       __imp___acrt_iob_func      000000014005b8a8     ucrt:api-ms-win-crt-stdio-l1-1-0.dll
 0002:000008b0       __imp___stdio_common_vsprintf_s 000000014005b8b0     ucrt:api-ms-win-crt-stdio-l1-1-0.dll
 0002:000008b8       __imp_fread                000000014005b8b8     ucrt:api-ms-win-crt-stdio-l1-1-0.dll
 0002:000008c0       __imp___stdio_common_vswprintf_s 000000014005b8c0     ucrt:api-ms-win-crt-stdio-l1-1-0.dll
 0002:000008c8       __imp_fseek                000000014005b8c8     ucrt:api-ms-win-crt-stdio-l1-1-0.dll
 0002:000008d0       __imp_ftell                000000014005b8d0     ucrt:api-ms-win-crt-stdio-l1-1-0.dll
 0002:000008d8       __imp___stdio_common_vswscanf 000000014005b8d8     ucrt:api-ms-win-crt-stdio-l1-1-0.dll
 0002:000008e0       __imp__wfopen_s            000000014005b8e0     ucrt:api-ms-win-crt-stdio-l1-1-0.dll
 0002:000008e8       __imp___stdio_common_vsnprintf_s 000000014005b8e8     ucrt:api-ms-win-crt-stdio-l1-1-0.dll
 0002:000008f0       __imp___stdio_common_vsnwprintf_s 000000014005b8f0     ucrt:api-ms-win-crt-stdio-l1-1-0.dll
 0002:000008f8       __imp_fclose               000000014005b8f8     ucrt:api-ms-win-crt-stdio-l1-1-0.dll
 0002:00000900       __imp___stdio_common_vsprintf 000000014005b900     ucrt:api-ms-win-crt-stdio-l1-1-0.dll
 0002:00000908       __imp__wfopen              000000014005b908     ucrt:api-ms-win-crt-stdio-l1-1-0.dll
 0002:00000910       __imp__set_fmode           000000014005b910     ucrt:api-ms-win-crt-stdio-l1-1-0.dll
 0002:00000918       __imp___p__commode         000000014005b918     ucrt:api-ms-win-crt-stdio-l1-1-0.dll
 0002:00000920       __imp___stdio_common_vfprintf_s 000000014005b920     ucrt:api-ms-win-crt-stdio-l1-1-0.dll
 0002:00000928       __imp___stdio_common_vfprintf 000000014005b928     ucrt:api-ms-win-crt-stdio-l1-1-0.dll
 0002:00000930       \177api-ms-win-crt-stdio-l1-1-0_NULL_THUNK_DATA 000000014005b930     ucrt:api-ms-win-crt-stdio-l1-1-0.dll
 0002:00000938       __imp_wcscpy_s             000000014005b938     ucrt:api-ms-win-crt-string-l1-1-0.dll
 0002:00000940       __imp_strcat_s             000000014005b940     ucrt:api-ms-win-crt-string-l1-1-0.dll
 0002:00000948       __imp_wcsncpy_s            000000014005b948     ucrt:api-ms-win-crt-string-l1-1-0.dll
 0002:00000950       \177api-ms-win-crt-string-l1-1-0_NULL_THUNK_DATA 000000014005b950     ucrt:api-ms-win-crt-string-l1-1-0.dll
 0002:00000958       __imp_strftime             000000014005b958     ucrt:api-ms-win-crt-time-l1-1-0.dll
 0002:00000960       __imp__localtime64         000000014005b960     ucrt:api-ms-win-crt-time-l1-1-0.dll
 0002:00000968       \177api-ms-win-crt-time-l1-1-0_NULL_THUNK_DATA 000000014005b968     ucrt:api-ms-win-crt-time-l1-1-0.dll
 0002:00000970       __imp_GdiplusShutdown      000000014005b970     gdiplus:gdiplus.dll
 0002:00000978       \177gdiplus_NULL_THUNK_DATA 000000014005b978     gdiplus:gdiplus.dll
 0002:00000980       __imp_?get_accRole@CBasePane@@UEAAJUtagVARIANT@@PEAU2@@Z 000000014005b980     mfc140u:mfc140u.dll
 0002:00000988       __imp_?get_accState@CBasePane@@UEAAJUtagVARIANT@@PEAU2@@Z 000000014005b988     mfc140u:mfc140u.dll
 0002:00000990       __imp_?get_accHelp@CBasePane@@UEAAJUtagVARIANT@@PEAPEA_W@Z 000000014005b990     mfc140u:mfc140u.dll
 0002:00000998       __imp_?get_accFocus@CBasePane@@UEAAJPEAUtagVARIANT@@@Z 000000014005b998     mfc140u:mfc140u.dll
 0002:000009a0       __imp_?get_accSelection@CBasePane@@UEAAJPEAUtagVARIANT@@@Z 000000014005b9a0     mfc140u:mfc140u.dll
 0002:000009a8       __imp_?get_accHelpTopic@CBasePane@@UEAAJPEAPEA_WUtagVARIANT@@PEAJ@Z 000000014005b9a8     mfc140u:mfc140u.dll
 0002:000009b0       __imp_?get_accKeyboardShortcut@CBasePane@@UEAAJUtagVARIANT@@PEAPEA_W@Z 000000014005b9b0     mfc140u:mfc140u.dll
 0002:000009b8       __imp_?get_accValue@CBasePane@@UEAAJUtagVARIANT@@PEAPEA_W@Z 000000014005b9b8     mfc140u:mfc140u.dll
 0002:000009c0       __imp_?get_accParent@CBasePane@@UEAAJPEAPEAUIDispatch@@@Z 000000014005b9c0     mfc140u:mfc140u.dll
 0002:000009c8       __imp_?get_accDefaultAction@CBasePane@@UEAAJUtagVARIANT@@PEAPEA_W@Z 000000014005b9c8     mfc140u:mfc140u.dll
 0002:000009d0       __imp_?accSelect@CBasePane@@UEAAJJUtagVARIANT@@@Z 000000014005b9d0     mfc140u:mfc140u.dll
 0002:000009d8       __imp_?accLocation@CBasePane@@UEAAJPEAJ000UtagVARIANT@@@Z 000000014005b9d8     mfc140u:mfc140u.dll
 0002:000009e0       __imp_?accHitTest@CBasePane@@UEAAJJJPEAUtagVARIANT@@@Z 000000014005b9e0     mfc140u:mfc140u.dll
 0002:000009e8       __imp_?WindowProc@CBasePane@@MEAA_JI_K_J@Z 000000014005b9e8     mfc140u:mfc140u.dll
 0002:000009f0       __imp_?DoPaint@CBasePane@@MEAAXPEAVCDC@@@Z 000000014005b9f0     mfc140u:mfc140u.dll
 0002:000009f8       __imp_?OnSize@CBasePane@@IEAAXIHH@Z 000000014005b9f8     mfc140u:mfc140u.dll
 0002:00000a00       __imp_?AdjustDockingLayout@CBasePane@@UEAAXPEAX@Z 000000014005ba00     mfc140u:mfc140u.dll
 0002:00000a08       __imp_?GetAvailableExpandSize@CPane@@UEBAHXZ 000000014005ba08     mfc140u:mfc140u.dll
 0002:00000a10       __imp_?GetAvailableStretchSize@CPane@@UEBAHXZ 000000014005ba10     mfc140u:mfc140u.dll
 0002:00000a18       __imp_?IsTabbed@CPane@@UEBAHXZ 000000014005ba18     mfc140u:mfc140u.dll
 0002:00000a20       __imp_?CopyState@CPane@@UEAAXPEAV1@@Z 000000014005ba20     mfc140u:mfc140u.dll
 0002:00000a28       __imp_?GetPaneName@CPane@@UEBAXAEAV?$CStringT@_WV?$StrTraitMFC_DLL@_WV?$ChTraitsCRT@_W@ATL@@@@@ATL@@@Z 000000014005ba28     mfc140u:mfc140u.dll
 0002:00000a30       __imp_?SetActiveInGroup@CPane@@UEAAXH@Z 000000014005ba30     mfc140u:mfc140u.dll
 0002:00000a38       __imp_?PrepareToDock@CPane@@UEAAXPEAVCDockSite@@W4AFX_DOCK_METHOD@@@Z 000000014005ba38     mfc140u:mfc140u.dll
 0002:00000a40       __imp_?DockPane@CPane@@UEAAHPEAVCBasePane@@PEBUtagRECT@@W4AFX_DOCK_METHOD@@@Z 000000014005ba40     mfc140u:mfc140u.dll
 0002:00000a48       __imp_?DockByMouse@CPane@@UEAAHPEAVCBasePane@@@Z 000000014005ba48     mfc140u:mfc140u.dll
 0002:00000a50       __imp_?FloatPane@CPane@@UEAAHVCRect@@W4AFX_DOCK_METHOD@@_N@Z 000000014005ba50     mfc140u:mfc140u.dll
 0002:00000a58       __imp_?MovePane@CPane@@UEAA?AVCSize@@VCRect@@HAEAPEAX@Z 000000014005ba58     mfc140u:mfc140u.dll
 0002:00000a60       __imp_?StretchPaneDeferWndPos@CPane@@UEAAHHAEAPEAX@Z 000000014005ba60     mfc140u:mfc140u.dll
 0002:00000a68       __imp_?CreateDefaultMiniframe@CPane@@UEAAPEAVCPaneFrameWnd@@VCRect@@@Z 000000014005ba68     mfc140u:mfc140u.dll
 0002:00000a70       __imp_?SetDockState@CPane@@UEAAXPEAVCDockingManager@@@Z 000000014005ba70     mfc140u:mfc140u.dll
 0002:00000a78       __imp_?OnProcessDblClk@CPane@@UEAAXXZ 000000014005ba78     mfc140u:mfc140u.dll
 0002:00000a80       __imp_?OnAfterFloat@CPane@@UEAAXXZ 000000014005ba80     mfc140u:mfc140u.dll
 0002:00000a88       __imp_?Create@CPane@@UEAAHPEB_WKAEBUtagRECT@@PEAVCWnd@@IKPEAUCCreateContext@@@Z 000000014005ba88     mfc140u:mfc140u.dll
 0002:00000a90       __imp_?CreateEx@CPane@@UEAAHKPEB_WKAEBUtagRECT@@PEAVCWnd@@IKPEAUCCreateContext@@@Z 000000014005ba90     mfc140u:mfc140u.dll
 0002:00000a98       __imp_?RecalcLayout@CPane@@UEAAXXZ 000000014005ba98     mfc140u:mfc140u.dll
 0002:00000aa0       __imp_?CalcAvailableSize@CPane@@UEAA?AVCSize@@VCRect@@@Z 000000014005baa0     mfc140u:mfc140u.dll
 0002:00000aa8       __imp_?AdjustSizeImmediate@CPane@@UEAAXH@Z 000000014005baa8     mfc140u:mfc140u.dll
 0002:00000ab0       __imp_?CanBeTabbedDocument@CPane@@UEBAHXZ 000000014005bab0     mfc140u:mfc140u.dll
 0002:00000ab8       __imp_?OnShowControlBarMenu@CPane@@UEAAHVCPoint@@@Z 000000014005bab8     mfc140u:mfc140u.dll
 0002:00000ac0       __imp_?OnBeforeDock@CPane@@MEAAHPEAPEAVCBasePane@@PEBUtagRECT@@W4AFX_DOCK_METHOD@@@Z 000000014005bac0     mfc140u:mfc140u.dll
 0002:00000ac8       __imp_?RemoveFromMiniframe@CPane@@MEAAXPEAVCWnd@@W4AFX_DOCK_METHOD@@@Z 000000014005bac8     mfc140u:mfc140u.dll
 0002:00000ad0       __imp_?SetDragMode@CPane@@MEAAXH@Z 000000014005bad0     mfc140u:mfc140u.dll
 0002:00000ad8       __imp_?OnRTLChanged@CPane@@MEAAXH@Z 000000014005bad8     mfc140u:mfc140u.dll
 0002:00000ae0       __imp_?GetThisClass@CDockablePane@@SAPEAUCRuntimeClass@@XZ 000000014005bae0     mfc140u:mfc140u.dll
 0002:00000ae8       __imp_?Create@CDockablePane@@UEAAHPEB_WPEAVCWnd@@AEBUtagRECT@@HIKKKPEAUCCreateContext@@@Z 000000014005bae8     mfc140u:mfc140u.dll
 0002:00000af0       __imp_?CreateEx@CDockablePane@@UEAAHKPEB_WPEAVCWnd@@AEBUtagRECT@@HIKKKPEAUCCreateContext@@@Z 000000014005baf0     mfc140u:mfc140u.dll
 0002:00000af8       __imp_?PreTranslateMessage@CDockablePane@@UEAAHPEAUtagMSG@@@Z 000000014005baf8     mfc140u:mfc140u.dll
 0002:00000b00       __imp_?Create@CDockablePane@@UEAAHPEB_WPEAVCWnd@@VCSize@@HIKKK@Z 000000014005bb00     mfc140u:mfc140u.dll
 0002:00000b08       __imp_?OnUpdateCmdUI@CDockablePane@@UEAAXPEAVCFrameWnd@@H@Z 000000014005bb08     mfc140u:mfc140u.dll
 0002:00000b10       __imp_?IsDocked@CDockablePane@@UEBAHXZ 000000014005bb10     mfc140u:mfc140u.dll
 0002:00000b18       __imp_?GetCaptionHeight@CDockablePane@@UEBAHXZ 000000014005bb18     mfc140u:mfc140u.dll
 0002:00000b20       __imp_?OnBeforeChangeParent@CDockablePane@@UEAAXPEAVCWnd@@H@Z 000000014005bb20     mfc140u:mfc140u.dll
 0002:00000b28       __imp_?OnAfterChangeParent@CDockablePane@@UEAAXPEAVCWnd@@@Z 000000014005bb28     mfc140u:mfc140u.dll
 0002:00000b30       __imp_?CalcFixedLayout@CDockablePane@@UEAA?AVCSize@@HH@Z 000000014005bb30     mfc140u:mfc140u.dll
 0002:00000b38       __imp_?HitTest@CDockablePane@@UEAAHVCPoint@@H@Z 000000014005bb38     mfc140u:mfc140u.dll
 0002:00000b40       __imp_?IsInFloatingMultiPaneFrameWnd@CDockablePane@@UEBAHXZ 000000014005bb40     mfc140u:mfc140u.dll
 0002:00000b48       __imp_?CanAcceptMiniFrame@CDockablePane@@UEBAHPEAVCPaneFrameWnd@@@Z 000000014005bb48     mfc140u:mfc140u.dll
 0002:00000b50       __imp_?IsVisible@CDockablePane@@UEBAHXZ 000000014005bb50     mfc140u:mfc140u.dll
 0002:00000b58       __imp_?Slide@CDockablePane@@UEAAXHH@Z 000000014005bb58     mfc140u:mfc140u.dll
 0002:00000b60       __imp_?ToggleAutoHide@CDockablePane@@UEAAXXZ 000000014005bb60     mfc140u:mfc140u.dll
 0002:00000b68       __imp_?DockPaneStandard@CDockablePane@@UEAAPEAVCPane@@AEAH@Z 000000014005bb68     mfc140u:mfc140u.dll
 0002:00000b70       __imp_?IsChangeState@CDockablePane@@UEBA?AW4AFX_CS_STATUS@@HPEAPEAVCBasePane@@@Z 000000014005bb70     mfc140u:mfc140u.dll
 0002:00000b78       __imp_?GetDockingStatus@CDockablePane@@UEAA?AW4AFX_CS_STATUS@@VCPoint@@H@Z 000000014005bb78     mfc140u:mfc140u.dll
 0002:00000b80       __imp_?DockToFrameWindow@CDockablePane@@UEAAHKPEBUtagRECT@@KPEAVCBasePane@@HH@Z 000000014005bb80     mfc140u:mfc140u.dll
 0002:00000b88       __imp_?DockToWindow@CDockablePane@@UEAAHPEAV1@KPEBUtagRECT@@@Z 000000014005bb88     mfc140u:mfc140u.dll
 0002:00000b90       __imp_?DockPaneContainer@CDockablePane@@UEAAHAEAVCPaneContainerManager@@KW4AFX_DOCK_METHOD@@@Z 000000014005bb90     mfc140u:mfc140u.dll
 0002:00000b98       __imp_?UndockPane@CDockablePane@@UEAAXH@Z 000000014005bb98     mfc140u:mfc140u.dll
 0002:00000ba0       __imp_?UnSetAutoHideMode@CDockablePane@@UEAAXPEAV1@@Z 000000014005bba0     mfc140u:mfc140u.dll
 0002:00000ba8       __imp_?ShowPane@CDockablePane@@UEAAXHHH@Z 000000014005bba8     mfc140u:mfc140u.dll
 0002:00000bb0       __imp_?EnableGripper@CDockablePane@@UEAAXH@Z 000000014005bbb0     mfc140u:mfc140u.dll
 0002:00000bb8       __imp_?SetAutoHideMode@CDockablePane@@UEAAPEAVCMFCAutoHideBar@@HKPEAV2@H@Z 000000014005bbb8     mfc140u:mfc140u.dll
 0002:00000bc0       __imp_?Serialize@CDockablePane@@UEAAXAEAVCArchive@@@Z 000000014005bbc0     mfc140u:mfc140u.dll
 0002:00000bc8       __imp_?CopyState@CDockablePane@@UEAAXPEAV1@@Z 000000014005bbc8     mfc140u:mfc140u.dll
 0002:00000bd0       __imp_?OnBeforeFloat@CDockablePane@@UEAAHAEAVCRect@@W4AFX_DOCK_METHOD@@@Z 000000014005bbd0     mfc140u:mfc140u.dll
 0002:00000bd8       __imp_?ConvertToTabbedDocument@CDockablePane@@UEAAXH@Z 000000014005bbd8     mfc140u:mfc140u.dll
 0002:00000be0       __imp_?OnClose@CDockablePane@@IEAAXXZ 000000014005bbe0     mfc140u:mfc140u.dll
 0002:00000be8       __imp_?OnCreate@CDockablePane@@IEAAHPEAUtagCREATESTRUCTW@@@Z 000000014005bbe8     mfc140u:mfc140u.dll
 0002:00000bf0       __imp_?OnDestroy@CDockablePane@@IEAAXXZ 000000014005bbf0     mfc140u:mfc140u.dll
 0002:00000bf8       __imp_?OnSettingChange@CDockablePane@@IEAAXIPEB_W@Z 000000014005bbf8     mfc140u:mfc140u.dll
 0002:00000c00       __imp_?OnSetFocus@CDockablePane@@IEAAXPEAVCWnd@@@Z 000000014005bc00     mfc140u:mfc140u.dll
 0002:00000c08       __imp_?Dock@CDockablePane@@MEAAHPEAVCBasePane@@PEBUtagRECT@@W4AFX_DOCK_METHOD@@@Z 000000014005bc08     mfc140u:mfc140u.dll
 0002:00000c10       __imp_?OnDrawDragRect@CDockablePane@@MEAAXPEBUtagRECT@@0@Z 000000014005bc10     mfc140u:mfc140u.dll
 0002:00000c18       __imp_?OnAfterDock@CDockablePane@@MEAAXPEAVCBasePane@@PEBUtagRECT@@W4AFX_DOCK_METHOD@@@Z 000000014005bc18     mfc140u:mfc140u.dll
 0002:00000c20       __imp_?EnterDragMode@CDockablePane@@MEAAXH@Z 000000014005bc20     mfc140u:mfc140u.dll
 0002:00000c28       __imp_?StoreRecentDockSiteInfo@CDockablePane@@MEAAXXZ 000000014005bc28     mfc140u:mfc140u.dll
 0002:00000c30       __imp_?StoreRecentTabRelatedInfo@CDockablePane@@MEAAXXZ 000000014005bc30     mfc140u:mfc140u.dll
 0002:00000c38       __imp_?OnPressCloseButton@CDockablePane@@MEAAXXZ 000000014005bc38     mfc140u:mfc140u.dll
 0002:00000c40       __imp_?DrawCaption@CDockablePane@@MEAAXPEAVCDC@@VCRect@@@Z 000000014005bc40     mfc140u:mfc140u.dll
 0002:00000c48       __imp_?AdjustPaneToPaneContainer@CDockablePane@@MEAAXPEAVCPaneDivider@@@Z 000000014005bc48     mfc140u:mfc140u.dll
 0002:00000c50       __imp_?OnTrackCaptionButtons@CDockablePane@@MEAAXVCPoint@@@Z 000000014005bc50     mfc140u:mfc140u.dll
 0002:00000c58       __imp_?StopCaptionButtonsTracking@CDockablePane@@MEAAXXZ 000000014005bc58     mfc140u:mfc140u.dll
 0002:00000c60       __imp_?SetCaptionButtons@CDockablePane@@MEAAXXZ 000000014005bc60     mfc140u:mfc140u.dll
 0002:00000c68       __imp_?CheckAutoHideCondition@CDockablePane@@MEAAHXZ 000000014005bc68     mfc140u:mfc140u.dll
 0002:00000c70       __imp_?CheckStopSlideCondition@CDockablePane@@MEAAHH@Z 000000014005bc70     mfc140u:mfc140u.dll
 0002:00000c78       __imp_?OnSlide@CDockablePane@@MEAAXH@Z 000000014005bc78     mfc140u:mfc140u.dll
 0002:00000c80       __imp_?afxGlobalData@@3UAFX_GLOBAL_DATA@@A 000000014005bc80     mfc140u:mfc140u.dll
 0002:00000c88       __imp_?m_bHideInAutoHideMode@CDockablePane@@2HA 000000014005bc88     mfc140u:mfc140u.dll
 0002:00000c90       __imp_?m_bTabsAlwaysTop@CTabbedPane@@2HA 000000014005bc90     mfc140u:mfc140u.dll
 0002:00000c98       __imp_?AfxDynamicDownCast@@YAPEAVCObject@@PEAUCRuntimeClass@@PEAV1@@Z 000000014005bc98     mfc140u:mfc140u.dll
 0002:00000ca0       __imp_?AfxGetThread@@YAPEAVCWinThread@@XZ 000000014005bca0     mfc140u:mfc140u.dll
 0002:00000ca8       __imp_?Initialize@AFX_GLOBAL_DATA@@QEAAXXZ 000000014005bca8     mfc140u:mfc140u.dll
 0002:00000cb0       __imp_?GetParentTabbedPane@CBasePane@@QEBAPEAVCBaseTabbedPane@@XZ 000000014005bcb0     mfc140u:mfc140u.dll
 0002:00000cb8       __imp_?OnEraseBkgnd@CBasePane@@IEAAHPEAVCDC@@@Z 000000014005bcb8     mfc140u:mfc140u.dll
 0002:00000cc0       __imp_??0CDockablePane@@QEAA@XZ 000000014005bcc0     mfc140u:mfc140u.dll
 0002:00000cc8       __imp_??1CDockablePane@@UEAA@XZ 000000014005bcc8     mfc140u:mfc140u.dll
 0002:00000cd0       __imp_?LoadState@CDockablePane@@UEAAHPEB_WHI@Z 000000014005bcd0     mfc140u:mfc140u.dll
 0002:00000cd8       __imp_?SaveState@CDockablePane@@UEAAHPEB_WHI@Z 000000014005bcd8     mfc140u:mfc140u.dll
 0002:00000ce0       __imp_?AttachToTabWnd@CDockablePane@@UEAAPEAV1@PEAV1@W4AFX_DOCK_METHOD@@HPEAPEAV1@@Z 000000014005bce0     mfc140u:mfc140u.dll
 0002:00000ce8       __imp_?CreateTabbedPane@CDockablePane@@UEAAPEAVCTabbedPane@@XZ 000000014005bce8     mfc140u:mfc140u.dll
 0002:00000cf0       __imp_?OnTimer@CDockablePane@@IEAAX_K@Z 000000014005bcf0     mfc140u:mfc140u.dll
 0002:00000cf8       __imp_?GetThisMessageMap@CDockablePane@@KAPEBUAFX_MSGMAP@@XZ 000000014005bcf8     mfc140u:mfc140u.dll
 0002:00000d00       __imp_?GetThisClass@CMFCTabCtrl@@SAPEAUCRuntimeClass@@XZ 000000014005bd00     mfc140u:mfc140u.dll
 0002:00000d08       __imp_?GetThisClass@CTabbedPane@@SAPEAUCRuntimeClass@@XZ 000000014005bd08     mfc140u:mfc140u.dll
 0002:00000d10       __imp_??0CBrush@@QEAA@K@Z  000000014005bd10     mfc140u:mfc140u.dll
 0002:00000d18       __imp_?GetRuntimeClass@CRgn@@UEBAPEAUCRuntimeClass@@XZ 000000014005bd18     mfc140u:mfc140u.dll
 0002:00000d20       __imp_?SelectClipRgn@CDC@@QEAAHPEAVCRgn@@@Z 000000014005bd20     mfc140u:mfc140u.dll
 0002:00000d28       __imp_?MoveTo@CDC@@QEAA?AVCPoint@@HH@Z 000000014005bd28     mfc140u:mfc140u.dll
 0002:00000d30       __imp_?LineTo@CDC@@QEAAHHH@Z 000000014005bd30     mfc140u:mfc140u.dll
 0002:00000d38       __imp_?Draw3dRect@CDC@@QEAAXPEBUtagRECT@@KK@Z 000000014005bd38     mfc140u:mfc140u.dll
 0002:00000d40       __imp_?SetWindowPos@CWnd@@QEAAHPEBV1@HHHHI@Z 000000014005bd40     mfc140u:mfc140u.dll
 0002:00000d48       __imp_?GetScrollPos@CWnd@@QEBAHH@Z 000000014005bd48     mfc140u:mfc140u.dll
 0002:00000d50       __imp_?GetScrollRange@CWnd@@QEBAXHPEAH0@Z 000000014005bd50     mfc140u:mfc140u.dll
 0002:00000d58       __imp_?SetScrollPos@CWnd@@QEAAHHHH@Z 000000014005bd58     mfc140u:mfc140u.dll
 0002:00000d60       __imp_?SetScrollRange@CWnd@@QEAAXHHHH@Z 000000014005bd60     mfc140u:mfc140u.dll
 0002:00000d68       __imp_?OnHScroll@CWnd@@IEAAXIIPEAVCScrollBar@@@Z 000000014005bd68     mfc140u:mfc140u.dll
 0002:00000d70       __imp_?GetRuntimeClass@CButton@@UEBAPEAUCRuntimeClass@@XZ 000000014005bd70     mfc140u:mfc140u.dll
 0002:00000d78       __imp_?Create@CButton@@UEAAHPEB_WKAEBUtagRECT@@PEAVCWnd@@I@Z 000000014005bd78     mfc140u:mfc140u.dll
 0002:00000d80       __imp_?DrawItem@CButton@@UEAAXPEAUtagDRAWITEMSTRUCT@@@Z 000000014005bd80     mfc140u:mfc140u.dll
 0002:00000d88       __imp_??1CButton@@UEAA@XZ  000000014005bd88     mfc140u:mfc140u.dll
 0002:00000d90       __imp_?OnChildNotify@CButton@@MEAAHI_K_JPEA_J@Z 000000014005bd90     mfc140u:mfc140u.dll
 0002:00000d98       __imp_??0COleVariant@@QEAA@AEBUtagVARIANT@@@Z 000000014005bd98     mfc140u:mfc140u.dll
 0002:00000da0       __imp_??0COleVariant@@QEAA@JG@Z 000000014005bda0     mfc140u:mfc140u.dll
 0002:00000da8       __imp_??4COleVariant@@QEAAAEBV0@AEBV0@@Z 000000014005bda8     mfc140u:mfc140u.dll
 0002:00000db0       __imp_?GetRuntimeClass@CMFCPropertyGridProperty@@UEBAPEAUCRuntimeClass@@XZ 000000014005bdb0     mfc140u:mfc140u.dll
 0002:00000db8       __imp_??0CMFCPropertyGridProperty@@QEAA@AEBV?$CStringT@_WV?$StrTraitMFC_DLL@_WV?$ChTraitsCRT@_W@ATL@@@@@ATL@@_KH@Z 000000014005bdb8     mfc140u:mfc140u.dll
 0002:00000dc0       __imp_??0CMFCPropertyGridProperty@@QEAA@AEBV?$CStringT@_WV?$StrTraitMFC_DLL@_WV?$ChTraitsCRT@_W@ATL@@@@@ATL@@AEBVCOleVariant@@PEB_W_K222@Z 000000014005bdc0     mfc140u:mfc140u.dll
 0002:00000dc8       __imp_??1CMFCPropertyGridProperty@@UEAA@XZ 000000014005bdc8     mfc140u:mfc140u.dll
 0002:00000dd0       __imp_?AddSubItem@CMFCPropertyGridProperty@@QEAAHPEAV1@@Z 000000014005bdd0     mfc140u:mfc140u.dll
 0002:00000dd8       __imp_?AddOption@CMFCPropertyGridProperty@@QEAAHPEB_WH@Z 000000014005bdd8     mfc140u:mfc140u.dll
 0002:00000de0       __imp_?Expand@CMFCPropertyGridProperty@@QEAAXH@Z 000000014005bde0     mfc140u:mfc140u.dll
 0002:00000de8       __imp_?ResetOriginalValue@CMFCPropertyGridProperty@@UEAAXXZ 000000014005bde8     mfc140u:mfc140u.dll
 0002:00000df0       __imp_?Show@CMFCPropertyGridProperty@@QEAAXHH@Z 000000014005bdf0     mfc140u:mfc140u.dll
 0002:00000df8       __imp_?OnDrawExpandBox@CMFCPropertyGridProperty@@UEAAXPEAVCDC@@VCRect@@@Z 000000014005bdf8     mfc140u:mfc140u.dll
 0002:00000e00       __imp_?OnDrawButton@CMFCPropertyGridProperty@@UEAAXPEAVCDC@@VCRect@@@Z 000000014005be00     mfc140u:mfc140u.dll
 0002:00000e08       __imp_?OnDrawDescription@CMFCPropertyGridProperty@@UEAAXPEAVCDC@@VCRect@@@Z 000000014005be08     mfc140u:mfc140u.dll
 0002:00000e10       __imp_?FormatProperty@CMFCPropertyGridProperty@@UEAA?AV?$CStringT@_WV?$StrTraitMFC_DLL@_WV?$ChTraitsCRT@_W@ATL@@@@@ATL@@XZ 000000014005be10     mfc140u:mfc140u.dll
 0002:00000e18       __imp_?OnUpdateValue@CMFCPropertyGridProperty@@UEAAHXZ 000000014005be18     mfc140u:mfc140u.dll
 0002:00000e20       __imp_?OnEdit@CMFCPropertyGridProperty@@UEAAHPEAUtagPOINT@@@Z 000000014005be20     mfc140u:mfc140u.dll
 0002:00000e28       __imp_?CreateInPlaceEdit@CMFCPropertyGridProperty@@UEAAPEAVCWnd@@VCRect@@AEAH@Z 000000014005be28     mfc140u:mfc140u.dll
 0002:00000e30       __imp_?CreateSpinControl@CMFCPropertyGridProperty@@UEAAPEAVCSpinButtonCtrl@@VCRect@@@Z 000000014005be30     mfc140u:mfc140u.dll
 0002:00000e38       __imp_?OnEndEdit@CMFCPropertyGridProperty@@UEAAHXZ 000000014005be38     mfc140u:mfc140u.dll
 0002:00000e40       __imp_?OnClickButton@CMFCPropertyGridProperty@@UEAAXVCPoint@@@Z 000000014005be40     mfc140u:mfc140u.dll
 0002:00000e48       __imp_?OnClickValue@CMFCPropertyGridProperty@@UEAAHIVCPoint@@@Z 000000014005be48     mfc140u:mfc140u.dll
 0002:00000e50       __imp_?OnDblClk@CMFCPropertyGridProperty@@UEAAHVCPoint@@@Z 000000014005be50     mfc140u:mfc140u.dll
 0002:00000e58       __imp_?OnSelectCombo@CMFCPropertyGridProperty@@UEAAXXZ 000000014005be58     mfc140u:mfc140u.dll
 0002:00000e60       __imp_?OnCloseCombo@CMFCPropertyGridProperty@@UEAAXXZ 000000014005be60     mfc140u:mfc140u.dll
 0002:00000e68       __imp_?OnSetCursor@CMFCPropertyGridProperty@@UEBAHXZ 000000014005be68     mfc140u:mfc140u.dll
 0002:00000e70       __imp_?PushChar@CMFCPropertyGridProperty@@UEAAHI@Z 000000014005be70     mfc140u:mfc140u.dll
 0002:00000e78       __imp_?GetNameTooltip@CMFCPropertyGridProperty@@UEAA?AV?$CStringT@_WV?$StrTraitMFC_DLL@_WV?$ChTraitsCRT@_W@ATL@@@@@ATL@@XZ 000000014005be78     mfc140u:mfc140u.dll
 0002:00000e80       __imp_?GetValueTooltip@CMFCPropertyGridProperty@@UEAA?AV?$CStringT@_WV?$StrTraitMFC_DLL@_WV?$ChTraitsCRT@_W@ATL@@@@@ATL@@XZ 000000014005be80     mfc140u:mfc140u.dll
 0002:00000e88       __imp_?AdjustButtonRect@CMFCPropertyGridProperty@@UEAAXXZ 000000014005be88     mfc140u:mfc140u.dll
 0002:00000e90       __imp_?AdjustInPlaceEditRect@CMFCPropertyGridProperty@@UEAAXAEAVCRect@@0@Z 000000014005be90     mfc140u:mfc140u.dll
 0002:00000e98       __imp_?OnCtlColor@CMFCPropertyGridProperty@@MEAAPEAUHBRUSH__@@PEAVCDC@@I@Z 000000014005be98     mfc140u:mfc140u.dll
 0002:00000ea0       __imp_?CreateCombo@CMFCPropertyGridProperty@@MEAAPEAVCComboBox@@PEAVCWnd@@VCRect@@@Z 000000014005bea0     mfc140u:mfc140u.dll
 0002:00000ea8       __imp_?OnDestroyWindow@CMFCPropertyGridProperty@@MEAAXXZ 000000014005bea8     mfc140u:mfc140u.dll
 0002:00000eb0       __imp_?HasButton@CMFCPropertyGridProperty@@MEBAHXZ 000000014005beb0     mfc140u:mfc140u.dll
 0002:00000eb8       __imp_?TextToVar@CMFCPropertyGridProperty@@MEAAHAEBV?$CStringT@_WV?$StrTraitMFC_DLL@_WV?$ChTraitsCRT@_W@ATL@@@@@ATL@@@Z 000000014005beb8     mfc140u:mfc140u.dll
 0002:00000ec0       __imp_?IsValueChanged@CMFCPropertyGridProperty@@MEBAHXZ 000000014005bec0     mfc140u:mfc140u.dll
 0002:00000ec8       __imp_?OnActivateByTab@CMFCPropertyGridProperty@@MEAAHXZ 000000014005bec8     mfc140u:mfc140u.dll
 0002:00000ed0       __imp_?OnRotateListValue@CMFCPropertyGridProperty@@MEAAHH@Z 000000014005bed0     mfc140u:mfc140u.dll
 0002:00000ed8       __imp_?SetName@CMFCPropertyGridProperty@@QEAAXPEB_WH@Z 000000014005bed8     mfc140u:mfc140u.dll
 0002:00000ee0       __imp_?SetValue@CMFCPropertyGridProperty@@UEAAXAEBVCOleVariant@@@Z 000000014005bee0     mfc140u:mfc140u.dll
 0002:00000ee8       __imp_?SetOriginalValue@CMFCPropertyGridProperty@@UEAAXAEBVCOleVariant@@@Z 000000014005bee8     mfc140u:mfc140u.dll
 0002:00000ef0       __imp_?IsSelected@CMFCPropertyGridProperty@@UEBAHXZ 000000014005bef0     mfc140u:mfc140u.dll
 0002:00000ef8       __imp_?GetSubItem@CMFCPropertyGridProperty@@QEBAPEAV1@H@Z 000000014005bef8     mfc140u:mfc140u.dll
 0002:00000f00       __imp_??0CMFCPropertyGridFileProperty@@QEAA@AEBV?$CStringT@_WV?$StrTraitMFC_DLL@_WV?$ChTraitsCRT@_W@ATL@@@@@ATL@@0_KPEB_W@Z 000000014005bf00     mfc140u:mfc140u.dll
 0002:00000f08       __imp_??0CMFCPropertyGridFileProperty@@QEAA@AEBV?$CStringT@_WV?$StrTraitMFC_DLL@_WV?$ChTraitsCRT@_W@ATL@@@@@ATL@@H0PEB_WK11_K@Z 000000014005bf08     mfc140u:mfc140u.dll
 0002:00000f10       __imp_?GetRuntimeClass@CMFCPropertyGridCtrl@@UEBAPEAUCRuntimeClass@@XZ 000000014005bf10     mfc140u:mfc140u.dll
 0002:00000f18       __imp_??0CMFCPropertyGridCtrl@@QEAA@XZ 000000014005bf18     mfc140u:mfc140u.dll
 0002:00000f20       __imp_?EnableHeaderCtrl@CMFCPropertyGridCtrl@@QEAAXHPEB_W0@Z 000000014005bf20     mfc140u:mfc140u.dll
 0002:00000f28       __imp_?EnableDescriptionArea@CMFCPropertyGridCtrl@@QEAAXH@Z 000000014005bf28     mfc140u:mfc140u.dll
 0002:00000f30       __imp_?SetAlphabeticMode@CMFCPropertyGridCtrl@@QEAAXH@Z 000000014005bf30     mfc140u:mfc140u.dll
 0002:00000f38       __imp_?SetVSDotNetLook@CMFCPropertyGridCtrl@@QEAAXH@Z 000000014005bf38     mfc140u:mfc140u.dll
 0002:00000f40       __imp_?MarkModifiedProperties@CMFCPropertyGridCtrl@@QEAAXHH@Z 000000014005bf40     mfc140u:mfc140u.dll
 0002:00000f48       __imp_?SetBoolLabels@CMFCPropertyGridCtrl@@QEAAXPEB_W0@Z 000000014005bf48     mfc140u:mfc140u.dll
 0002:00000f50       __imp_?SetGroupNameFullWidth@CMFCPropertyGridCtrl@@QEAAXHH@Z 000000014005bf50     mfc140u:mfc140u.dll
 0002:00000f58       __imp_?SetCustomColors@CMFCPropertyGridCtrl@@QEAAXKKKKKKK@Z 000000014005bf58     mfc140u:mfc140u.dll
 0002:00000f60       __imp_?GetCustomColors@CMFCPropertyGridCtrl@@QEAAXAEAK000000@Z 000000014005bf60     mfc140u:mfc140u.dll
 0002:00000f68       __imp_?AddProperty@CMFCPropertyGridCtrl@@QEAAHPEAVCMFCPropertyGridProperty@@HH@Z 000000014005bf68     mfc140u:mfc140u.dll
 0002:00000f70       __imp_?RemoveAll@CMFCPropertyGridCtrl@@QEAAXXZ 000000014005bf70     mfc140u:mfc140u.dll
 0002:00000f78       __imp_?GetProperty@CMFCPropertyGridCtrl@@QEBAPEAVCMFCPropertyGridProperty@@H@Z 000000014005bf78     mfc140u:mfc140u.dll
 0002:00000f80       __imp_?SetCurSel@CMFCPropertyGridCtrl@@QEAAXPEAVCMFCPropertyGridProperty@@H@Z 000000014005bf80     mfc140u:mfc140u.dll
 0002:00000f88       __imp_?ExpandAll@CMFCPropertyGridCtrl@@QEAAXH@Z 000000014005bf88     mfc140u:mfc140u.dll
 0002:00000f90       __imp_?CloseColorPopup@CMFCPropertyGridCtrl@@UEAAXXZ 000000014005bf90     mfc140u:mfc140u.dll
 0002:00000f98       __imp_?UpdateColor@CMFCPropertyGridCtrl@@UEAAXK@Z 000000014005bf98     mfc140u:mfc140u.dll
 0002:00000fa0       __imp_?AdjustLayout@CMFCPropertyGridCtrl@@UEAAXXZ 000000014005bfa0     mfc140u:mfc140u.dll
 0002:00000fa8       __imp_?OnPropertyChanged@CMFCPropertyGridCtrl@@UEBAXPEAVCMFCPropertyGridProperty@@@Z 000000014005bfa8     mfc140u:mfc140u.dll
 0002:00000fb0       __imp_?Create@CMFCPropertyGridCtrl@@UEAAHKAEBUtagRECT@@PEAVCWnd@@I@Z 000000014005bfb0     mfc140u:mfc140u.dll
 0002:00000fb8       __imp_?PreTranslateMessage@CMFCPropertyGridCtrl@@UEAAHPEAUtagMSG@@@Z 000000014005bfb8     mfc140u:mfc140u.dll
 0002:00000fc0       __imp_?GetScrollBarCtrl@CMFCPropertyGridCtrl@@UEBAPEAVCScrollBar@@H@Z 000000014005bfc0     mfc140u:mfc140u.dll
 0002:00000fc8       __imp_?PreSubclassWindow@CMFCPropertyGridCtrl@@MEAAXXZ 000000014005bfc8     mfc140u:mfc140u.dll
 0002:00000fd0       __imp_?OnNotify@CMFCPropertyGridCtrl@@MEAAH_K_JPEA_J@Z 000000014005bfd0     mfc140u:mfc140u.dll
 0002:00000fd8       __imp_?EditItem@CMFCPropertyGridCtrl@@UEAAHPEAVCMFCPropertyGridProperty@@PEAUtagPOINT@@@Z 000000014005bfd8     mfc140u:mfc140u.dll
 0002:00000fe0       __imp_?OnClickButton@CMFCPropertyGridCtrl@@UEAAXVCPoint@@@Z 000000014005bfe0     mfc140u:mfc140u.dll
 0002:00000fe8       __imp_?EndEditItem@CMFCPropertyGridCtrl@@UEAAHH@Z 000000014005bfe8     mfc140u:mfc140u.dll
 0002:00000ff0       __imp_?InitHeader@CMFCPropertyGridCtrl@@UEAAXXZ 000000014005bff0     mfc140u:mfc140u.dll
 0002:00000ff8       __imp_?Init@CMFCPropertyGridCtrl@@MEAAXXZ 000000014005bff8     mfc140u:mfc140u.dll
 0002:00001000       __imp_?OnFillBackground@CMFCPropertyGridCtrl@@MEAAXPEAVCDC@@VCRect@@@Z 000000014005c000     mfc140u:mfc140u.dll
 0002:00001008       __imp_?OnDraw@CMFCPropertyGridCtrl@@MEAAXPEAVCDC@@@Z 000000014005c008     mfc140u:mfc140u.dll
 0002:00001010       __imp_?OnDrawBorder@CMFCPropertyGridCtrl@@MEAAXPEAVCDC@@@Z 000000014005c010     mfc140u:mfc140u.dll
 0002:00001018       __imp_?OnDrawList@CMFCPropertyGridCtrl@@MEAAXPEAVCDC@@@Z 000000014005c018     mfc140u:mfc140u.dll
 0002:00001020       __imp_?OnDrawDescription@CMFCPropertyGridCtrl@@MEAAXPEAVCDC@@VCRect@@@Z 000000014005c020     mfc140u:mfc140u.dll
 0002:00001028       __imp_?ProcessClipboardAccelerators@CMFCPropertyGridCtrl@@MEAAHI@Z 000000014005c028     mfc140u:mfc140u.dll
 0002:00001030       __imp_?NotifyAccessibility@CMFCPropertyGridCtrl@@MEAAXPEAVCMFCPropertyGridProperty@@@Z 000000014005c030     mfc140u:mfc140u.dll
 0002:00001038       __imp_??1CMFCPropertyGridCtrl@@UEAA@XZ 000000014005c038     mfc140u:mfc140u.dll
 0002:00001040       __imp_?get_accChildCount@CMFCPropertyGridCtrl@@UEAAJPEAJ@Z 000000014005c040     mfc140u:mfc140u.dll
 0002:00001048       __imp_?get_accChild@CMFCPropertyGridCtrl@@UEAAJUtagVARIANT@@PEAPEAUIDispatch@@@Z 000000014005c048     mfc140u:mfc140u.dll
 0002:00001050       __imp_?get_accName@CMFCPropertyGridCtrl@@UEAAJUtagVARIANT@@PEAPEA_W@Z 000000014005c050     mfc140u:mfc140u.dll
 0002:00001058       __imp_?get_accValue@CMFCPropertyGridCtrl@@UEAAJUtagVARIANT@@PEAPEA_W@Z 000000014005c058     mfc140u:mfc140u.dll
 0002:00001060       __imp_?get_accDescription@CMFCPropertyGridCtrl@@UEAAJUtagVARIANT@@PEAPEA_W@Z 000000014005c060     mfc140u:mfc140u.dll
 0002:00001068       __imp_?get_accRole@CMFCPropertyGridCtrl@@UEAAJUtagVARIANT@@PEAU2@@Z 000000014005c068     mfc140u:mfc140u.dll
 0002:00001070       __imp_?get_accState@CMFCPropertyGridCtrl@@UEAAJUtagVARIANT@@PEAU2@@Z 000000014005c070     mfc140u:mfc140u.dll
 0002:00001078       __imp_?get_accHelp@CMFCPropertyGridCtrl@@UEAAJUtagVARIANT@@PEAPEA_W@Z 000000014005c078     mfc140u:mfc140u.dll
 0002:00001080       __imp_?get_accHelpTopic@CMFCPropertyGridCtrl@@UEAAJPEAPEA_WUtagVARIANT@@PEAJ@Z 000000014005c080     mfc140u:mfc140u.dll
 0002:00001088       __imp_?get_accKeyboardShortcut@CMFCPropertyGridCtrl@@UEAAJUtagVARIANT@@PEAPEA_W@Z 000000014005c088     mfc140u:mfc140u.dll
 0002:00001090       __imp_?get_accFocus@CMFCPropertyGridCtrl@@UEAAJPEAUtagVARIANT@@@Z 000000014005c090     mfc140u:mfc140u.dll
 0002:00001098       __imp_?get_accSelection@CMFCPropertyGridCtrl@@UEAAJPEAUtagVARIANT@@@Z 000000014005c098     mfc140u:mfc140u.dll
 0002:000010a0       __imp_?get_accDefaultAction@CMFCPropertyGridCtrl@@UEAAJUtagVARIANT@@PEAPEA_W@Z 000000014005c0a0     mfc140u:mfc140u.dll
 0002:000010a8       __imp_?accSelect@CMFCPropertyGridCtrl@@UEAAJJUtagVARIANT@@@Z 000000014005c0a8     mfc140u:mfc140u.dll
 0002:000010b0       __imp_?accLocation@CMFCPropertyGridCtrl@@UEAAJPEAJ000UtagVARIANT@@@Z 000000014005c0b0     mfc140u:mfc140u.dll
 0002:000010b8       __imp_?accHitTest@CMFCPropertyGridCtrl@@UEAAJJJPEAUtagVARIANT@@@Z 000000014005c0b8     mfc140u:mfc140u.dll
 0002:000010c0       __imp_?GetMessageMap@CMFCPropertyGridCtrl@@MEBAPEBUAFX_MSGMAP@@XZ 000000014005c0c0     mfc140u:mfc140u.dll
 0002:000010c8       __imp_?ReposProperties@CMFCPropertyGridCtrl@@IEAAXXZ 000000014005c0c8     mfc140u:mfc140u.dll
 0002:000010d0       __imp_?AFX_WM_PROPERTY_CHANGED@@3IA 000000014005c0d0     mfc140u:mfc140u.dll
 0002:000010d8       __imp_?EnableWindow@CWnd@@QEAAHH@Z 000000014005c0d8     mfc140u:mfc140u.dll
 0002:000010e0       __imp_?SetString@?$CSimpleStringT@_W$00@ATL@@QEAAXPEB_WH@Z 000000014005c0e0     mfc140u:mfc140u.dll
 0002:000010e8       __imp_?Replace@?$CStringT@_WV?$StrTraitMFC_DLL@_WV?$ChTraitsCRT@_W@ATL@@@@@ATL@@QEAAHPEB_W0@Z 000000014005c0e8     mfc140u:mfc140u.dll
 0002:000010f0       __imp_?LoadStringW@?$CStringT@_WV?$StrTraitMFC_DLL@_WV?$ChTraitsCRT@_W@ATL@@@@@ATL@@QEAAHI@Z 000000014005c0f0     mfc140u:mfc140u.dll
 0002:000010f8       __imp_?Write@CFile@@UEAAXPEBXI@Z 000000014005c0f8     mfc140u:mfc140u.dll
 0002:00001100       __imp_?BeginWaitCursor@CCmdTarget@@QEAAXXZ 000000014005c100     mfc140u:mfc140u.dll
 0002:00001108       __imp_?EndWaitCursor@CCmdTarget@@QEAAXXZ 000000014005c108     mfc140u:mfc140u.dll
 0002:00001110       __imp_?LoadStdProfileSettings@CWinApp@@IEAAXI@Z 000000014005c110     mfc140u:mfc140u.dll
 0002:00001118       __imp_?SetRegistryKey@CWinApp@@IEAAXPEB_W@Z 000000014005c118     mfc140u:mfc140u.dll
 0002:00001120       __imp_?SetAppID@CWinApp@@IEAAXPEB_W@Z 000000014005c120     mfc140u:mfc140u.dll
 0002:00001128       __imp_?AddDocTemplate@CWinApp@@QEAAXPEAVCDocTemplate@@@Z 000000014005c128     mfc140u:mfc140u.dll
 0002:00001130       __imp_?ParseCommandLine@CWinApp@@QEAAXAEAVCCommandLineInfo@@@Z 000000014005c130     mfc140u:mfc140u.dll
 0002:00001138       __imp_?ProcessShellCommand@CWinApp@@QEAAHAEAVCCommandLineInfo@@@Z 000000014005c138     mfc140u:mfc140u.dll
 0002:00001140       __imp_?OnFileNew@CWinApp@@IEAAXXZ 000000014005c140     mfc140u:mfc140u.dll
 0002:00001148       __imp_?OnFileOpen@CWinApp@@IEAAXXZ 000000014005c148     mfc140u:mfc140u.dll
 0002:00001150       __imp_?OnFilePrintSetup@CWinApp@@IEAAXXZ 000000014005c150     mfc140u:mfc140u.dll
 0002:00001158       __imp_?EnableTaskbarInteraction@CWinApp@@QEAAHH@Z 000000014005c158     mfc140u:mfc140u.dll
 0002:00001160       __imp_?GetThisMessageMap@CWinApp@@KAPEBUAFX_MSGMAP@@XZ 000000014005c160     mfc140u:mfc140u.dll
 0002:00001168       __imp_??0CSingleDocTemplate@@QEAA@IPEAUCRuntimeClass@@00@Z 000000014005c168     mfc140u:mfc140u.dll
 0002:00001170       __imp_?AfxMessageBox@@YAHIII@Z 000000014005c170     mfc140u:mfc140u.dll
 0002:00001178       __imp_?AfxOleInit@@YAHXZ   000000014005c178     mfc140u:mfc140u.dll
 0002:00001180       __imp_?AfxOleTerm@@YAXH@Z  000000014005c180     mfc140u:mfc140u.dll
 0002:00001188       __imp_?AfxEnableControlContainer@@YAXPEAVCOccManager@@@Z 000000014005c188     mfc140u:mfc140u.dll
 0002:00001190       __imp_??0CWinAppEx@@QEAA@H@Z 000000014005c190     mfc140u:mfc140u.dll
 0002:00001198       __imp_?InitContextMenuManager@CWinAppEx@@QEAAHXZ 000000014005c198     mfc140u:mfc140u.dll
 0002:000011a0       __imp_?InitKeyboardManager@CWinAppEx@@QEAAHXZ 000000014005c1a0     mfc140u:mfc140u.dll
 0002:000011a8       __imp_?InitTooltipManager@CWinAppEx@@QEAAHXZ 000000014005c1a8     mfc140u:mfc140u.dll
 0002:000011b0       __imp_?GetTooltipManager@CWinAppEx@@QEAAPEAVCTooltipManager@@XZ 000000014005c1b0     mfc140u:mfc140u.dll
 0002:000011b8       __imp_?GetThisClass@CMFCToolTipCtrl@@SAPEAUCRuntimeClass@@XZ 000000014005c1b8     mfc140u:mfc140u.dll
 0002:000011c0       __imp_?SetTooltipParams@CTooltipManager@@QEAAXIPEAUCRuntimeClass@@PEAVCMFCToolTipInfo@@@Z 000000014005c1c0     mfc140u:mfc140u.dll
 0002:000011c8       __imp_?AFXGetRegPath@@YA?AV?$CStringT@_WV?$StrTraitMFC_DLL@_WV?$ChTraitsCRT@_W@ATL@@@@@ATL@@PEB_W0@Z 000000014005c1c8     mfc140u:mfc140u.dll
 0002:000011d0       __imp_?Delete@CException@@QEAAXXZ 000000014005c1d0     mfc140u:mfc140u.dll
 0002:000011d8       __imp_?ModifyStyle@CWnd@@QEAAHKKI@Z 000000014005c1d8     mfc140u:mfc140u.dll
 0002:000011e0       __imp_?GetThisClass@CDocument@@SAPEAUCRuntimeClass@@XZ 000000014005c1e0     mfc140u:mfc140u.dll
 0002:000011e8       __imp_??0CDocument@@QEAA@XZ 000000014005c1e8     mfc140u:mfc140u.dll
 0002:000011f0       __imp_?SetTitle@CDocument@@UEAAXPEB_W@Z 000000014005c1f0     mfc140u:mfc140u.dll
 0002:000011f8       __imp_?SetPathName@CDocument@@UEAAXPEB_WH@Z 000000014005c1f8     mfc140u:mfc140u.dll
 0002:00001200       __imp_?ClearPathName@CDocument@@UEAAXXZ 000000014005c200     mfc140u:mfc140u.dll
 0002:00001208       __imp_?GetFirstViewPosition@CDocument@@UEBAPEAU__POSITION@@XZ 000000014005c208     mfc140u:mfc140u.dll
 0002:00001210       __imp_?GetNextView@CDocument@@UEBAPEAVCView@@AEAPEAU__POSITION@@@Z 000000014005c210     mfc140u:mfc140u.dll
 0002:00001218       __imp_?OnChangedViewList@CDocument@@UEAAXXZ 000000014005c218     mfc140u:mfc140u.dll
 0002:00001220       __imp_?DeleteContents@CDocument@@UEAAXXZ 000000014005c220     mfc140u:mfc140u.dll
 0002:00001228       __imp_?OnNewDocument@CDocument@@UEAAHXZ 000000014005c228     mfc140u:mfc140u.dll
 0002:00001230       __imp_?OnSaveDocument@CDocument@@UEAAHPEB_W@Z 000000014005c230     mfc140u:mfc140u.dll
 0002:00001238       __imp_?OnCloseDocument@CDocument@@UEAAXXZ 000000014005c238     mfc140u:mfc140u.dll
 0002:00001240       __imp_?ReportSaveLoadException@CDocument@@UEAAXPEB_WPEAVCException@@HI@Z 000000014005c240     mfc140u:mfc140u.dll
 0002:00001248       __imp_?GetFile@CDocument@@UEAAPEAVCFile@@PEB_WIPEAVCFileException@@@Z 000000014005c248     mfc140u:mfc140u.dll
 0002:00001250       __imp_?ReleaseFile@CDocument@@UEAAXPEAVCFile@@H@Z 000000014005c250     mfc140u:mfc140u.dll
 0002:00001258       __imp_?OnRichPreviewUnload@CDocument@@UEAAXXZ 000000014005c258     mfc140u:mfc140u.dll
 0002:00001260       __imp_?LoadDocumentFromStream@CDocument@@UEAAJPEAUIStream@@K@Z 000000014005c260     mfc140u:mfc140u.dll
 0002:00001268       __imp_?GetThumbnail@CDocument@@UEAAHIPEAPEAUHBITMAP__@@PEAW4WTS_ALPHATYPE@@@Z 000000014005c268     mfc140u:mfc140u.dll
 0002:00001270       __imp_?ClearChunkList@CDocument@@UEAAXXZ 000000014005c270     mfc140u:mfc140u.dll
 0002:00001278       __imp_?SetChunkValue@CDocument@@UEAAHPEAUIFilterChunkValue@ATL@@@Z 000000014005c278     mfc140u:mfc140u.dll
 0002:00001280       __imp_?BeginReadChunks@CDocument@@UEAAXXZ 000000014005c280     mfc140u:mfc140u.dll
 0002:00001288       __imp_?ReadNextChunkValue@CDocument@@UEAAHPEAPEAUIFilterChunkValue@ATL@@@Z 000000014005c288     mfc140u:mfc140u.dll
 0002:00001290       __imp_?RemoveChunk@CDocument@@UEAAXAEBU_GUID@@K@Z 000000014005c290     mfc140u:mfc140u.dll
 0002:00001298       __imp_?FindChunk@CDocument@@UEAAPEAU__POSITION@@AEBU_GUID@@K@Z 000000014005c298     mfc140u:mfc140u.dll
 0002:000012a0       __imp_?OnDocumentEvent@CDocument@@UEAAXW4DocumentEvent@1@@Z 000000014005c2a0     mfc140u:mfc140u.dll
 0002:000012a8       __imp_?CanCloseFrame@CDocument@@UEAAHPEAVCFrameWnd@@@Z 000000014005c2a8     mfc140u:mfc140u.dll
 0002:000012b0       __imp_?SaveModified@CDocument@@UEAAHXZ 000000014005c2b0     mfc140u:mfc140u.dll
 0002:000012b8       __imp_?PreCloseFrame@CDocument@@UEAAXPEAVCFrameWnd@@@Z 000000014005c2b8     mfc140u:mfc140u.dll
 0002:000012c0       __imp_??1CDocument@@UEAA@XZ 000000014005c2c0     mfc140u:mfc140u.dll
 0002:000012c8       __imp_?DoSave@CDocument@@UEAAHPEB_WH@Z 000000014005c2c8     mfc140u:mfc140u.dll
 0002:000012d0       __imp_?DoFileSave@CDocument@@UEAAHXZ 000000014005c2d0     mfc140u:mfc140u.dll
 0002:000012d8       __imp_?UpdateFrameCounts@CDocument@@UEAAXXZ 000000014005c2d8     mfc140u:mfc140u.dll
 0002:000012e0       __imp_?GetDefaultMenu@CDocument@@UEAAPEAUHMENU__@@XZ 000000014005c2e0     mfc140u:mfc140u.dll
 0002:000012e8       __imp_?GetDefaultAccelerator@CDocument@@UEAAPEAUHACCEL__@@XZ 000000014005c2e8     mfc140u:mfc140u.dll
 0002:000012f0       __imp_?OnIdle@CDocument@@UEAAXXZ 000000014005c2f0     mfc140u:mfc140u.dll
 0002:000012f8       __imp_?OnFinalRelease@CDocument@@UEAAXXZ 000000014005c2f8     mfc140u:mfc140u.dll
 0002:00001300       __imp_?OnLoadDocumentFromStream@CDocument@@UEAAJPEAUIStream@@K@Z 000000014005c300     mfc140u:mfc140u.dll
 0002:00001308       __imp_?OnPreviewHandlerQueryFocus@CDocument@@UEAAJPEAPEAUHWND__@@@Z 000000014005c308     mfc140u:mfc140u.dll
 0002:00001310       __imp_?OnPreviewHandlerTranslateAccelerator@CDocument@@UEAAJPEAUtagMSG@@@Z 000000014005c310     mfc140u:mfc140u.dll
 0002:00001318       __imp_?OnCreatePreviewFrame@CDocument@@UEAAHXZ 000000014005c318     mfc140u:mfc140u.dll
 0002:00001320       __imp_?OnUnloadHandler@CDocument@@UEAAXXZ 000000014005c320     mfc140u:mfc140u.dll
 0002:00001328       __imp_?OnDrawThumbnail@CDocument@@UEAAXAEAVCDC@@PEAUtagRECT@@@Z 000000014005c328     mfc140u:mfc140u.dll
 0002:00001330       __imp_?OnCmdMsg@CDocument@@UEAAHIHPEAXPEAUAFX_CMDHANDLERINFO@@@Z 000000014005c330     mfc140u:mfc140u.dll
 0002:00001338       __imp_?GetThisMessageMap@CDocument@@KAPEBUAFX_MSGMAP@@XZ 000000014005c338     mfc140u:mfc140u.dll
 0002:00001340       __imp_?GetInterfaceMap@CDocument@@MEBAPEBUAFX_INTERFACEMAP@@XZ 000000014005c340     mfc140u:mfc140u.dll
 0002:00001348       __imp_?GetStatus@CFile@@SAHPEB_WAEAUCFileStatus@@PEAVCAtlTransactionManager@ATL@@@Z 000000014005c348     mfc140u:mfc140u.dll
 0002:00001350       __imp_?AfxGetModuleState@@YAPEAVAFX_MODULE_STATE@@XZ 000000014005c350     mfc140u:mfc140u.dll
 0002:00001358       __imp_?FromHandle@CMenu@@SAPEAV1@PEAUHMENU__@@@Z 000000014005c358     mfc140u:mfc140u.dll
 0002:00001360       __imp_?ClientToScreen@CWnd@@QEBAXPEAUtagRECT@@@Z 000000014005c360     mfc140u:mfc140u.dll
 0002:00001368       __imp_?MessageBoxW@CWnd@@QEAAHPEB_W0I@Z 000000014005c368     mfc140u:mfc140u.dll
 0002:00001370       __imp_?Create@CFrameWnd@@UEAAHPEB_W0KAEBUtagRECT@@PEAVCWnd@@0KPEAUCCreateContext@@@Z 000000014005c370     mfc140u:mfc140u.dll
 0002:00001378       __imp_?GetActiveDocument@CFrameWnd@@UEAAPEAVCDocument@@XZ 000000014005c378     mfc140u:mfc140u.dll
 0002:00001380       __imp_?GetActiveFrame@CFrameWnd@@UEAAPEAV1@XZ 000000014005c380     mfc140u:mfc140u.dll
 0002:00001388       __imp_?GetMessageString@CFrameWnd@@UEBAXIAEAV?$CStringT@_WV?$StrTraitMFC_DLL@_WV?$ChTraitsCRT@_W@ATL@@@@@ATL@@@Z 000000014005c388     mfc140u:mfc140u.dll
 0002:00001390       __imp_?ActivateFrame@CFrameWnd@@UEAAXH@Z 000000014005c390     mfc140u:mfc140u.dll
 0002:00001398       __imp_?GetMenu@CFrameWnd@@UEBAPEAVCMenu@@XZ 000000014005c398     mfc140u:mfc140u.dll
 0002:000013a0       __imp_?SetMenu@CFrameWnd@@UEAAHPEAVCMenu@@@Z 000000014005c3a0     mfc140u:mfc140u.dll
 0002:000013a8       __imp_?SetMenuBarVisibility@CFrameWnd@@UEAAXK@Z 000000014005c3a8     mfc140u:mfc140u.dll
 0002:000013b0       __imp_?GetMenuBarVisibility@CFrameWnd@@UEBAKXZ 000000014005c3b0     mfc140u:mfc140u.dll
 0002:000013b8       __imp_?SetMenuBarState@CFrameWnd@@UEAAHK@Z 000000014005c3b8     mfc140u:mfc140u.dll
 0002:000013c0       __imp_?GetMenuBarState@CFrameWnd@@UEBAKXZ 000000014005c3c0     mfc140u:mfc140u.dll
 0002:000013c8       __imp_?BeginModalState@CFrameWnd@@UEAAXXZ 000000014005c3c8     mfc140u:mfc140u.dll
 0002:000013d0       __imp_?EndModalState@CFrameWnd@@UEAAXXZ 000000014005c3d0     mfc140u:mfc140u.dll
 0002:000013d8       __imp_?GetMessageBar@CFrameWnd@@UEAAPEAVCWnd@@XZ 000000014005c3d8     mfc140u:mfc140u.dll
 0002:000013e0       __imp_?OnCreateClient@CFrameWnd@@MEAAHPEAUtagCREATESTRUCTW@@PEAUCCreateContext@@@Z 000000014005c3e0     mfc140u:mfc140u.dll
 0002:000013e8       __imp_?IsFrameWnd@CFrameWnd@@UEBAHXZ 000000014005c3e8     mfc140u:mfc140u.dll
 0002:000013f0       __imp_?GetDefaultAccelerator@CFrameWnd@@UEAAPEAUHACCEL__@@XZ 000000014005c3f0     mfc140u:mfc140u.dll
 0002:000013f8       __imp_?ExitHelpMode@CFrameWnd@@UEAAXXZ 000000014005c3f8     mfc140u:mfc140u.dll
 0002:00001400       __imp_?PostNcDestroy@CFrameWnd@@MEAAXXZ 000000014005c400     mfc140u:mfc140u.dll
 0002:00001408       __imp_?OnShowMenuBar@CFrameWnd@@MEAAXXZ 000000014005c408     mfc140u:mfc140u.dll
 0002:00001410       __imp_?OnHideMenuBar@CFrameWnd@@MEAAXXZ 000000014005c410     mfc140u:mfc140u.dll
 0002:00001418       __imp_?OnInitMenuPopup@CFrameWnd@@IEAAXPEAVCMenu@@IH@Z 000000014005c418     mfc140u:mfc140u.dll
 0002:00001420       __imp_?OnEraseBkgnd@CFrameWnd@@IEAAHPEAVCDC@@@Z 000000014005c420     mfc140u:mfc140u.dll
 0002:00001428       __imp_?OnSysCommand@CFrameWnd@@IEAAXI_J@Z 000000014005c428     mfc140u:mfc140u.dll
 0002:00001430       __imp_??0CFileDialog@@QEAA@HPEB_W0K0PEAVCWnd@@KH@Z 000000014005c430     mfc140u:mfc140u.dll
 0002:00001438       __imp_??1CFileDialog@@UEAA@XZ 000000014005c438     mfc140u:mfc140u.dll
 0002:00001440       __imp_?DoModal@CFileDialog@@UEAA_JXZ 000000014005c440     mfc140u:mfc140u.dll
 0002:00001448       __imp_?GetPathName@CFileDialog@@QEBA?AV?$CStringT@_WV?$StrTraitMFC_DLL@_WV?$ChTraitsCRT@_W@ATL@@@@@ATL@@XZ 000000014005c448     mfc140u:mfc140u.dll
 0002:00001450       __imp_?GetThisClass@CMFCVisualManager@@SAPEAUCRuntimeClass@@XZ 000000014005c450     mfc140u:mfc140u.dll
 0002:00001458       __imp_?SetDefaultManager@CMFCVisualManager@@SAXPEAUCRuntimeClass@@@Z 000000014005c458     mfc140u:mfc140u.dll
 0002:00001460       __imp_?SetMenuSizes@CMFCToolBar@@SAXUtagSIZE@@0@Z 000000014005c460     mfc140u:mfc140u.dll
 0002:00001468       __imp_?GetMenuImageSize@CMFCToolBar@@SA?AVCSize@@XZ 000000014005c468     mfc140u:mfc140u.dll
 0002:00001470       __imp_?GetMenuButtonSize@CMFCToolBar@@SA?AVCSize@@XZ 000000014005c470     mfc140u:mfc140u.dll
 0002:00001478       __imp_?SaveParameters@CMFCToolBar@@SAHPEB_W@Z 000000014005c478     mfc140u:mfc140u.dll
 0002:00001480       __imp_?SetShowAllCommands@CMFCMenuBar@@SAXH@Z 000000014005c480     mfc140u:mfc140u.dll
 0002:00001488       __imp_?GetMenuItemCount@CMFCPopupMenu@@QEBAHXZ 000000014005c488     mfc140u:mfc140u.dll
 0002:00001490       __imp_?GetMenuItem@CMFCPopupMenu@@QEBAPEAVCMFCToolBarMenuButton@@H@Z 000000014005c490     mfc140u:mfc140u.dll
 0002:00001498       __imp_?SetDockingMode@CDockingManager@@SAXW4AFX_DOCK_TYPE@@W4AFX_SMARTDOCK_THEME@@@Z 000000014005c498     mfc140u:mfc140u.dll
 0002:000014a0       __imp_?EnablePaneContextMenu@CDockingManager@@QEAAXHIAEBV?$CStringT@_WV?$StrTraitMFC_DLL@_WV?$ChTraitsCRT@_W@ATL@@@@@ATL@@H@Z 000000014005c4a0     mfc140u:mfc140u.dll
 0002:000014a8       __imp_?InitUserToolbars@CFrameImpl@@IEAAXPEB_WII@Z 000000014005c4a8     mfc140u:mfc140u.dll
 0002:000014b0       __imp_?GetUserToolBarByIndex@CFrameImpl@@IEBAPEAVCMFCToolBar@@H@Z 000000014005c4b0     mfc140u:mfc140u.dll
 0002:000014b8       __imp_?AddDefaultButtonsToCustomizePane@CFrameImpl@@IEAAXPEAVCMFCPopupMenu@@I@Z 000000014005c4b8     mfc140u:mfc140u.dll
 0002:000014c0       __imp_?CheckAutoCenter@CWnd@@UEAAHXZ 000000014005c4c0     mfc140u:mfc140u.dll
 0002:000014c8       __imp_??0CFrameWndEx@@IEAA@XZ 000000014005c4c8     mfc140u:mfc140u.dll
 0002:000014d0       __imp_?AdjustDockingLayout@CFrameWndEx@@UEAAXPEAX@Z 000000014005c4d0     mfc140u:mfc140u.dll
 0002:000014d8       __imp_?EnableDocking@CFrameWndEx@@QEAAHK@Z 000000014005c4d8     mfc140u:mfc140u.dll
 0002:000014e0       __imp_?EnableAutoHidePanes@CFrameWndEx@@QEAAHK@Z 000000014005c4e0     mfc140u:mfc140u.dll
 0002:000014e8       __imp_?ShowPane@CFrameWndEx@@QEAAXPEAVCBasePane@@HHH@Z 000000014005c4e8     mfc140u:mfc140u.dll
 0002:000014f0       __imp_?OnMoveMiniFrame@CFrameWndEx@@UEAAHPEAVCWnd@@@Z 000000014005c4f0     mfc140u:mfc140u.dll
 0002:000014f8       __imp_?RecalcLayout@CFrameWndEx@@UEAAXH@Z 000000014005c4f8     mfc140u:mfc140u.dll
 0002:00001500       __imp_?PreTranslateMessage@CFrameWndEx@@UEAAHPEAUtagMSG@@@Z 000000014005c500     mfc140u:mfc140u.dll
 0002:00001508       __imp_?LoadFrame@CFrameWndEx@@UEAAHIKPEAVCWnd@@PEAUCCreateContext@@@Z 000000014005c508     mfc140u:mfc140u.dll
 0002:00001510       __imp_?WinHelpW@CFrameWndEx@@UEAAX_KI@Z 000000014005c510     mfc140u:mfc140u.dll
 0002:00001518       __imp_?OnSetPreviewMode@CFrameWndEx@@UEAAXHPEAUCPrintPreviewState@@@Z 000000014005c518     mfc140u:mfc140u.dll
 0002:00001520       __imp_?OnCmdMsg@CFrameWndEx@@UEAAHIHPEAXPEAUAFX_CMDHANDLERINFO@@@Z 000000014005c520     mfc140u:mfc140u.dll
 0002:00001528       __imp_?OnCommand@CFrameWndEx@@MEAAH_K_J@Z 000000014005c528     mfc140u:mfc140u.dll
 0002:00001530       __imp_?PreCreateWindow@CFrameWndEx@@MEAAHAEAUtagCREATESTRUCTW@@@Z 000000014005c530     mfc140u:mfc140u.dll
 0002:00001538       __imp_?HtmlHelpW@CFrameWndEx@@MEAAX_KI@Z 000000014005c538     mfc140u:mfc140u.dll
 0002:00001540       __imp_??1CFrameWndEx@@MEAA@XZ 000000014005c540     mfc140u:mfc140u.dll
 0002:00001548       __imp_?AdjustClientArea@CFrameWndEx@@MEAAXXZ 000000014005c548     mfc140u:mfc140u.dll
 0002:00001550       __imp_?GetInPlaceActiveItem@CFrameWndEx@@MEAAPEAVCOleClientItem@@XZ 000000014005c550     mfc140u:mfc140u.dll
 0002:00001558       __imp_?OnShowPopupMenu@CFrameWndEx@@UEAAHPEAVCMFCPopupMenu@@@Z 000000014005c558     mfc140u:mfc140u.dll
 0002:00001560       __imp_?OnClosePopupMenu@CFrameWndEx@@UEAAXPEAVCMFCPopupMenu@@@Z 000000014005c560     mfc140u:mfc140u.dll
 0002:00001568       __imp_?OnDrawMenuImage@CFrameWndEx@@UEAAHPEAVCDC@@PEBVCMFCToolBarMenuButton@@AEBVCRect@@@Z 000000014005c568     mfc140u:mfc140u.dll
 0002:00001570       __imp_?OnUpdateFrameMenu@CFrameWndEx@@UEAAXPEAUHMENU__@@@Z 000000014005c570     mfc140u:mfc140u.dll
 0002:00001578       __imp_?OnShowPanes@CFrameWndEx@@UEAAHH@Z 000000014005c578     mfc140u:mfc140u.dll
 0002:00001580       __imp_?NegotiateBorderSpace@CFrameWndEx@@UEAAHIPEAUtagRECT@@@Z 000000014005c580     mfc140u:mfc140u.dll
 0002:00001588       __imp_?DelayUpdateFrameMenu@CFrameWndEx@@UEAAXPEAUHMENU__@@@Z 000000014005c588     mfc140u:mfc140u.dll
 0002:00001590       __imp_?OnUpdateFrameTitle@CFrameWndEx@@UEAAXH@Z 000000014005c590     mfc140u:mfc140u.dll
 0002:00001598       __imp_?OnClose@CFrameWndEx@@QEAAXXZ 000000014005c598     mfc140u:mfc140u.dll
 0002:000015a0       __imp_?OnDestroy@CFrameWndEx@@QEAAXXZ 000000014005c5a0     mfc140u:mfc140u.dll
 0002:000015a8       __imp_?OnSize@CFrameWndEx@@QEAAXIHH@Z 000000014005c5a8     mfc140u:mfc140u.dll
 0002:000015b0       __imp_?OnCreate@CFrameWndEx@@QEAAHPEAUtagCREATESTRUCTW@@@Z 000000014005c5b0     mfc140u:mfc140u.dll
 0002:000015b8       __imp_?GetThisMessageMap@CFrameWndEx@@KAPEBUAFX_MSGMAP@@XZ 000000014005c5b8     mfc140u:mfc140u.dll
 0002:000015c0       __imp_??0CMFCToolBarsCustomizeDialog@@QEAA@PEAVCFrameWnd@@HIPEAV?$CList@PEAUCRuntimeClass@@PEAU1@@@@Z 000000014005c5c0     mfc140u:mfc140u.dll
 0002:000015c8       __imp_?GetInt@CWinAppEx@@QEAAHPEB_WH@Z 000000014005c5c8     mfc140u:mfc140u.dll
 0002:000015d0       __imp_?WriteInt@CWinAppEx@@QEAAHPEB_WH@Z 000000014005c5d0     mfc140u:mfc140u.dll
 0002:000015d8       __imp_?GetThisClass@CMFCVisualManagerOfficeXP@@SAPEAUCRuntimeClass@@XZ 000000014005c5d8     mfc140u:mfc140u.dll
 0002:000015e0       __imp_?GetThisClass@CMFCVisualManagerWindows@@SAPEAUCRuntimeClass@@XZ 000000014005c5e0     mfc140u:mfc140u.dll
 0002:000015e8       __imp_?GetThisClass@CMFCVisualManagerOffice2003@@SAPEAUCRuntimeClass@@XZ 000000014005c5e8     mfc140u:mfc140u.dll
 0002:000015f0       __imp_?GetThisClass@CMFCVisualManagerVS2005@@SAPEAUCRuntimeClass@@XZ 000000014005c5f0     mfc140u:mfc140u.dll
 0002:000015f8       __imp_?GetThisClass@CMFCVisualManagerVS2008@@SAPEAUCRuntimeClass@@XZ 000000014005c5f8     mfc140u:mfc140u.dll
 0002:00001600       __imp_?GetThisClass@CMFCVisualManagerOffice2007@@SAPEAUCRuntimeClass@@XZ 000000014005c600     mfc140u:mfc140u.dll
 0002:00001608       __imp_?SetStyle@CMFCVisualManagerOffice2007@@SAHW4Style@1@PEB_W@Z 000000014005c608     mfc140u:mfc140u.dll
 0002:00001610       __imp_?GetThisClass@CMFCVisualManagerWindows7@@SAPEAUCRuntimeClass@@XZ 000000014005c610     mfc140u:mfc140u.dll
 0002:00001618       __imp_?AFX_WM_RESETMENU@@3IA 000000014005c618     mfc140u:mfc140u.dll
 0002:00001620       __imp_?m_bForceMenuFocus@CMFCPopupMenu@@1HA 000000014005c620     mfc140u:mfc140u.dll
 0002:00001628       __imp_?m_b3DTabsXPTheme@CMFCVisualManagerWindows@@2HA 000000014005c628     mfc140u:mfc140u.dll
 0002:00001630       __imp_??0?$CStringT@_WV?$StrTraitMFC_DLL@_WV?$ChTraitsCRT@_W@ATL@@@@@ATL@@QEAA@PEBDPEAUIAtlStringMgr@1@@Z 000000014005c630     mfc140u:mfc140u.dll
 0002:00001638       __imp_?AfxThrowArchiveException@@YAXHPEB_W@Z 000000014005c638     mfc140u:mfc140u.dll
 0002:00001640       __imp_??0?$CStringT@_WV?$StrTraitMFC_DLL@_WV?$ChTraitsCRT@_W@ATL@@@@@ATL@@QEAA@AEBUtagVARIANT@@@Z 000000014005c640     mfc140u:mfc140u.dll
 0002:00001648       __imp_?Read@CArchive@@QEAAIPEAXI@Z 000000014005c648     mfc140u:mfc140u.dll
 0002:00001650       __imp_?Write@CArchive@@QEAAXPEBXI@Z 000000014005c650     mfc140u:mfc140u.dll
 0002:00001658       __imp_?ReadCount@CArchive@@QEAA_KXZ 000000014005c658     mfc140u:mfc140u.dll
 0002:00001660       __imp_?WriteCount@CArchive@@QEAAX_K@Z 000000014005c660     mfc140u:mfc140u.dll
 0002:00001668       __imp_?Create@CPlex@@SAPEAU1@AEAPEAU1@_K1@Z 000000014005c668     mfc140u:mfc140u.dll
 0002:00001670       __imp_?FreeDataChain@CPlex@@QEAAXXZ 000000014005c670     mfc140u:mfc140u.dll
 0002:00001678       __imp_?GetRuntimeClass@CMenu@@UEBAPEAUCRuntimeClass@@XZ 000000014005c678     mfc140u:mfc140u.dll
 0002:00001680       __imp_?DestroyMenu@CMenu@@QEAAHXZ 000000014005c680     mfc140u:mfc140u.dll
 0002:00001688       __imp_?Attach@CMenu@@QEAAHPEAUHMENU__@@@Z 000000014005c688     mfc140u:mfc140u.dll
 0002:00001690       __imp_?Detach@CMenu@@QEAAPEAUHMENU__@@XZ 000000014005c690     mfc140u:mfc140u.dll
 0002:00001698       __imp_?DrawItem@CMenu@@UEAAXPEAUtagDRAWITEMSTRUCT@@@Z 000000014005c698     mfc140u:mfc140u.dll
 0002:000016a0       __imp_?MeasureItem@CMenu@@UEAAXPEAUtagMEASUREITEMSTRUCT@@@Z 000000014005c6a0     mfc140u:mfc140u.dll
 0002:000016a8       __imp_?AFXGetParentFrame@@YAPEAVCFrameWnd@@PEBVCWnd@@@Z 000000014005c6a8     mfc140u:mfc140u.dll
 0002:000016b0       __imp_??0CMFCVisualManager@@QEAA@H@Z 000000014005c6b0     mfc140u:mfc140u.dll
 0002:000016b8       __imp_?IsDocked@CBasePane@@UEBAHXZ 000000014005c6b8     mfc140u:mfc140u.dll
 0002:000016c0       __imp_?IsVisible@CBasePane@@UEBAHXZ 000000014005c6c0     mfc140u:mfc140u.dll
 0002:000016c8       __imp_?CanFloat@CBasePane@@UEBAHXZ 000000014005c6c8     mfc140u:mfc140u.dll
 0002:000016d0       __imp_?ShowPane@CBasePane@@UEAAXHHH@Z 000000014005c6d0     mfc140u:mfc140u.dll
 0002:000016d8       __imp_?IsChangeState@CPane@@UEBA?AW4AFX_CS_STATUS@@HPEAPEAVCBasePane@@@Z 000000014005c6d8     mfc140u:mfc140u.dll
 0002:000016e0       __imp_?OnBeforeFloat@CPane@@UEAAHAEAVCRect@@W4AFX_DOCK_METHOD@@@Z 000000014005c6e0     mfc140u:mfc140u.dll
 0002:000016e8       __imp_?UndockPane@CPane@@UEAAXH@Z 000000014005c6e8     mfc140u:mfc140u.dll
 0002:000016f0       __imp_?AddRequestHeaders@CHttpFile@@QEAAHAEAV?$CStringT@_WV?$StrTraitMFC_DLL@_WV?$ChTraitsCRT@_W@ATL@@@@@ATL@@K@Z 000000014005c6f0     mfc140u:mfc140u.dll
 0002:000016f8       __imp_?ConvertToTabbedDocument@CPane@@UEAAXH@Z 000000014005c6f8     mfc140u:mfc140u.dll
 0002:00001700       __imp_?OnContinueMoving@CPane@@MEAAXXZ 000000014005c700     mfc140u:mfc140u.dll
 0002:00001708       __imp_?Dock@CPane@@MEAAHPEAVCBasePane@@PEBUtagRECT@@W4AFX_DOCK_METHOD@@@Z 000000014005c708     mfc140u:mfc140u.dll
 0002:00001710       __imp_?EnterDragMode@CPane@@MEAAXH@Z 000000014005c710     mfc140u:mfc140u.dll
 0002:00001718       __imp_?StoreRecentDockSiteInfo@CPane@@MEAAXXZ 000000014005c718     mfc140u:mfc140u.dll
 0002:00001720       __imp_?OnAfterChangeParent@CMFCBaseToolBar@@UEAAXPEAVCWnd@@@Z 000000014005c720     mfc140u:mfc140u.dll
 0002:00001728       __imp_?OnAfterStretch@CMFCBaseToolBar@@MEAAXH@Z 000000014005c728     mfc140u:mfc140u.dll
 0002:00001730       __imp_?LoadBitmapW@CMFCToolBar@@UEAAHIIIHII@Z 000000014005c730     mfc140u:mfc140u.dll
 0002:00001738       __imp_?LoadToolBar@CMFCToolBar@@UEAAHIIIHIII@Z 000000014005c738     mfc140u:mfc140u.dll
 0002:00001740       __imp_?LoadBitmapEx@CMFCToolBar@@UEAAHAEAVCMFCToolBarInfo@@H@Z 000000014005c740     mfc140u:mfc140u.dll
 0002:00001748       __imp_?LoadToolBarEx@CMFCToolBar@@UEAAHIAEAVCMFCToolBarInfo@@H@Z 000000014005c748     mfc140u:mfc140u.dll
 0002:00001750       __imp_?SetButtons@CMFCToolBar@@UEAAHPEBIHH@Z 000000014005c750     mfc140u:mfc140u.dll
 0002:00001758       __imp_?InsertButton@CMFCToolBar@@UEAAHAEBVCMFCToolBarButton@@_J@Z 000000014005c758     mfc140u:mfc140u.dll
 0002:00001760       __imp_?InsertSeparator@CMFCToolBar@@UEAAH_J@Z 000000014005c760     mfc140u:mfc140u.dll
 0002:00001768       __imp_?RemoveButton@CMFCToolBar@@UEAAHH@Z 000000014005c768     mfc140u:mfc140u.dll
 0002:00001770       __imp_?RemoveAllButtons@CMFCToolBar@@UEAAXXZ 000000014005c770     mfc140u:mfc140u.dll
 0002:00001778       __imp_?SetBasicCommands@CMFCToolBar@@SAXAEAV?$CList@II@@@Z 000000014005c778     mfc140u:mfc140u.dll
 0002:00001780       __imp_?Deactivate@CMFCToolBar@@UEAAXXZ 000000014005c780     mfc140u:mfc140u.dll
 0002:00001788       __imp_?RestoreFocus@CMFCToolBar@@UEAAXXZ 000000014005c788     mfc140u:mfc140u.dll
 0002:00001790       __imp_?GetItemRect@CMFCToolBar@@UEBAXHPEAUtagRECT@@@Z 000000014005c790     mfc140u:mfc140u.dll
 0002:00001798       __imp_?GetInvalidateItemRect@CMFCToolBar@@UEBAXHPEAUtagRECT@@@Z 000000014005c798     mfc140u:mfc140u.dll
 0002:000017a0       __imp_?SetButtonStyle@CMFCToolBar@@UEAAXHI@Z 000000014005c7a0     mfc140u:mfc140u.dll
 0002:000017a8       __imp_?EnableDocking@CMFCToolBar@@UEAAXK@Z 000000014005c7a8     mfc140u:mfc140u.dll
 0002:000017b0       __imp_?Serialize@CMFCToolBar@@UEAAXAEAVCArchive@@@Z 000000014005c7b0     mfc140u:mfc140u.dll
 0002:000017b8       __imp_?RemoveStateFromRegistry@CMFCToolBar@@UEAAHPEB_WHI@Z 000000014005c7b8     mfc140u:mfc140u.dll
 0002:000017c0       __imp_?AdjustLayout@CMFCToolBar@@UEAAXXZ 000000014005c7c0     mfc140u:mfc140u.dll
 0002:000017c8       __imp_?HitTest@CMFCToolBar@@UEAAHVCPoint@@@Z 000000014005c7c8     mfc140u:mfc140u.dll
 0002:000017d0       __imp_?TranslateChar@CMFCToolBar@@UEAAHI@Z 000000014005c7d0     mfc140u:mfc140u.dll
 0002:000017d8       __imp_?OnUpdateCmdUI@CMFCToolBar@@UEAAXPEAVCFrameWnd@@H@Z 000000014005c7d8     mfc140u:mfc140u.dll
 0002:000017e0       __imp_?PrevMenu@CMFCToolBar@@UEAAHXZ 000000014005c7e0     mfc140u:mfc140u.dll
 0002:000017e8       __imp_?NextMenu@CMFCToolBar@@UEAAHXZ 000000014005c7e8     mfc140u:mfc140u.dll
 0002:000017f0       __imp_?OnGlobalFontsChanged@CMFCToolBar@@UEAAXXZ 000000014005c7f0     mfc140u:mfc140u.dll
 0002:000017f8       __imp_?OnUserToolTip@CMFCToolBar@@UEBAHPEAVCMFCToolBarButton@@AEAV?$CStringT@_WV?$StrTraitMFC_DLL@_WV?$ChTraitsCRT@_W@ATL@@@@@ATL@@@Z 000000014005c7f8     mfc140u:mfc140u.dll
 0002:00001800       __imp_?OnSetAccData@CMFCToolBar@@UEAAHJ@Z 000000014005c800     mfc140u:mfc140u.dll
 0002:00001808       __imp_?CalcSize@CMFCToolBar@@UEAA?AVCSize@@H@Z 000000014005c808     mfc140u:mfc140u.dll
 0002:00001810       __imp_?StretchPane@CMFCToolBar@@UEAA?AVCSize@@HH@Z 000000014005c810     mfc140u:mfc140u.dll
 0002:00001818       __imp_?get_accDescription@CBasePane@@UEAAJUtagVARIANT@@PEAPEA_W@Z 000000014005c818     mfc140u:mfc140u.dll
 0002:00001820       __imp_?InsertButton@CMFCToolBar@@MEAAHPEAVCMFCToolBarButton@@H@Z 000000014005c820     mfc140u:mfc140u.dll
 0002:00001828       __imp_?DrawButton@CMFCToolBar@@MEAAHPEAVCDC@@PEAVCMFCToolBarButton@@PEAVCMFCToolBarImages@@HH@Z 000000014005c828     mfc140u:mfc140u.dll
 0002:00001830       __imp_?DrawDragCursor@CMFCToolBar@@MEAAXPEAVCDC@@@Z 000000014005c830     mfc140u:mfc140u.dll
 0002:00001838       __imp_?OnAfterFloat@CMFCToolBar@@MEAAXXZ 000000014005c838     mfc140u:mfc140u.dll
 0002:00001840       __imp_?OnAfterDock@CMFCToolBar@@MEAAXPEAVCBasePane@@PEBUtagRECT@@W4AFX_DOCK_METHOD@@@Z 000000014005c840     mfc140u:mfc140u.dll
 0002:00001848       __imp_?OnBeforeChangeParent@CMFCToolBar@@MEAAXPEAVCWnd@@H@Z 000000014005c848     mfc140u:mfc140u.dll
 0002:00001850       __imp_?AccNotifyObjectFocusEvent@CMFCToolBar@@MEAAXH@Z 000000014005c850     mfc140u:mfc140u.dll
 0002:00001858       __imp_?AccGetButtonsCount@CMFCToolBar@@MEAAHXZ 000000014005c858     mfc140u:mfc140u.dll
 0002:00001860       __imp_?get_accChildCount@CMFCToolBar@@MEAAJPEAJ@Z 000000014005c860     mfc140u:mfc140u.dll
 0002:00001868       __imp_?get_accChild@CMFCToolBar@@MEAAJUtagVARIANT@@PEAPEAUIDispatch@@@Z 000000014005c868     mfc140u:mfc140u.dll
 0002:00001870       __imp_?accHitTest@CMFCToolBar@@MEAAJJJPEAUtagVARIANT@@@Z 000000014005c870     mfc140u:mfc140u.dll
 0002:00001878       __imp_?accNavigate@CMFCToolBar@@MEAAJJUtagVARIANT@@PEAU2@@Z 000000014005c878     mfc140u:mfc140u.dll
 0002:00001880       __imp_?accDoDefaultAction@CMFCToolBar@@MEAAJUtagVARIANT@@@Z 000000014005c880     mfc140u:mfc140u.dll
 0002:00001888       __imp_?OnDrop@CMFCToolBar@@MEAAHPEAVCOleDataObject@@KVCPoint@@@Z 000000014005c888     mfc140u:mfc140u.dll
 0002:00001890       __imp_?OnDragEnter@CMFCToolBar@@MEAAKPEAVCOleDataObject@@KVCPoint@@@Z 000000014005c890     mfc140u:mfc140u.dll
 0002:00001898       __imp_?OnDragLeave@CMFCToolBar@@MEAAXXZ 000000014005c898     mfc140u:mfc140u.dll
 0002:000018a0       __imp_?OnDragOver@CMFCToolBar@@MEAAKPEAVCOleDataObject@@KVCPoint@@@Z 000000014005c8a0     mfc140u:mfc140u.dll
 0002:000018a8       __imp_?DoPaint@CMFCToolBar@@MEAAXPEAVCDC@@@Z 000000014005c8a8     mfc140u:mfc140u.dll
 0002:000018b0       __imp_?OnCommand@CMFCToolBar@@MEAAH_K_J@Z 000000014005c8b0     mfc140u:mfc140u.dll
 0002:000018b8       __imp_?NotifyControlCommand@CMFCToolBar@@MEAAHPEAVCMFCToolBarButton@@HH_K_J@Z 000000014005c8b8     mfc140u:mfc140u.dll
 0002:000018c0       __imp_?DrawSeparator@CMFCToolBar@@MEAAXPEAVCDC@@AEBVCRect@@H@Z 000000014005c8c0     mfc140u:mfc140u.dll
 0002:000018c8       __imp_?CreateDroppedButton@CMFCToolBar@@MEAAPEAVCMFCToolBarButton@@PEAVCOleDataObject@@@Z 000000014005c8c8     mfc140u:mfc140u.dll
 0002:000018d0       __imp_?OnCustomizeMode@CMFCToolBar@@MEAAXH@Z 000000014005c8d0     mfc140u:mfc140u.dll
 0002:000018d8       __imp_?EnableContextMenuItems@CMFCToolBar@@MEAAHPEAVCMFCToolBarButton@@PEAVCMenu@@@Z 000000014005c8d8     mfc140u:mfc140u.dll
 0002:000018e0       __imp_?OnCalcSeparatorRect@CMFCToolBar@@MEAAXPEAVCMFCToolBarButton@@AEAVCRect@@H@Z 000000014005c8e0     mfc140u:mfc140u.dll
 0002:000018e8       __imp_?AddRemoveSeparator@CMFCToolBar@@MEAAXPEBVCMFCToolBarButton@@AEBVCPoint@@1@Z 000000014005c8e8     mfc140u:mfc140u.dll
 0002:000018f0       __imp_?ShowCommandMessageString@CMFCToolBar@@MEAAXI@Z 000000014005c8f0     mfc140u:mfc140u.dll
 0002:000018f8       __imp_?OnAfterButtonDelete@CMFCToolBar@@MEAAXXZ 000000014005c8f8     mfc140u:mfc140u.dll
 0002:00001900       __imp_?SaveOriginalState@CMFCToolBar@@MEAAXAEAVCSettingsStore@@@Z 000000014005c900     mfc140u:mfc140u.dll
 0002:00001908       __imp_?LoadLastOriginalState@CMFCToolBar@@MEAAHAEAVCSettingsStore@@@Z 000000014005c908     mfc140u:mfc140u.dll
 0002:00001910       __imp_?AddToRecentFileList@CWinApp@@UEAAXPEB_W@Z 000000014005c910     mfc140u:mfc140u.dll
 0002:00001918       __imp_?SendRequestEx@CHttpFile@@QEAAHKK_K@Z 000000014005c918     mfc140u:mfc140u.dll
 0002:00001920       __imp_?GetThisClass@CMFCMenuBar@@SAPEAUCRuntimeClass@@XZ 000000014005c920     mfc140u:mfc140u.dll
 0002:00001928       __imp_??0CMFCMenuBar@@QEAA@XZ 000000014005c928     mfc140u:mfc140u.dll
 0002:00001930       __imp_?CreateFromMenu@CMFCMenuBar@@UEAAXPEAUHMENU__@@HH@Z 000000014005c930     mfc140u:mfc140u.dll
 0002:00001938       __imp_?BuildOrigItems@CMFCMenuBar@@MEAAHI@Z 000000014005c938     mfc140u:mfc140u.dll
 0002:00001940       __imp_?Create@CMFCMenuBar@@UEAAHPEAVCWnd@@KI@Z 000000014005c940     mfc140u:mfc140u.dll
 0002:00001948       __imp_?CreateEx@CMFCMenuBar@@UEAAHPEAVCWnd@@KKVCRect@@I@Z 000000014005c948     mfc140u:mfc140u.dll
 0002:00001950       __imp_?CalcFixedLayout@CMFCMenuBar@@UEAA?AVCSize@@HH@Z 000000014005c950     mfc140u:mfc140u.dll
 0002:00001958       __imp_?get_accChild@CBasePane@@UEAAJUtagVARIANT@@PEAPEAUIDispatch@@@Z 000000014005c958     mfc140u:mfc140u.dll
 0002:00001960       __imp_?AdjustLocations@CMFCMenuBar@@UEAAXXZ 000000014005c960     mfc140u:mfc140u.dll
 0002:00001968       __imp_?OnSendCommand@CMFCMenuBar@@UEAAHPEBVCMFCToolBarButton@@@Z 000000014005c968     mfc140u:mfc140u.dll
 0002:00001970       __imp_?OnToolHitTest@CMFCMenuBar@@UEBA_JVCPoint@@PEAUtagTOOLINFOW@@@Z 000000014005c970     mfc140u:mfc140u.dll
 0002:00001978       __imp_?SaveState@CMFCMenuBar@@UEAAHPEB_WHI@Z 000000014005c978     mfc140u:mfc140u.dll
 0002:00001980       __imp_?RestoreOriginalState@CMFCMenuBar@@UEAAHXZ 000000014005c980     mfc140u:mfc140u.dll
 0002:00001988       __imp_?PreTranslateMessage@CMFCMenuBar@@UEAAHPEAUtagMSG@@@Z 000000014005c988     mfc140u:mfc140u.dll
 0002:00001990       __imp_?GetRowHeight@CMFCMenuBar@@UEBAHXZ 000000014005c990     mfc140u:mfc140u.dll
 0002:00001998       __imp_?OnSetDefaultButtonText@CMFCMenuBar@@UEAAHPEAVCMFCToolBarButton@@@Z 000000014005c998     mfc140u:mfc140u.dll
 0002:000019a0       __imp_?OnChangeHot@CMFCMenuBar@@UEAAXH@Z 000000014005c9a0     mfc140u:mfc140u.dll
 0002:000019a8       __imp_?FindDropIndex@CMFCMenuBar@@MEBAHVCPoint@@AEAVCRect@@@Z 000000014005c9a8     mfc140u:mfc140u.dll
 0002:000019b0       __imp_?ResetImages@CMFCMenuBar@@MEAAXXZ 000000014005c9b0     mfc140u:mfc140u.dll
 0002:000019b8       __imp_?IsPureMenuButton@CMFCMenuBar@@MEBAHPEAVCMFCToolBarButton@@@Z 000000014005c9b8     mfc140u:mfc140u.dll
 0002:000019c0       __imp_??1CMFCMenuBar@@UEAA@XZ 000000014005c9c0     mfc140u:mfc140u.dll
 0002:000019c8       __imp_?OnTimer@CMFCMenuBar@@IEAAX_K@Z 000000014005c9c8     mfc140u:mfc140u.dll
 0002:000019d0       __imp_?GetThisMessageMap@CMFCMenuBar@@KAPEBUAFX_MSGMAP@@XZ 000000014005c9d0     mfc140u:mfc140u.dll
 0002:000019d8       __imp_?m_pRTIDefault@CMFCVisualManager@@1PEAUCRuntimeClass@@EA 000000014005c9d8     mfc140u:mfc140u.dll
 0002:000019e0       __imp_?m_pVisManager@CMFCVisualManager@@1PEAV1@EA 000000014005c9e0     mfc140u:mfc140u.dll
 0002:000019e8       __imp_?m_sizeButton@CMFCToolBar@@1VCSize@@A 000000014005c9e8     mfc140u:mfc140u.dll
 0002:000019f0       __imp_?m_sizeMenuButton@CMFCToolBar@@1VCSize@@A 000000014005c9f0     mfc140u:mfc140u.dll
 0002:000019f8       __imp_?m_sizeCurButton@CMFCToolBar@@1VCSize@@A 000000014005c9f8     mfc140u:mfc140u.dll
 0002:00001a00       __imp_?SetStretchBltMode@CDC@@QEAAHH@Z 000000014005ca00     mfc140u:mfc140u.dll
 0002:00001a08       __imp_?GetRuntimeClass@CWnd@@UEBAPEAUCRuntimeClass@@XZ 000000014005ca08     mfc140u:mfc140u.dll
 0002:00001a10       __imp_?GetWindowPlacement@CWnd@@QEBAHPEAUtagWINDOWPLACEMENT@@@Z 000000014005ca10     mfc140u:mfc140u.dll
 0002:00001a18       __imp_?SetWindowPlacement@CWnd@@QEAAHPEBUtagWINDOWPLACEMENT@@@Z 000000014005ca18     mfc140u:mfc140u.dll
 0002:00001a20       __imp_??1CWnd@@UEAA@XZ     000000014005ca20     mfc140u:mfc140u.dll
 0002:00001a28       __imp_?MakeUpper@?$CStringT@_WV?$StrTraitMFC_DLL@_WV?$ChTraitsCRT@_W@ATL@@@@@ATL@@QEAAAEAV12@XZ 000000014005ca28     mfc140u:mfc140u.dll
 0002:00001a30       __imp_??0CFileFind@@QEAA@XZ 000000014005ca30     mfc140u:mfc140u.dll
 0002:00001a38       __imp_??1CFileFind@@UEAA@XZ 000000014005ca38     mfc140u:mfc140u.dll
 0002:00001a40       __imp_?GetFileName@CFileFind@@UEBA?AV?$CStringT@_WV?$StrTraitMFC_DLL@_WV?$ChTraitsCRT@_W@ATL@@@@@ATL@@XZ 000000014005ca40     mfc140u:mfc140u.dll
 0002:00001a48       __imp_?GetFilePath@CFileFind@@UEBA?AV?$CStringT@_WV?$StrTraitMFC_DLL@_WV?$ChTraitsCRT@_W@ATL@@@@@ATL@@XZ 000000014005ca48     mfc140u:mfc140u.dll
 0002:00001a50       __imp_?IsDots@CFileFind@@UEBAHXZ 000000014005ca50     mfc140u:mfc140u.dll
 0002:00001a58       __imp_?FindFile@CFileFind@@UEAAHPEB_WK@Z 000000014005ca58     mfc140u:mfc140u.dll
 0002:00001a60       __imp_?FindNextFileW@CFileFind@@UEAAHXZ 000000014005ca60     mfc140u:mfc140u.dll
 0002:00001a68       __imp_??0CMFCButton@@QEAA@XZ 000000014005ca68     mfc140u:mfc140u.dll
 0002:00001a70       __imp_?SetCheckedImage@CMFCButton@@QEAAXPEAUHICON__@@H00H@Z 000000014005ca70     mfc140u:mfc140u.dll
 0002:00001a78       __imp_?MakeLower@?$CStringT@DV?$StrTraitMFC_DLL@DV?$ChTraitsCRT@D@ATL@@@@@ATL@@QEAAAEAV12@XZ 000000014005ca78     mfc140u:mfc140u.dll
 0002:00001a80       __imp_?AddTool@CToolTipCtrl@@QEAAHPEAVCWnd@@PEB_WPEBUtagRECT@@_K@Z 000000014005ca80     mfc140u:mfc140u.dll
 0002:00001a88       __imp_?GetRuntimeClass@CMFCToolBarButton@@UEBAPEAUCRuntimeClass@@XZ 000000014005ca88     mfc140u:mfc140u.dll
 0002:00001a90       __imp_??0CMFCToolBarButton@@QEAA@IHPEB_WHH@Z 000000014005ca90     mfc140u:mfc140u.dll
 0002:00001a98       __imp_??1CMFCToolBarButton@@UEAA@XZ 000000014005ca98     mfc140u:mfc140u.dll
 0002:00001aa0       __imp_?PrepareDrag@CMFCToolBarButton@@UEAAHAEAVCOleDataSource@@@Z 000000014005caa0     mfc140u:mfc140u.dll
 0002:00001aa8       __imp_?CopyFrom@CMFCToolBarButton@@UEAAXAEBV1@@Z 000000014005caa8     mfc140u:mfc140u.dll
 0002:00001ab0       __imp_?Serialize@CMFCToolBarButton@@UEAAXAEAVCArchive@@@Z 000000014005cab0     mfc140u:mfc140u.dll
 0002:00001ab8       __imp_?OnDraw@CMFCToolBarButton@@UEAAXPEAVCDC@@AEBVCRect@@PEAVCMFCToolBarImages@@HHHHH@Z 000000014005cab8     mfc140u:mfc140u.dll
 0002:00001ac0       __imp_?OnCalculateSize@CMFCToolBarButton@@UEAA?AUtagSIZE@@PEAVCDC@@AEBVCSize@@H@Z 000000014005cac0     mfc140u:mfc140u.dll
 0002:00001ac8       __imp_?OnChangeParentWnd@CMFCToolBarButton@@UEAAXPEAVCWnd@@@Z 000000014005cac8     mfc140u:mfc140u.dll
 0002:00001ad0       __imp_?ExportToMenuButton@CMFCToolBarButton@@UEBAHAEAVCMFCToolBarMenuButton@@@Z 000000014005cad0     mfc140u:mfc140u.dll
 0002:00001ad8       __imp_?OnDrawOnCustomizeList@CMFCToolBarButton@@UEAAHPEAVCDC@@AEBVCRect@@H@Z 000000014005cad8     mfc140u:mfc140u.dll
 0002:00001ae0       __imp_?OnToolHitTest@CMFCToolBarButton@@UEAAHPEBVCWnd@@PEAUtagTOOLINFOW@@@Z 000000014005cae0     mfc140u:mfc140u.dll
 0002:00001ae8       __imp_?ResetImageToDefault@CMFCToolBarButton@@UEAAXXZ 000000014005cae8     mfc140u:mfc140u.dll
 0002:00001af0       __imp_?CompareWith@CMFCToolBarButton@@UEBAHAEBV1@@Z 000000014005caf0     mfc140u:mfc140u.dll
 0002:00001af8       __imp_?IsFirstInGroup@CMFCToolBarButton@@UEBAHXZ 000000014005caf8     mfc140u:mfc140u.dll
 0002:00001b00       __imp_?IsLastInGroup@CMFCToolBarButton@@UEBAHXZ 000000014005cb00     mfc140u:mfc140u.dll
 0002:00001b08       __imp_?SetACCData@CMFCToolBarButton@@UEAAHPEAVCWnd@@AEAVCAccessibilityData@@@Z 000000014005cb08     mfc140u:mfc140u.dll
 0002:00001b10       __imp_?GetAccCount@CMFCToolBarButton@@UEAAHXZ 000000014005cb10     mfc140u:mfc140u.dll
 0002:00001b18       __imp_?SetImage@CMFCToolBarButton@@UEAAXH@Z 000000014005cb18     mfc140u:mfc140u.dll
 0002:00001b20       __imp_?GetThisClass@CMFCToolBar@@SAPEAUCRuntimeClass@@XZ 000000014005cb20     mfc140u:mfc140u.dll
 0002:00001b28       __imp_??0CMFCToolBar@@QEAA@XZ 000000014005cb28     mfc140u:mfc140u.dll
 0002:00001b30       __imp_?Create@CMFCToolBar@@UEAAHPEAVCWnd@@KI@Z 000000014005cb30     mfc140u:mfc140u.dll
 0002:00001b38       __imp_?CreateEx@CMFCToolBar@@UEAAHPEAVCWnd@@KKVCRect@@I@Z 000000014005cb38     mfc140u:mfc140u.dll
 0002:00001b40       __imp_?ResetImages@CMFCToolBar@@UEAAXXZ 000000014005cb40     mfc140u:mfc140u.dll
 0002:00001b48       __imp_?SetLockedSizes@CMFCToolBar@@QEAAXUtagSIZE@@0H@Z 000000014005cb48     mfc140u:mfc140u.dll
 0002:00001b50       __imp_?GetRowHeight@CMFCToolBar@@UEBAHXZ 000000014005cb50     mfc140u:mfc140u.dll
 0002:00001b58       __imp_?LoadState@CMFCToolBar@@UEAAHPEB_WHI@Z 000000014005cb58     mfc140u:mfc140u.dll
 0002:00001b60       __imp_?SaveState@CMFCToolBar@@UEAAHPEB_WHI@Z 000000014005cb60     mfc140u:mfc140u.dll
 0002:00001b68       __imp_?CanBeRestored@CMFCToolBar@@UEBAHXZ 000000014005cb68     mfc140u:mfc140u.dll
 0002:00001b70       __imp_?RestoreOriginalState@CMFCToolBar@@UEAAHXZ 000000014005cb70     mfc140u:mfc140u.dll
 0002:00001b78       __imp_?OnSetDefaultButtonText@CMFCToolBar@@UEAAHPEAVCMFCToolBarButton@@@Z 000000014005cb78     mfc140u:mfc140u.dll
 0002:00001b80       __imp_??1CMFCToolBar@@UEAA@XZ 000000014005cb80     mfc140u:mfc140u.dll
 0002:00001b88       __imp_?CalcFixedLayout@CMFCToolBar@@UEAA?AVCSize@@HH@Z 000000014005cb88     mfc140u:mfc140u.dll
 0002:00001b90       __imp_?OnChangeHot@CMFCToolBar@@UEAAXH@Z 000000014005cb90     mfc140u:mfc140u.dll
 0002:00001b98       __imp_?CalcLayout@CMFCToolBar@@MEAA?AVCSize@@KH@Z 000000014005cb98     mfc140u:mfc140u.dll
 0002:00001ba0       __imp_?OnToolHitTest@CMFCToolBar@@MEBA_JVCPoint@@PEAUtagTOOLINFOW@@@Z 000000014005cba0     mfc140u:mfc140u.dll
 0002:00001ba8       __imp_?PreTranslateMessage@CMFCToolBar@@MEAAHPEAUtagMSG@@@Z 000000014005cba8     mfc140u:mfc140u.dll
 0002:00001bb0       __imp_?FindDropIndex@CMFCToolBar@@MEBAHVCPoint@@AEAVCRect@@@Z 000000014005cbb0     mfc140u:mfc140u.dll
 0002:00001bb8       __imp_?AdjustLocations@CMFCToolBar@@MEAAXXZ 000000014005cbb8     mfc140u:mfc140u.dll
 0002:00001bc0       __imp_?CalcMaxButtonHeight@CMFCToolBar@@MEAAHXZ 000000014005cbc0     mfc140u:mfc140u.dll
 0002:00001bc8       __imp_?OnEraseBkgnd@CMFCToolBar@@IEAAHPEAVCDC@@@Z 000000014005cbc8     mfc140u:mfc140u.dll
 0002:00001bd0       __imp_?GetThisMessageMap@CMFCToolBar@@KAPEBUAFX_MSGMAP@@XZ 000000014005cbd0     mfc140u:mfc140u.dll
 0002:00001bd8       __imp_?afxUserToolsManager@@3PEAVCUserToolsManager@@EA 000000014005cbd8     mfc140u:mfc140u.dll
 0002:00001be0       __imp_?m_lstProtectedCommands@CMFCToolBarButton@@1V?$CList@II@@A 000000014005cbe0     mfc140u:mfc140u.dll
 0002:00001be8       __imp_?m_bShowTooltips@CMFCToolBar@@1HA 000000014005cbe8     mfc140u:mfc140u.dll
 0002:00001bf0       __imp_?FromHandle@CImageList@@SAPEAV1@PEAU_IMAGELIST@@@Z 000000014005cbf0     mfc140u:mfc140u.dll
 0002:00001bf8       __imp_?TrackPopupMenu@CMenu@@QEAAHIHHPEAVCWnd@@PEBUtagRECT@@@Z 000000014005cbf8     mfc140u:mfc140u.dll
 0002:00001c00       __imp_?FromHandlePermanent@CWnd@@SAPEAV1@PEAUHWND__@@@Z 000000014005cc00     mfc140u:mfc140u.dll
 0002:00001c08       __imp_?GetThisClass@CView@@SAPEAUCRuntimeClass@@XZ 000000014005cc08     mfc140u:mfc140u.dll
 0002:00001c10       __imp_??0CView@@IEAA@XZ    000000014005cc10     mfc140u:mfc140u.dll
 0002:00001c18       __imp_?DoPreparePrinting@CView@@QEAAHPEAUCPrintInfo@@@Z 000000014005cc18     mfc140u:mfc140u.dll
 0002:00001c20       __imp_?IsSelected@CView@@UEBAHPEBVCObject@@@Z 000000014005cc20     mfc140u:mfc140u.dll
 0002:00001c28       __imp_?OnScroll@CView@@UEAAHIIH@Z 000000014005cc28     mfc140u:mfc140u.dll
 0002:00001c30       __imp_?OnScrollBy@CView@@UEAAHVCSize@@H@Z 000000014005cc30     mfc140u:mfc140u.dll
 0002:00001c38       __imp_?OnDragEnter@CView@@UEAAKPEAVCOleDataObject@@KVCPoint@@@Z 000000014005cc38     mfc140u:mfc140u.dll
 0002:00001c40       __imp_?OnDragOver@CView@@UEAAKPEAVCOleDataObject@@KVCPoint@@@Z 000000014005cc40     mfc140u:mfc140u.dll
 0002:00001c48       __imp_?OnDragLeave@CView@@UEAAXXZ 000000014005cc48     mfc140u:mfc140u.dll
 0002:00001c50       __imp_?OnDrop@CView@@UEAAHPEAVCOleDataObject@@KVCPoint@@@Z 000000014005cc50     mfc140u:mfc140u.dll
 0002:00001c58       __imp_?OnDropEx@CView@@UEAAKPEAVCOleDataObject@@KKVCPoint@@@Z 000000014005cc58     mfc140u:mfc140u.dll
 0002:00001c60       __imp_?OnDragScroll@CView@@UEAAKKVCPoint@@@Z 000000014005cc60     mfc140u:mfc140u.dll
 0002:00001c68       __imp_?OnPrepareDC@CView@@UEAAXPEAVCDC@@PEAUCPrintInfo@@@Z 000000014005cc68     mfc140u:mfc140u.dll
 0002:00001c70       __imp_?OnInitialUpdate@CView@@UEAAXXZ 000000014005cc70     mfc140u:mfc140u.dll
 0002:00001c78       __imp_?OnActivateView@CView@@MEAAXHPEAV1@0@Z 000000014005cc78     mfc140u:mfc140u.dll
 0002:00001c80       __imp_?OnActivateFrame@CView@@MEAAXIPEAVCFrameWnd@@@Z 000000014005cc80     mfc140u:mfc140u.dll
 0002:00001c88       __imp_?OnUpdate@CView@@MEAAXPEAV1@_JPEAVCObject@@@Z 000000014005cc88     mfc140u:mfc140u.dll
 0002:00001c90       __imp_?OnPrint@CView@@MEAAXPEAVCDC@@PEAUCPrintInfo@@@Z 000000014005cc90     mfc140u:mfc140u.dll
 0002:00001c98       __imp_?OnEndPrintPreview@CView@@MEAAXPEAVCDC@@PEAUCPrintInfo@@UtagPOINT@@PEAVCPreviewView@@@Z 000000014005cc98     mfc140u:mfc140u.dll
 0002:00001ca0       __imp_??1CView@@UEAA@XZ    000000014005cca0     mfc140u:mfc140u.dll
 0002:00001ca8       __imp_?CalcWindowRect@CView@@UEAAXPEAUtagRECT@@I@Z 000000014005cca8     mfc140u:mfc140u.dll
 0002:00001cb0       __imp_?GetScrollBarCtrl@CView@@UEBAPEAVCScrollBar@@H@Z 000000014005ccb0     mfc140u:mfc140u.dll
 0002:00001cb8       __imp_?OnCmdMsg@CView@@UEAAHIHPEAXPEAUAFX_CMDHANDLERINFO@@@Z 000000014005ccb8     mfc140u:mfc140u.dll
 0002:00001cc0       __imp_?PreCreateWindow@CView@@MEAAHAEAUtagCREATESTRUCTW@@@Z 000000014005ccc0     mfc140u:mfc140u.dll
 0002:00001cc8       __imp_?PostNcDestroy@CView@@MEAAXXZ 000000014005ccc8     mfc140u:mfc140u.dll
 0002:00001cd0       __imp_?OnCreate@CView@@IEAAHPEAUtagCREATESTRUCTW@@@Z 000000014005ccd0     mfc140u:mfc140u.dll
 0002:00001cd8       __imp_?OnFilePrint@CView@@IEAAXXZ 000000014005ccd8     mfc140u:mfc140u.dll
 0002:00001ce0       __imp_?GetThisMessageMap@CView@@KAPEBUAFX_MSGMAP@@XZ 000000014005cce0     mfc140u:mfc140u.dll
 0002:00001ce8       __imp_?ClearImageList@CMFCBaseTabCtrl@@UEAAXXZ 000000014005cce8     mfc140u:mfc140u.dll
 0002:00001cf0       __imp_?AddTab@CMFCBaseTabCtrl@@UEAAXPEAVCWnd@@PEB_WIH@Z 000000014005ccf0     mfc140u:mfc140u.dll
 0002:00001cf8       __imp_?AddTab@CMFCBaseTabCtrl@@UEAAXPEAVCWnd@@IIH@Z 000000014005ccf8     mfc140u:mfc140u.dll
 0002:00001d00       __imp_?InsertTab@CMFCBaseTabCtrl@@UEAAXPEAVCWnd@@PEB_WHIH@Z 000000014005cd00     mfc140u:mfc140u.dll
 0002:00001d08       __imp_?InsertTab@CMFCBaseTabCtrl@@UEAAXPEAVCWnd@@IHIH@Z 000000014005cd08     mfc140u:mfc140u.dll
 0002:00001d10       __imp_?RemoveTab@CMFCBaseTabCtrl@@UEAAHHH@Z 000000014005cd10     mfc140u:mfc140u.dll
 0002:00001d18       __imp_?RemoveAllTabs@CMFCBaseTabCtrl@@UEAAXXZ 000000014005cd18     mfc140u:mfc140u.dll
 0002:00001d20       __imp_?DetachTab@CMFCBaseTabCtrl@@UEAAHW4AFX_DOCK_METHOD@@HH@Z 000000014005cd20     mfc140u:mfc140u.dll
 0002:00001d28       __imp_?GetVisibleTabsNum@CMFCBaseTabCtrl@@UEBAHXZ 000000014005cd28     mfc140u:mfc140u.dll
 0002:00001d30       __imp_?ShowTab@CMFCBaseTabCtrl@@UEAAHHHHH@Z 000000014005cd30     mfc140u:mfc140u.dll
 0002:00001d38       __imp_?GetTabWnd@CMFCBaseTabCtrl@@UEBAPEAVCWnd@@H@Z 000000014005cd38     mfc140u:mfc140u.dll
 0002:00001d40       __imp_?GetTabWndNoWrapper@CMFCBaseTabCtrl@@UEBAPEAVCWnd@@H@Z 000000014005cd40     mfc140u:mfc140u.dll
 0002:00001d48       __imp_?GetTabRect@CMFCBaseTabCtrl@@UEBAHHAEAVCRect@@@Z 000000014005cd48     mfc140u:mfc140u.dll
 0002:00001d50       __imp_?GetTabLabel@CMFCBaseTabCtrl@@UEBAHHAEAV?$CStringT@_WV?$StrTraitMFC_DLL@_WV?$ChTraitsCRT@_W@ATL@@@@@ATL@@@Z 000000014005cd50     mfc140u:mfc140u.dll
